(lp0
(lp1
(cnumpy.core.multiarray
scalar
p2
(cnumpy
dtype
p3
(S'i4'
p4
I0
I1
tp5
Rp6
(I3
S'<'
p7
NNNI-1
I-1
I0
tp8
bS'\x01\x00\x00\x00'
p9
tp10
Rp11
(I0
I60
tp12
tp13
a(g2
(g6
S'\x01\x00\x00\x00'
p14
tp15
Rp16
(I60
I118
tp17
tp18
a(g2
(g6
S'\x01\x00\x00\x00'
p19
tp20
Rp21
(I118
I165
tp22
tp23
aa(lp24
(g2
(g6
S'\x01\x00\x00\x00'
p25
tp26
Rp27
(I0
I60
tp28
tp29
a(g2
(g6
S'\x04\x00\x00\x00'
p30
tp31
Rp32
(I60
I92
tp33
tp34
a(g2
(g6
S'\x01\x00\x00\x00'
p35
tp36
Rp37
(I92
I143
tp38
tp39
a(g2
(g6
S'\x04\x00\x00\x00'
p40
tp41
Rp42
(I143
I165
tp43
tp44
aa(lp45
(g2
(g6
S'\x01\x00\x00\x00'
p46
tp47
Rp48
(I0
I60
tp49
tp50
a(g2
(g6
S'\x04\x00\x00\x00'
p51
tp52
Rp53
(I60
I111
tp54
tp55
a(g2
(g6
S'\x04\x00\x00\x00'
p56
tp57
Rp58
(I111
I149
tp59
tp60
a(g2
(g6
S'\x04\x00\x00\x00'
p61
tp62
Rp63
(I149
I165
tp64
tp65
aa(lp66
(g2
(g6
S'\x06\x00\x00\x00'
p67
tp68
Rp69
(I0
I41
tp70
tp71
a(g2
(g6
S'\x02\x00\x00\x00'
p72
tp73
Rp74
(I41
I63
tp75
tp76
a(g2
(g6
S'\x04\x00\x00\x00'
p77
tp78
Rp79
(I63
I94
tp80
tp81
a(g2
(g6
S'\x06\x00\x00\x00'
p82
tp83
Rp84
(I94
I129
tp85
tp86
a(g2
(g6
S'\x06\x00\x00\x00'
p87
tp88
Rp89
(I129
I165
tp90
tp91
aa(lp92
(g2
(g6
S'\x05\x00\x00\x00'
p93
tp94
Rp95
(I0
I17
tp96
tp97
a(g2
(g6
S'\x04\x00\x00\x00'
p98
tp99
Rp100
(I17
I46
tp101
tp102
a(g2
(g6
S'\x00\x00\x00\x00'
p103
tp104
Rp105
(I46
I95
tp106
tp107
a(g2
(g6
S'\x06\x00\x00\x00'
p108
tp109
Rp110
(I95
I130
tp111
tp112
a(g2
(g6
S'\x06\x00\x00\x00'
p113
tp114
Rp115
(I130
I165
tp116
tp117
aa(lp118
(g2
(g6
S'\x05\x00\x00\x00'
p119
tp120
Rp121
(I0
I17
tp122
tp123
a(g2
(g6
S'\x04\x00\x00\x00'
p124
tp125
Rp126
(I17
I47
tp127
tp128
a(g2
(g6
S'\x00\x00\x00\x00'
p129
tp130
Rp131
(I47
I98
tp132
tp133
a(g2
(g6
S'\x06\x00\x00\x00'
p134
tp135
Rp136
(I98
I129
tp137
tp138
a(g2
(g6
S'\x06\x00\x00\x00'
p139
tp140
Rp141
(I129
I165
tp142
tp143
aa(lp144
(g2
(g6
S'\x05\x00\x00\x00'
p145
tp146
Rp147
(I0
I17
tp148
tp149
a(g2
(g6
S'\x04\x00\x00\x00'
p150
tp151
Rp152
(I17
I47
tp153
tp154
a(g2
(g6
S'\x00\x00\x00\x00'
p155
tp156
Rp157
(I47
I99
tp158
tp159
a(g2
(g6
S'\x06\x00\x00\x00'
p160
tp161
Rp162
(I99
I129
tp163
tp164
a(g2
(g6
S'\x06\x00\x00\x00'
p165
tp166
Rp167
(I129
I165
tp168
tp169
aa(lp170
(g2
(g6
S'\x05\x00\x00\x00'
p171
tp172
Rp173
(I0
I17
tp174
tp175
a(g2
(g6
S'\x04\x00\x00\x00'
p176
tp177
Rp178
(I17
I46
tp179
tp180
a(g2
(g6
S'\x00\x00\x00\x00'
p181
tp182
Rp183
(I46
I94
tp184
tp185
a(g2
(g6
S'\x06\x00\x00\x00'
p186
tp187
Rp188
(I94
I131
tp189
tp190
a(g2
(g6
S'\x06\x00\x00\x00'
p191
tp192
Rp193
(I131
I165
tp194
tp195
aa(lp196
(g2
(g6
S'\x05\x00\x00\x00'
p197
tp198
Rp199
(I0
I17
tp200
tp201
a(g2
(g6
S'\x04\x00\x00\x00'
p202
tp203
Rp204
(I17
I46
tp205
tp206
a(g2
(g6
S'\x00\x00\x00\x00'
p207
tp208
Rp209
(I46
I96
tp210
tp211
a(g2
(g6
S'\x01\x00\x00\x00'
p212
tp213
Rp214
(I96
I146
tp215
tp216
a(g2
(g6
S'\x06\x00\x00\x00'
p217
tp218
Rp219
(I146
I165
tp220
tp221
aa(lp222
(g2
(g6
S'\x05\x00\x00\x00'
p223
tp224
Rp225
(I0
I17
tp226
tp227
a(g2
(g6
S'\x04\x00\x00\x00'
p228
tp229
Rp230
(I17
I47
tp231
tp232
a(g2
(g6
S'\x00\x00\x00\x00'
p233
tp234
Rp235
(I47
I99
tp236
tp237
a(g2
(g6
S'\x01\x00\x00\x00'
p238
tp239
Rp240
(I99
I146
tp241
tp242
a(g2
(g6
S'\x06\x00\x00\x00'
p243
tp244
Rp245
(I146
I165
tp246
tp247
aa(lp248
(g2
(g6
S'\x05\x00\x00\x00'
p249
tp250
Rp251
(I0
I17
tp252
tp253
a(g2
(g6
S'\x04\x00\x00\x00'
p254
tp255
Rp256
(I17
I46
tp257
tp258
a(g2
(g6
S'\x00\x00\x00\x00'
p259
tp260
Rp261
(I46
I95
tp262
tp263
a(g2
(g6
S'\x01\x00\x00\x00'
p264
tp265
Rp266
(I95
I145
tp267
tp268
a(g2
(g6
S'\x06\x00\x00\x00'
p269
tp270
Rp271
(I145
I165
tp272
tp273
aa(lp274
(g2
(g6
S'\x05\x00\x00\x00'
p275
tp276
Rp277
(I0
I17
tp278
tp279
a(g2
(g6
S'\x04\x00\x00\x00'
p280
tp281
Rp282
(I17
I46
tp283
tp284
a(g2
(g6
S'\x00\x00\x00\x00'
p285
tp286
Rp287
(I46
I98
tp288
tp289
a(g2
(g6
S'\x01\x00\x00\x00'
p290
tp291
Rp292
(I98
I146
tp293
tp294
a(g2
(g6
S'\x06\x00\x00\x00'
p295
tp296
Rp297
(I146
I165
tp298
tp299
aa(lp300
(g2
(g6
S'\x05\x00\x00\x00'
p301
tp302
Rp303
(I0
I17
tp304
tp305
a(g2
(g6
S'\x04\x00\x00\x00'
p306
tp307
Rp308
(I17
I46
tp309
tp310
a(g2
(g6
S'\x00\x00\x00\x00'
p311
tp312
Rp313
(I46
I98
tp314
tp315
a(g2
(g6
S'\x01\x00\x00\x00'
p316
tp317
Rp318
(I98
I144
tp319
tp320
a(g2
(g6
S'\x06\x00\x00\x00'
p321
tp322
Rp323
(I144
I165
tp324
tp325
aa(lp326
(g2
(g6
S'\x05\x00\x00\x00'
p327
tp328
Rp329
(I0
I17
tp330
tp331
a(g2
(g6
S'\x04\x00\x00\x00'
p332
tp333
Rp334
(I17
I46
tp335
tp336
a(g2
(g6
S'\x00\x00\x00\x00'
p337
tp338
Rp339
(I46
I99
tp340
tp341
a(g2
(g6
S'\x01\x00\x00\x00'
p342
tp343
Rp344
(I99
I145
tp345
tp346
a(g2
(g6
S'\x06\x00\x00\x00'
p347
tp348
Rp349
(I145
I165
tp350
tp351
aa(lp352
(g2
(g6
S'\x05\x00\x00\x00'
p353
tp354
Rp355
(I0
I17
tp356
tp357
a(g2
(g6
S'\x04\x00\x00\x00'
p358
tp359
Rp360
(I17
I46
tp361
tp362
a(g2
(g6
S'\x00\x00\x00\x00'
p363
tp364
Rp365
(I46
I93
tp366
tp367
a(g2
(g6
S'\x01\x00\x00\x00'
p368
tp369
Rp370
(I93
I146
tp371
tp372
a(g2
(g6
S'\x06\x00\x00\x00'
p373
tp374
Rp375
(I146
I165
tp376
tp377
aa(lp378
(g2
(g6
S'\x05\x00\x00\x00'
p379
tp380
Rp381
(I0
I17
tp382
tp383
a(g2
(g6
S'\x04\x00\x00\x00'
p384
tp385
Rp386
(I17
I46
tp387
tp388
a(g2
(g6
S'\x00\x00\x00\x00'
p389
tp390
Rp391
(I46
I94
tp392
tp393
a(g2
(g6
S'\x01\x00\x00\x00'
p394
tp395
Rp396
(I94
I145
tp397
tp398
a(g2
(g6
S'\x06\x00\x00\x00'
p399
tp400
Rp401
(I145
I165
tp402
tp403
aa(lp404
(g2
(g6
S'\x05\x00\x00\x00'
p405
tp406
Rp407
(I0
I17
tp408
tp409
a(g2
(g6
S'\x04\x00\x00\x00'
p410
tp411
Rp412
(I17
I46
tp413
tp414
a(g2
(g6
S'\x00\x00\x00\x00'
p415
tp416
Rp417
(I46
I96
tp418
tp419
a(g2
(g6
S'\x01\x00\x00\x00'
p420
tp421
Rp422
(I96
I146
tp423
tp424
a(g2
(g6
S'\x06\x00\x00\x00'
p425
tp426
Rp427
(I146
I165
tp428
tp429
aa(lp430
(g2
(g6
S'\x05\x00\x00\x00'
p431
tp432
Rp433
(I0
I17
tp434
tp435
a(g2
(g6
S'\x04\x00\x00\x00'
p436
tp437
Rp438
(I17
I46
tp439
tp440
a(g2
(g6
S'\x00\x00\x00\x00'
p441
tp442
Rp443
(I46
I99
tp444
tp445
a(g2
(g6
S'\x01\x00\x00\x00'
p446
tp447
Rp448
(I99
I146
tp449
tp450
a(g2
(g6
S'\x06\x00\x00\x00'
p451
tp452
Rp453
(I146
I165
tp454
tp455
aa(lp456
(g2
(g6
S'\x05\x00\x00\x00'
p457
tp458
Rp459
(I0
I17
tp460
tp461
a(g2
(g6
S'\x04\x00\x00\x00'
p462
tp463
Rp464
(I17
I46
tp465
tp466
a(g2
(g6
S'\x00\x00\x00\x00'
p467
tp468
Rp469
(I46
I98
tp470
tp471
a(g2
(g6
S'\x01\x00\x00\x00'
p472
tp473
Rp474
(I98
I146
tp475
tp476
a(g2
(g6
S'\x06\x00\x00\x00'
p477
tp478
Rp479
(I146
I165
tp480
tp481
aa(lp482
(g2
(g6
S'\x05\x00\x00\x00'
p483
tp484
Rp485
(I0
I17
tp486
tp487
a(g2
(g6
S'\x04\x00\x00\x00'
p488
tp489
Rp490
(I17
I46
tp491
tp492
a(g2
(g6
S'\x00\x00\x00\x00'
p493
tp494
Rp495
(I46
I98
tp496
tp497
a(g2
(g6
S'\x01\x00\x00\x00'
p498
tp499
Rp500
(I98
I146
tp501
tp502
a(g2
(g6
S'\x06\x00\x00\x00'
p503
tp504
Rp505
(I146
I165
tp506
tp507
aa(lp508
(g2
(g6
S'\x05\x00\x00\x00'
p509
tp510
Rp511
(I0
I17
tp512
tp513
a(g2
(g6
S'\x04\x00\x00\x00'
p514
tp515
Rp516
(I17
I47
tp517
tp518
a(g2
(g6
S'\x00\x00\x00\x00'
p519
tp520
Rp521
(I47
I96
tp522
tp523
a(g2
(g6
S'\x01\x00\x00\x00'
p524
tp525
Rp526
(I96
I147
tp527
tp528
a(g2
(g6
S'\x06\x00\x00\x00'
p529
tp530
Rp531
(I147
I165
tp532
tp533
aa(lp534
(g2
(g6
S'\x05\x00\x00\x00'
p535
tp536
Rp537
(I0
I17
tp538
tp539
a(g2
(g6
S'\x04\x00\x00\x00'
p540
tp541
Rp542
(I17
I47
tp543
tp544
a(g2
(g6
S'\x00\x00\x00\x00'
p545
tp546
Rp547
(I47
I95
tp548
tp549
a(g2
(g6
S'\x01\x00\x00\x00'
p550
tp551
Rp552
(I95
I146
tp553
tp554
a(g2
(g6
S'\x06\x00\x00\x00'
p555
tp556
Rp557
(I146
I165
tp558
tp559
aa(lp560
(g2
(g6
S'\x05\x00\x00\x00'
p561
tp562
Rp563
(I0
I17
tp564
tp565
a(g2
(g6
S'\x04\x00\x00\x00'
p566
tp567
Rp568
(I17
I46
tp569
tp570
a(g2
(g6
S'\x00\x00\x00\x00'
p571
tp572
Rp573
(I46
I97
tp574
tp575
a(g2
(g6
S'\x01\x00\x00\x00'
p576
tp577
Rp578
(I97
I146
tp579
tp580
a(g2
(g6
S'\x06\x00\x00\x00'
p581
tp582
Rp583
(I146
I165
tp584
tp585
aa(lp586
(g2
(g6
S'\x05\x00\x00\x00'
p587
tp588
Rp589
(I0
I17
tp590
tp591
a(g2
(g6
S'\x04\x00\x00\x00'
p592
tp593
Rp594
(I17
I46
tp595
tp596
a(g2
(g6
S'\x00\x00\x00\x00'
p597
tp598
Rp599
(I46
I95
tp600
tp601
a(g2
(g6
S'\x01\x00\x00\x00'
p602
tp603
Rp604
(I95
I147
tp605
tp606
a(g2
(g6
S'\x06\x00\x00\x00'
p607
tp608
Rp609
(I147
I165
tp610
tp611
aa(lp612
(g2
(g6
S'\x05\x00\x00\x00'
p613
tp614
Rp615
(I0
I17
tp616
tp617
a(g2
(g6
S'\x04\x00\x00\x00'
p618
tp619
Rp620
(I17
I47
tp621
tp622
a(g2
(g6
S'\x00\x00\x00\x00'
p623
tp624
Rp625
(I47
I97
tp626
tp627
a(g2
(g6
S'\x01\x00\x00\x00'
p628
tp629
Rp630
(I97
I146
tp631
tp632
a(g2
(g6
S'\x06\x00\x00\x00'
p633
tp634
Rp635
(I146
I165
tp636
tp637
aa(lp638
(g2
(g6
S'\x05\x00\x00\x00'
p639
tp640
Rp641
(I0
I17
tp642
tp643
a(g2
(g6
S'\x04\x00\x00\x00'
p644
tp645
Rp646
(I17
I47
tp647
tp648
a(g2
(g6
S'\x00\x00\x00\x00'
p649
tp650
Rp651
(I47
I97
tp652
tp653
a(g2
(g6
S'\x01\x00\x00\x00'
p654
tp655
Rp656
(I97
I146
tp657
tp658
a(g2
(g6
S'\x06\x00\x00\x00'
p659
tp660
Rp661
(I146
I165
tp662
tp663
aa(lp664
(g2
(g6
S'\x05\x00\x00\x00'
p665
tp666
Rp667
(I0
I17
tp668
tp669
a(g2
(g6
S'\x04\x00\x00\x00'
p670
tp671
Rp672
(I17
I46
tp673
tp674
a(g2
(g6
S'\x00\x00\x00\x00'
p675
tp676
Rp677
(I46
I96
tp678
tp679
a(g2
(g6
S'\x01\x00\x00\x00'
p680
tp681
Rp682
(I96
I147
tp683
tp684
a(g2
(g6
S'\x06\x00\x00\x00'
p685
tp686
Rp687
(I147
I165
tp688
tp689
aa(lp690
(g2
(g6
S'\x05\x00\x00\x00'
p691
tp692
Rp693
(I0
I17
tp694
tp695
a(g2
(g6
S'\x04\x00\x00\x00'
p696
tp697
Rp698
(I17
I46
tp699
tp700
a(g2
(g6
S'\x00\x00\x00\x00'
p701
tp702
Rp703
(I46
I97
tp704
tp705
a(g2
(g6
S'\x01\x00\x00\x00'
p706
tp707
Rp708
(I97
I146
tp709
tp710
a(g2
(g6
S'\x06\x00\x00\x00'
p711
tp712
Rp713
(I146
I165
tp714
tp715
aa(lp716
(g2
(g6
S'\x05\x00\x00\x00'
p717
tp718
Rp719
(I0
I17
tp720
tp721
a(g2
(g6
S'\x04\x00\x00\x00'
p722
tp723
Rp724
(I17
I47
tp725
tp726
a(g2
(g6
S'\x00\x00\x00\x00'
p727
tp728
Rp729
(I47
I94
tp730
tp731
a(g2
(g6
S'\x01\x00\x00\x00'
p732
tp733
Rp734
(I94
I146
tp735
tp736
a(g2
(g6
S'\x06\x00\x00\x00'
p737
tp738
Rp739
(I146
I165
tp740
tp741
aa(lp742
(g2
(g6
S'\x05\x00\x00\x00'
p743
tp744
Rp745
(I0
I17
tp746
tp747
a(g2
(g6
S'\x04\x00\x00\x00'
p748
tp749
Rp750
(I17
I47
tp751
tp752
a(g2
(g6
S'\x00\x00\x00\x00'
p753
tp754
Rp755
(I47
I96
tp756
tp757
a(g2
(g6
S'\x01\x00\x00\x00'
p758
tp759
Rp760
(I96
I146
tp761
tp762
a(g2
(g6
S'\x06\x00\x00\x00'
p763
tp764
Rp765
(I146
I165
tp766
tp767
aa(lp768
(g2
(g6
S'\x05\x00\x00\x00'
p769
tp770
Rp771
(I0
I17
tp772
tp773
a(g2
(g6
S'\x04\x00\x00\x00'
p774
tp775
Rp776
(I17
I46
tp777
tp778
a(g2
(g6
S'\x00\x00\x00\x00'
p779
tp780
Rp781
(I46
I99
tp782
tp783
a(g2
(g6
S'\x01\x00\x00\x00'
p784
tp785
Rp786
(I99
I146
tp787
tp788
a(g2
(g6
S'\x06\x00\x00\x00'
p789
tp790
Rp791
(I146
I165
tp792
tp793
aa(lp794
(g2
(g6
S'\x05\x00\x00\x00'
p795
tp796
Rp797
(I0
I17
tp798
tp799
a(g2
(g6
S'\x04\x00\x00\x00'
p800
tp801
Rp802
(I17
I46
tp803
tp804
a(g2
(g6
S'\x00\x00\x00\x00'
p805
tp806
Rp807
(I46
I103
tp808
tp809
a(g2
(g6
S'\x01\x00\x00\x00'
p810
tp811
Rp812
(I103
I146
tp813
tp814
a(g2
(g6
S'\x06\x00\x00\x00'
p815
tp816
Rp817
(I146
I165
tp818
tp819
aa(lp820
(g2
(g6
S'\x05\x00\x00\x00'
p821
tp822
Rp823
(I0
I17
tp824
tp825
a(g2
(g6
S'\x04\x00\x00\x00'
p826
tp827
Rp828
(I17
I46
tp829
tp830
a(g2
(g6
S'\x00\x00\x00\x00'
p831
tp832
Rp833
(I46
I95
tp834
tp835
a(g2
(g6
S'\x01\x00\x00\x00'
p836
tp837
Rp838
(I95
I146
tp839
tp840
a(g2
(g6
S'\x06\x00\x00\x00'
p841
tp842
Rp843
(I146
I165
tp844
tp845
aa(lp846
(g2
(g6
S'\x05\x00\x00\x00'
p847
tp848
Rp849
(I0
I17
tp850
tp851
a(g2
(g6
S'\x04\x00\x00\x00'
p852
tp853
Rp854
(I17
I47
tp855
tp856
a(g2
(g6
S'\x00\x00\x00\x00'
p857
tp858
Rp859
(I47
I94
tp860
tp861
a(g2
(g6
S'\x01\x00\x00\x00'
p862
tp863
Rp864
(I94
I146
tp865
tp866
a(g2
(g6
S'\x06\x00\x00\x00'
p867
tp868
Rp869
(I146
I165
tp870
tp871
aa(lp872
(g2
(g6
S'\x05\x00\x00\x00'
p873
tp874
Rp875
(I0
I17
tp876
tp877
a(g2
(g6
S'\x04\x00\x00\x00'
p878
tp879
Rp880
(I17
I46
tp881
tp882
a(g2
(g6
S'\x00\x00\x00\x00'
p883
tp884
Rp885
(I46
I93
tp886
tp887
a(g2
(g6
S'\x01\x00\x00\x00'
p888
tp889
Rp890
(I93
I146
tp891
tp892
a(g2
(g6
S'\x06\x00\x00\x00'
p893
tp894
Rp895
(I146
I165
tp896
tp897
aa(lp898
(g2
(g6
S'\x05\x00\x00\x00'
p899
tp900
Rp901
(I0
I17
tp902
tp903
a(g2
(g6
S'\x04\x00\x00\x00'
p904
tp905
Rp906
(I17
I46
tp907
tp908
a(g2
(g6
S'\x00\x00\x00\x00'
p909
tp910
Rp911
(I46
I96
tp912
tp913
a(g2
(g6
S'\x01\x00\x00\x00'
p914
tp915
Rp916
(I96
I146
tp917
tp918
a(g2
(g6
S'\x06\x00\x00\x00'
p919
tp920
Rp921
(I146
I165
tp922
tp923
aa(lp924
(g2
(g6
S'\x05\x00\x00\x00'
p925
tp926
Rp927
(I0
I17
tp928
tp929
a(g2
(g6
S'\x04\x00\x00\x00'
p930
tp931
Rp932
(I17
I47
tp933
tp934
a(g2
(g6
S'\x00\x00\x00\x00'
p935
tp936
Rp937
(I47
I95
tp938
tp939
a(g2
(g6
S'\x01\x00\x00\x00'
p940
tp941
Rp942
(I95
I146
tp943
tp944
a(g2
(g6
S'\x06\x00\x00\x00'
p945
tp946
Rp947
(I146
I165
tp948
tp949
aa(lp950
(g2
(g6
S'\x05\x00\x00\x00'
p951
tp952
Rp953
(I0
I17
tp954
tp955
a(g2
(g6
S'\x04\x00\x00\x00'
p956
tp957
Rp958
(I17
I46
tp959
tp960
a(g2
(g6
S'\x00\x00\x00\x00'
p961
tp962
Rp963
(I46
I94
tp964
tp965
a(g2
(g6
S'\x01\x00\x00\x00'
p966
tp967
Rp968
(I94
I146
tp969
tp970
a(g2
(g6
S'\x06\x00\x00\x00'
p971
tp972
Rp973
(I146
I165
tp974
tp975
aa(lp976
(g2
(g6
S'\x05\x00\x00\x00'
p977
tp978
Rp979
(I0
I17
tp980
tp981
a(g2
(g6
S'\x04\x00\x00\x00'
p982
tp983
Rp984
(I17
I46
tp985
tp986
a(g2
(g6
S'\x00\x00\x00\x00'
p987
tp988
Rp989
(I46
I93
tp990
tp991
a(g2
(g6
S'\x01\x00\x00\x00'
p992
tp993
Rp994
(I93
I146
tp995
tp996
a(g2
(g6
S'\x06\x00\x00\x00'
p997
tp998
Rp999
(I146
I165
tp1000
tp1001
aa(lp1002
(g2
(g6
S'\x05\x00\x00\x00'
p1003
tp1004
Rp1005
(I0
I17
tp1006
tp1007
a(g2
(g6
S'\x04\x00\x00\x00'
p1008
tp1009
Rp1010
(I17
I47
tp1011
tp1012
a(g2
(g6
S'\x00\x00\x00\x00'
p1013
tp1014
Rp1015
(I47
I96
tp1016
tp1017
a(g2
(g6
S'\x01\x00\x00\x00'
p1018
tp1019
Rp1020
(I96
I146
tp1021
tp1022
a(g2
(g6
S'\x06\x00\x00\x00'
p1023
tp1024
Rp1025
(I146
I165
tp1026
tp1027
aa(lp1028
(g2
(g6
S'\x05\x00\x00\x00'
p1029
tp1030
Rp1031
(I0
I17
tp1032
tp1033
a(g2
(g6
S'\x04\x00\x00\x00'
p1034
tp1035
Rp1036
(I17
I46
tp1037
tp1038
a(g2
(g6
S'\x00\x00\x00\x00'
p1039
tp1040
Rp1041
(I46
I98
tp1042
tp1043
a(g2
(g6
S'\x01\x00\x00\x00'
p1044
tp1045
Rp1046
(I98
I146
tp1047
tp1048
a(g2
(g6
S'\x06\x00\x00\x00'
p1049
tp1050
Rp1051
(I146
I165
tp1052
tp1053
aa(lp1054
(g2
(g6
S'\x05\x00\x00\x00'
p1055
tp1056
Rp1057
(I0
I17
tp1058
tp1059
a(g2
(g6
S'\x04\x00\x00\x00'
p1060
tp1061
Rp1062
(I17
I47
tp1063
tp1064
a(g2
(g6
S'\x00\x00\x00\x00'
p1065
tp1066
Rp1067
(I47
I97
tp1068
tp1069
a(g2
(g6
S'\x01\x00\x00\x00'
p1070
tp1071
Rp1072
(I97
I146
tp1073
tp1074
a(g2
(g6
S'\x06\x00\x00\x00'
p1075
tp1076
Rp1077
(I146
I165
tp1078
tp1079
aa(lp1080
(g2
(g6
S'\x05\x00\x00\x00'
p1081
tp1082
Rp1083
(I0
I17
tp1084
tp1085
a(g2
(g6
S'\x04\x00\x00\x00'
p1086
tp1087
Rp1088
(I17
I48
tp1089
tp1090
a(g2
(g6
S'\x00\x00\x00\x00'
p1091
tp1092
Rp1093
(I48
I94
tp1094
tp1095
a(g2
(g6
S'\x01\x00\x00\x00'
p1096
tp1097
Rp1098
(I94
I147
tp1099
tp1100
a(g2
(g6
S'\x06\x00\x00\x00'
p1101
tp1102
Rp1103
(I147
I165
tp1104
tp1105
aa(lp1106
(g2
(g6
S'\x05\x00\x00\x00'
p1107
tp1108
Rp1109
(I0
I17
tp1110
tp1111
a(g2
(g6
S'\x04\x00\x00\x00'
p1112
tp1113
Rp1114
(I17
I46
tp1115
tp1116
a(g2
(g6
S'\x00\x00\x00\x00'
p1117
tp1118
Rp1119
(I46
I99
tp1120
tp1121
a(g2
(g6
S'\x01\x00\x00\x00'
p1122
tp1123
Rp1124
(I99
I146
tp1125
tp1126
a(g2
(g6
S'\x06\x00\x00\x00'
p1127
tp1128
Rp1129
(I146
I165
tp1130
tp1131
aa(lp1132
(g2
(g6
S'\x05\x00\x00\x00'
p1133
tp1134
Rp1135
(I0
I17
tp1136
tp1137
a(g2
(g6
S'\x04\x00\x00\x00'
p1138
tp1139
Rp1140
(I17
I46
tp1141
tp1142
a(g2
(g6
S'\x00\x00\x00\x00'
p1143
tp1144
Rp1145
(I46
I98
tp1146
tp1147
a(g2
(g6
S'\x01\x00\x00\x00'
p1148
tp1149
Rp1150
(I98
I146
tp1151
tp1152
a(g2
(g6
S'\x06\x00\x00\x00'
p1153
tp1154
Rp1155
(I146
I165
tp1156
tp1157
aa(lp1158
(g2
(g6
S'\x05\x00\x00\x00'
p1159
tp1160
Rp1161
(I0
I17
tp1162
tp1163
a(g2
(g6
S'\x04\x00\x00\x00'
p1164
tp1165
Rp1166
(I17
I46
tp1167
tp1168
a(g2
(g6
S'\x00\x00\x00\x00'
p1169
tp1170
Rp1171
(I46
I100
tp1172
tp1173
a(g2
(g6
S'\x01\x00\x00\x00'
p1174
tp1175
Rp1176
(I100
I146
tp1177
tp1178
a(g2
(g6
S'\x06\x00\x00\x00'
p1179
tp1180
Rp1181
(I146
I165
tp1182
tp1183
aa(lp1184
(g2
(g6
S'\x05\x00\x00\x00'
p1185
tp1186
Rp1187
(I0
I17
tp1188
tp1189
a(g2
(g6
S'\x04\x00\x00\x00'
p1190
tp1191
Rp1192
(I17
I46
tp1193
tp1194
a(g2
(g6
S'\x00\x00\x00\x00'
p1195
tp1196
Rp1197
(I46
I99
tp1198
tp1199
a(g2
(g6
S'\x01\x00\x00\x00'
p1200
tp1201
Rp1202
(I99
I146
tp1203
tp1204
a(g2
(g6
S'\x06\x00\x00\x00'
p1205
tp1206
Rp1207
(I146
I165
tp1208
tp1209
aa(lp1210
(g2
(g6
S'\x05\x00\x00\x00'
p1211
tp1212
Rp1213
(I0
I17
tp1214
tp1215
a(g2
(g6
S'\x04\x00\x00\x00'
p1216
tp1217
Rp1218
(I17
I46
tp1219
tp1220
a(g2
(g6
S'\x00\x00\x00\x00'
p1221
tp1222
Rp1223
(I46
I91
tp1224
tp1225
a(g2
(g6
S'\x01\x00\x00\x00'
p1226
tp1227
Rp1228
(I91
I146
tp1229
tp1230
a(g2
(g6
S'\x06\x00\x00\x00'
p1231
tp1232
Rp1233
(I146
I165
tp1234
tp1235
aa(lp1236
(g2
(g6
S'\x05\x00\x00\x00'
p1237
tp1238
Rp1239
(I0
I17
tp1240
tp1241
a(g2
(g6
S'\x04\x00\x00\x00'
p1242
tp1243
Rp1244
(I17
I46
tp1245
tp1246
a(g2
(g6
S'\x00\x00\x00\x00'
p1247
tp1248
Rp1249
(I46
I95
tp1250
tp1251
a(g2
(g6
S'\x01\x00\x00\x00'
p1252
tp1253
Rp1254
(I95
I146
tp1255
tp1256
a(g2
(g6
S'\x06\x00\x00\x00'
p1257
tp1258
Rp1259
(I146
I165
tp1260
tp1261
aa(lp1262
(g2
(g6
S'\x05\x00\x00\x00'
p1263
tp1264
Rp1265
(I0
I17
tp1266
tp1267
a(g2
(g6
S'\x04\x00\x00\x00'
p1268
tp1269
Rp1270
(I17
I47
tp1271
tp1272
a(g2
(g6
S'\x00\x00\x00\x00'
p1273
tp1274
Rp1275
(I47
I95
tp1276
tp1277
a(g2
(g6
S'\x01\x00\x00\x00'
p1278
tp1279
Rp1280
(I95
I146
tp1281
tp1282
a(g2
(g6
S'\x06\x00\x00\x00'
p1283
tp1284
Rp1285
(I146
I165
tp1286
tp1287
aa(lp1288
(g2
(g6
S'\x05\x00\x00\x00'
p1289
tp1290
Rp1291
(I0
I17
tp1292
tp1293
a(g2
(g6
S'\x04\x00\x00\x00'
p1294
tp1295
Rp1296
(I17
I46
tp1297
tp1298
a(g2
(g6
S'\x00\x00\x00\x00'
p1299
tp1300
Rp1301
(I46
I95
tp1302
tp1303
a(g2
(g6
S'\x01\x00\x00\x00'
p1304
tp1305
Rp1306
(I95
I146
tp1307
tp1308
a(g2
(g6
S'\x06\x00\x00\x00'
p1309
tp1310
Rp1311
(I146
I165
tp1312
tp1313
aa(lp1314
(g2
(g6
S'\x05\x00\x00\x00'
p1315
tp1316
Rp1317
(I0
I17
tp1318
tp1319
a(g2
(g6
S'\x04\x00\x00\x00'
p1320
tp1321
Rp1322
(I17
I47
tp1323
tp1324
a(g2
(g6
S'\x00\x00\x00\x00'
p1325
tp1326
Rp1327
(I47
I97
tp1328
tp1329
a(g2
(g6
S'\x01\x00\x00\x00'
p1330
tp1331
Rp1332
(I97
I146
tp1333
tp1334
a(g2
(g6
S'\x06\x00\x00\x00'
p1335
tp1336
Rp1337
(I146
I165
tp1338
tp1339
aa(lp1340
(g2
(g6
S'\x05\x00\x00\x00'
p1341
tp1342
Rp1343
(I0
I17
tp1344
tp1345
a(g2
(g6
S'\x04\x00\x00\x00'
p1346
tp1347
Rp1348
(I17
I46
tp1349
tp1350
a(g2
(g6
S'\x00\x00\x00\x00'
p1351
tp1352
Rp1353
(I46
I96
tp1354
tp1355
a(g2
(g6
S'\x01\x00\x00\x00'
p1356
tp1357
Rp1358
(I96
I146
tp1359
tp1360
a(g2
(g6
S'\x06\x00\x00\x00'
p1361
tp1362
Rp1363
(I146
I165
tp1364
tp1365
aa(lp1366
(g2
(g6
S'\x05\x00\x00\x00'
p1367
tp1368
Rp1369
(I0
I17
tp1370
tp1371
a(g2
(g6
S'\x04\x00\x00\x00'
p1372
tp1373
Rp1374
(I17
I47
tp1375
tp1376
a(g2
(g6
S'\x00\x00\x00\x00'
p1377
tp1378
Rp1379
(I47
I97
tp1380
tp1381
a(g2
(g6
S'\x01\x00\x00\x00'
p1382
tp1383
Rp1384
(I97
I146
tp1385
tp1386
a(g2
(g6
S'\x06\x00\x00\x00'
p1387
tp1388
Rp1389
(I146
I165
tp1390
tp1391
aa(lp1392
(g2
(g6
S'\x05\x00\x00\x00'
p1393
tp1394
Rp1395
(I0
I17
tp1396
tp1397
a(g2
(g6
S'\x04\x00\x00\x00'
p1398
tp1399
Rp1400
(I17
I46
tp1401
tp1402
a(g2
(g6
S'\x00\x00\x00\x00'
p1403
tp1404
Rp1405
(I46
I95
tp1406
tp1407
a(g2
(g6
S'\x01\x00\x00\x00'
p1408
tp1409
Rp1410
(I95
I146
tp1411
tp1412
a(g2
(g6
S'\x06\x00\x00\x00'
p1413
tp1414
Rp1415
(I146
I165
tp1416
tp1417
aa(lp1418
(g2
(g6
S'\x05\x00\x00\x00'
p1419
tp1420
Rp1421
(I0
I17
tp1422
tp1423
a(g2
(g6
S'\x04\x00\x00\x00'
p1424
tp1425
Rp1426
(I17
I47
tp1427
tp1428
a(g2
(g6
S'\x00\x00\x00\x00'
p1429
tp1430
Rp1431
(I47
I94
tp1432
tp1433
a(g2
(g6
S'\x01\x00\x00\x00'
p1434
tp1435
Rp1436
(I94
I146
tp1437
tp1438
a(g2
(g6
S'\x06\x00\x00\x00'
p1439
tp1440
Rp1441
(I146
I165
tp1442
tp1443
aa(lp1444
(g2
(g6
S'\x05\x00\x00\x00'
p1445
tp1446
Rp1447
(I0
I17
tp1448
tp1449
a(g2
(g6
S'\x04\x00\x00\x00'
p1450
tp1451
Rp1452
(I17
I47
tp1453
tp1454
a(g2
(g6
S'\x00\x00\x00\x00'
p1455
tp1456
Rp1457
(I47
I96
tp1458
tp1459
a(g2
(g6
S'\x01\x00\x00\x00'
p1460
tp1461
Rp1462
(I96
I147
tp1463
tp1464
a(g2
(g6
S'\x06\x00\x00\x00'
p1465
tp1466
Rp1467
(I147
I165
tp1468
tp1469
aa(lp1470
(g2
(g6
S'\x05\x00\x00\x00'
p1471
tp1472
Rp1473
(I0
I17
tp1474
tp1475
a(g2
(g6
S'\x04\x00\x00\x00'
p1476
tp1477
Rp1478
(I17
I47
tp1479
tp1480
a(g2
(g6
S'\x00\x00\x00\x00'
p1481
tp1482
Rp1483
(I47
I93
tp1484
tp1485
a(g2
(g6
S'\x01\x00\x00\x00'
p1486
tp1487
Rp1488
(I93
I146
tp1489
tp1490
a(g2
(g6
S'\x06\x00\x00\x00'
p1491
tp1492
Rp1493
(I146
I165
tp1494
tp1495
aa(lp1496
(g2
(g6
S'\x05\x00\x00\x00'
p1497
tp1498
Rp1499
(I0
I17
tp1500
tp1501
a(g2
(g6
S'\x04\x00\x00\x00'
p1502
tp1503
Rp1504
(I17
I46
tp1505
tp1506
a(g2
(g6
S'\x00\x00\x00\x00'
p1507
tp1508
Rp1509
(I46
I96
tp1510
tp1511
a(g2
(g6
S'\x01\x00\x00\x00'
p1512
tp1513
Rp1514
(I96
I147
tp1515
tp1516
a(g2
(g6
S'\x06\x00\x00\x00'
p1517
tp1518
Rp1519
(I147
I165
tp1520
tp1521
aa(lp1522
(g2
(g6
S'\x05\x00\x00\x00'
p1523
tp1524
Rp1525
(I0
I17
tp1526
tp1527
a(g2
(g6
S'\x04\x00\x00\x00'
p1528
tp1529
Rp1530
(I17
I47
tp1531
tp1532
a(g2
(g6
S'\x00\x00\x00\x00'
p1533
tp1534
Rp1535
(I47
I93
tp1536
tp1537
a(g2
(g6
S'\x01\x00\x00\x00'
p1538
tp1539
Rp1540
(I93
I146
tp1541
tp1542
a(g2
(g6
S'\x06\x00\x00\x00'
p1543
tp1544
Rp1545
(I146
I165
tp1546
tp1547
aa(lp1548
(g2
(g6
S'\x05\x00\x00\x00'
p1549
tp1550
Rp1551
(I0
I17
tp1552
tp1553
a(g2
(g6
S'\x04\x00\x00\x00'
p1554
tp1555
Rp1556
(I17
I47
tp1557
tp1558
a(g2
(g6
S'\x00\x00\x00\x00'
p1559
tp1560
Rp1561
(I47
I97
tp1562
tp1563
a(g2
(g6
S'\x01\x00\x00\x00'
p1564
tp1565
Rp1566
(I97
I146
tp1567
tp1568
a(g2
(g6
S'\x06\x00\x00\x00'
p1569
tp1570
Rp1571
(I146
I165
tp1572
tp1573
aa(lp1574
(g2
(g6
S'\x05\x00\x00\x00'
p1575
tp1576
Rp1577
(I0
I17
tp1578
tp1579
a(g2
(g6
S'\x04\x00\x00\x00'
p1580
tp1581
Rp1582
(I17
I47
tp1583
tp1584
a(g2
(g6
S'\x00\x00\x00\x00'
p1585
tp1586
Rp1587
(I47
I97
tp1588
tp1589
a(g2
(g6
S'\x01\x00\x00\x00'
p1590
tp1591
Rp1592
(I97
I147
tp1593
tp1594
a(g2
(g6
S'\x06\x00\x00\x00'
p1595
tp1596
Rp1597
(I147
I165
tp1598
tp1599
aa(lp1600
(g2
(g6
S'\x05\x00\x00\x00'
p1601
tp1602
Rp1603
(I0
I17
tp1604
tp1605
a(g2
(g6
S'\x04\x00\x00\x00'
p1606
tp1607
Rp1608
(I17
I47
tp1609
tp1610
a(g2
(g6
S'\x00\x00\x00\x00'
p1611
tp1612
Rp1613
(I47
I95
tp1614
tp1615
a(g2
(g6
S'\x01\x00\x00\x00'
p1616
tp1617
Rp1618
(I95
I146
tp1619
tp1620
a(g2
(g6
S'\x06\x00\x00\x00'
p1621
tp1622
Rp1623
(I146
I165
tp1624
tp1625
aa(lp1626
(g2
(g6
S'\x05\x00\x00\x00'
p1627
tp1628
Rp1629
(I0
I17
tp1630
tp1631
a(g2
(g6
S'\x04\x00\x00\x00'
p1632
tp1633
Rp1634
(I17
I48
tp1635
tp1636
a(g2
(g6
S'\x00\x00\x00\x00'
p1637
tp1638
Rp1639
(I48
I99
tp1640
tp1641
a(g2
(g6
S'\x01\x00\x00\x00'
p1642
tp1643
Rp1644
(I99
I146
tp1645
tp1646
a(g2
(g6
S'\x06\x00\x00\x00'
p1647
tp1648
Rp1649
(I146
I165
tp1650
tp1651
aa(lp1652
(g2
(g6
S'\x05\x00\x00\x00'
p1653
tp1654
Rp1655
(I0
I17
tp1656
tp1657
a(g2
(g6
S'\x04\x00\x00\x00'
p1658
tp1659
Rp1660
(I17
I47
tp1661
tp1662
a(g2
(g6
S'\x00\x00\x00\x00'
p1663
tp1664
Rp1665
(I47
I98
tp1666
tp1667
a(g2
(g6
S'\x01\x00\x00\x00'
p1668
tp1669
Rp1670
(I98
I146
tp1671
tp1672
a(g2
(g6
S'\x06\x00\x00\x00'
p1673
tp1674
Rp1675
(I146
I165
tp1676
tp1677
aa(lp1678
(g2
(g6
S'\x05\x00\x00\x00'
p1679
tp1680
Rp1681
(I0
I17
tp1682
tp1683
a(g2
(g6
S'\x04\x00\x00\x00'
p1684
tp1685
Rp1686
(I17
I47
tp1687
tp1688
a(g2
(g6
S'\x00\x00\x00\x00'
p1689
tp1690
Rp1691
(I47
I98
tp1692
tp1693
a(g2
(g6
S'\x01\x00\x00\x00'
p1694
tp1695
Rp1696
(I98
I146
tp1697
tp1698
a(g2
(g6
S'\x06\x00\x00\x00'
p1699
tp1700
Rp1701
(I146
I165
tp1702
tp1703
aa(lp1704
(g2
(g6
S'\x05\x00\x00\x00'
p1705
tp1706
Rp1707
(I0
I17
tp1708
tp1709
a(g2
(g6
S'\x04\x00\x00\x00'
p1710
tp1711
Rp1712
(I17
I46
tp1713
tp1714
a(g2
(g6
S'\x00\x00\x00\x00'
p1715
tp1716
Rp1717
(I46
I100
tp1718
tp1719
a(g2
(g6
S'\x01\x00\x00\x00'
p1720
tp1721
Rp1722
(I100
I147
tp1723
tp1724
a(g2
(g6
S'\x06\x00\x00\x00'
p1725
tp1726
Rp1727
(I147
I165
tp1728
tp1729
aa(lp1730
(g2
(g6
S'\x05\x00\x00\x00'
p1731
tp1732
Rp1733
(I0
I17
tp1734
tp1735
a(g2
(g6
S'\x04\x00\x00\x00'
p1736
tp1737
Rp1738
(I17
I47
tp1739
tp1740
a(g2
(g6
S'\x00\x00\x00\x00'
p1741
tp1742
Rp1743
(I47
I93
tp1744
tp1745
a(g2
(g6
S'\x01\x00\x00\x00'
p1746
tp1747
Rp1748
(I93
I146
tp1749
tp1750
a(g2
(g6
S'\x06\x00\x00\x00'
p1751
tp1752
Rp1753
(I146
I165
tp1754
tp1755
aa(lp1756
(g2
(g6
S'\x05\x00\x00\x00'
p1757
tp1758
Rp1759
(I0
I17
tp1760
tp1761
a(g2
(g6
S'\x04\x00\x00\x00'
p1762
tp1763
Rp1764
(I17
I46
tp1765
tp1766
a(g2
(g6
S'\x00\x00\x00\x00'
p1767
tp1768
Rp1769
(I46
I97
tp1770
tp1771
a(g2
(g6
S'\x01\x00\x00\x00'
p1772
tp1773
Rp1774
(I97
I146
tp1775
tp1776
a(g2
(g6
S'\x06\x00\x00\x00'
p1777
tp1778
Rp1779
(I146
I165
tp1780
tp1781
aa(lp1782
(g2
(g6
S'\x05\x00\x00\x00'
p1783
tp1784
Rp1785
(I0
I17
tp1786
tp1787
a(g2
(g6
S'\x04\x00\x00\x00'
p1788
tp1789
Rp1790
(I17
I46
tp1791
tp1792
a(g2
(g6
S'\x00\x00\x00\x00'
p1793
tp1794
Rp1795
(I46
I99
tp1796
tp1797
a(g2
(g6
S'\x01\x00\x00\x00'
p1798
tp1799
Rp1800
(I99
I146
tp1801
tp1802
a(g2
(g6
S'\x06\x00\x00\x00'
p1803
tp1804
Rp1805
(I146
I165
tp1806
tp1807
aa(lp1808
(g2
(g6
S'\x05\x00\x00\x00'
p1809
tp1810
Rp1811
(I0
I17
tp1812
tp1813
a(g2
(g6
S'\x04\x00\x00\x00'
p1814
tp1815
Rp1816
(I17
I46
tp1817
tp1818
a(g2
(g6
S'\x00\x00\x00\x00'
p1819
tp1820
Rp1821
(I46
I94
tp1822
tp1823
a(g2
(g6
S'\x01\x00\x00\x00'
p1824
tp1825
Rp1826
(I94
I146
tp1827
tp1828
a(g2
(g6
S'\x06\x00\x00\x00'
p1829
tp1830
Rp1831
(I146
I165
tp1832
tp1833
aa(lp1834
(g2
(g6
S'\x05\x00\x00\x00'
p1835
tp1836
Rp1837
(I0
I17
tp1838
tp1839
a(g2
(g6
S'\x04\x00\x00\x00'
p1840
tp1841
Rp1842
(I17
I46
tp1843
tp1844
a(g2
(g6
S'\x00\x00\x00\x00'
p1845
tp1846
Rp1847
(I46
I99
tp1848
tp1849
a(g2
(g6
S'\x01\x00\x00\x00'
p1850
tp1851
Rp1852
(I99
I146
tp1853
tp1854
a(g2
(g6
S'\x06\x00\x00\x00'
p1855
tp1856
Rp1857
(I146
I165
tp1858
tp1859
aa(lp1860
(g2
(g6
S'\x05\x00\x00\x00'
p1861
tp1862
Rp1863
(I0
I17
tp1864
tp1865
a(g2
(g6
S'\x04\x00\x00\x00'
p1866
tp1867
Rp1868
(I17
I46
tp1869
tp1870
a(g2
(g6
S'\x00\x00\x00\x00'
p1871
tp1872
Rp1873
(I46
I95
tp1874
tp1875
a(g2
(g6
S'\x01\x00\x00\x00'
p1876
tp1877
Rp1878
(I95
I146
tp1879
tp1880
a(g2
(g6
S'\x06\x00\x00\x00'
p1881
tp1882
Rp1883
(I146
I165
tp1884
tp1885
aa(lp1886
(g2
(g6
S'\x05\x00\x00\x00'
p1887
tp1888
Rp1889
(I0
I17
tp1890
tp1891
a(g2
(g6
S'\x04\x00\x00\x00'
p1892
tp1893
Rp1894
(I17
I46
tp1895
tp1896
a(g2
(g6
S'\x00\x00\x00\x00'
p1897
tp1898
Rp1899
(I46
I96
tp1900
tp1901
a(g2
(g6
S'\x01\x00\x00\x00'
p1902
tp1903
Rp1904
(I96
I146
tp1905
tp1906
a(g2
(g6
S'\x06\x00\x00\x00'
p1907
tp1908
Rp1909
(I146
I165
tp1910
tp1911
aa(lp1912
(g2
(g6
S'\x05\x00\x00\x00'
p1913
tp1914
Rp1915
(I0
I17
tp1916
tp1917
a(g2
(g6
S'\x04\x00\x00\x00'
p1918
tp1919
Rp1920
(I17
I46
tp1921
tp1922
a(g2
(g6
S'\x00\x00\x00\x00'
p1923
tp1924
Rp1925
(I46
I95
tp1926
tp1927
a(g2
(g6
S'\x01\x00\x00\x00'
p1928
tp1929
Rp1930
(I95
I146
tp1931
tp1932
a(g2
(g6
S'\x06\x00\x00\x00'
p1933
tp1934
Rp1935
(I146
I165
tp1936
tp1937
aa(lp1938
(g2
(g6
S'\x05\x00\x00\x00'
p1939
tp1940
Rp1941
(I0
I17
tp1942
tp1943
a(g2
(g6
S'\x04\x00\x00\x00'
p1944
tp1945
Rp1946
(I17
I47
tp1947
tp1948
a(g2
(g6
S'\x00\x00\x00\x00'
p1949
tp1950
Rp1951
(I47
I95
tp1952
tp1953
a(g2
(g6
S'\x01\x00\x00\x00'
p1954
tp1955
Rp1956
(I95
I146
tp1957
tp1958
a(g2
(g6
S'\x06\x00\x00\x00'
p1959
tp1960
Rp1961
(I146
I165
tp1962
tp1963
aa(lp1964
(g2
(g6
S'\x05\x00\x00\x00'
p1965
tp1966
Rp1967
(I0
I17
tp1968
tp1969
a(g2
(g6
S'\x04\x00\x00\x00'
p1970
tp1971
Rp1972
(I17
I46
tp1973
tp1974
a(g2
(g6
S'\x00\x00\x00\x00'
p1975
tp1976
Rp1977
(I46
I95
tp1978
tp1979
a(g2
(g6
S'\x01\x00\x00\x00'
p1980
tp1981
Rp1982
(I95
I146
tp1983
tp1984
a(g2
(g6
S'\x06\x00\x00\x00'
p1985
tp1986
Rp1987
(I146
I165
tp1988
tp1989
aa(lp1990
(g2
(g6
S'\x05\x00\x00\x00'
p1991
tp1992
Rp1993
(I0
I16
tp1994
tp1995
a(g2
(g6
S'\x04\x00\x00\x00'
p1996
tp1997
Rp1998
(I16
I46
tp1999
tp2000
a(g2
(g6
S'\x00\x00\x00\x00'
p2001
tp2002
Rp2003
(I46
I95
tp2004
tp2005
a(g2
(g6
S'\x01\x00\x00\x00'
p2006
tp2007
Rp2008
(I95
I146
tp2009
tp2010
a(g2
(g6
S'\x06\x00\x00\x00'
p2011
tp2012
Rp2013
(I146
I165
tp2014
tp2015
aa(lp2016
(g2
(g6
S'\x05\x00\x00\x00'
p2017
tp2018
Rp2019
(I0
I17
tp2020
tp2021
a(g2
(g6
S'\x04\x00\x00\x00'
p2022
tp2023
Rp2024
(I17
I47
tp2025
tp2026
a(g2
(g6
S'\x00\x00\x00\x00'
p2027
tp2028
Rp2029
(I47
I98
tp2030
tp2031
a(g2
(g6
S'\x01\x00\x00\x00'
p2032
tp2033
Rp2034
(I98
I146
tp2035
tp2036
a(g2
(g6
S'\x06\x00\x00\x00'
p2037
tp2038
Rp2039
(I146
I165
tp2040
tp2041
aa(lp2042
(g2
(g6
S'\x05\x00\x00\x00'
p2043
tp2044
Rp2045
(I0
I17
tp2046
tp2047
a(g2
(g6
S'\x04\x00\x00\x00'
p2048
tp2049
Rp2050
(I17
I47
tp2051
tp2052
a(g2
(g6
S'\x00\x00\x00\x00'
p2053
tp2054
Rp2055
(I47
I95
tp2056
tp2057
a(g2
(g6
S'\x01\x00\x00\x00'
p2058
tp2059
Rp2060
(I95
I146
tp2061
tp2062
a(g2
(g6
S'\x06\x00\x00\x00'
p2063
tp2064
Rp2065
(I146
I165
tp2066
tp2067
aa(lp2068
(g2
(g6
S'\x05\x00\x00\x00'
p2069
tp2070
Rp2071
(I0
I17
tp2072
tp2073
a(g2
(g6
S'\x06\x00\x00\x00'
p2074
tp2075
Rp2076
(I17
I45
tp2077
tp2078
a(g2
(g6
S'\x00\x00\x00\x00'
p2079
tp2080
Rp2081
(I45
I100
tp2082
tp2083
a(g2
(g6
S'\x01\x00\x00\x00'
p2084
tp2085
Rp2086
(I100
I146
tp2087
tp2088
a(g2
(g6
S'\x06\x00\x00\x00'
p2089
tp2090
Rp2091
(I146
I165
tp2092
tp2093
aa(lp2094
(g2
(g6
S'\x05\x00\x00\x00'
p2095
tp2096
Rp2097
(I0
I17
tp2098
tp2099
a(g2
(g6
S'\x06\x00\x00\x00'
p2100
tp2101
Rp2102
(I17
I41
tp2103
tp2104
a(g2
(g6
S'\x05\x00\x00\x00'
p2105
tp2106
Rp2107
(I41
I47
tp2108
tp2109
a(g2
(g6
S'\x00\x00\x00\x00'
p2110
tp2111
Rp2112
(I47
I99
tp2113
tp2114
a(g2
(g6
S'\x01\x00\x00\x00'
p2115
tp2116
Rp2117
(I99
I146
tp2118
tp2119
a(g2
(g6
S'\x06\x00\x00\x00'
p2120
tp2121
Rp2122
(I146
I165
tp2123
tp2124
aa(lp2125
(g2
(g6
S'\x05\x00\x00\x00'
p2126
tp2127
Rp2128
(I0
I17
tp2129
tp2130
a(g2
(g6
S'\x06\x00\x00\x00'
p2131
tp2132
Rp2133
(I17
I41
tp2134
tp2135
a(g2
(g6
S'\x05\x00\x00\x00'
p2136
tp2137
Rp2138
(I41
I47
tp2139
tp2140
a(g2
(g6
S'\x00\x00\x00\x00'
p2141
tp2142
Rp2143
(I47
I94
tp2144
tp2145
a(g2
(g6
S'\x01\x00\x00\x00'
p2146
tp2147
Rp2148
(I94
I146
tp2149
tp2150
a(g2
(g6
S'\x06\x00\x00\x00'
p2151
tp2152
Rp2153
(I146
I165
tp2154
tp2155
aa(lp2156
(g2
(g6
S'\x05\x00\x00\x00'
p2157
tp2158
Rp2159
(I0
I17
tp2160
tp2161
a(g2
(g6
S'\x06\x00\x00\x00'
p2162
tp2163
Rp2164
(I17
I42
tp2165
tp2166
a(g2
(g6
S'\x05\x00\x00\x00'
p2167
tp2168
Rp2169
(I42
I46
tp2170
tp2171
a(g2
(g6
S'\x00\x00\x00\x00'
p2172
tp2173
Rp2174
(I46
I96
tp2175
tp2176
a(g2
(g6
S'\x01\x00\x00\x00'
p2177
tp2178
Rp2179
(I96
I146
tp2180
tp2181
a(g2
(g6
S'\x06\x00\x00\x00'
p2182
tp2183
Rp2184
(I146
I165
tp2185
tp2186
aa(lp2187
(g2
(g6
S'\x05\x00\x00\x00'
p2188
tp2189
Rp2190
(I0
I17
tp2191
tp2192
a(g2
(g6
S'\x06\x00\x00\x00'
p2193
tp2194
Rp2195
(I17
I42
tp2196
tp2197
a(g2
(g6
S'\x02\x00\x00\x00'
p2198
tp2199
Rp2200
(I42
I63
tp2201
tp2202
a(g2
(g6
S'\x06\x00\x00\x00'
p2203
tp2204
Rp2205
(I63
I84
tp2206
tp2207
a(g2
(g6
S'\x05\x00\x00\x00'
p2208
tp2209
Rp2210
(I84
I96
tp2211
tp2212
a(g2
(g6
S'\x01\x00\x00\x00'
p2213
tp2214
Rp2215
(I96
I146
tp2216
tp2217
a(g2
(g6
S'\x06\x00\x00\x00'
p2218
tp2219
Rp2220
(I146
I165
tp2221
tp2222
aa(lp2223
(g2
(g6
S'\x05\x00\x00\x00'
p2224
tp2225
Rp2226
(I0
I17
tp2227
tp2228
a(g2
(g6
S'\x06\x00\x00\x00'
p2229
tp2230
Rp2231
(I17
I42
tp2232
tp2233
a(g2
(g6
S'\x05\x00\x00\x00'
p2234
tp2235
Rp2236
(I42
I47
tp2237
tp2238
a(g2
(g6
S'\x00\x00\x00\x00'
p2239
tp2240
Rp2241
(I47
I87
tp2242
tp2243
a(g2
(g6
S'\x01\x00\x00\x00'
p2244
tp2245
Rp2246
(I87
I146
tp2247
tp2248
a(g2
(g6
S'\x06\x00\x00\x00'
p2249
tp2250
Rp2251
(I146
I165
tp2252
tp2253
aa(lp2254
(g2
(g6
S'\x05\x00\x00\x00'
p2255
tp2256
Rp2257
(I0
I18
tp2258
tp2259
a(g2
(g6
S'\x06\x00\x00\x00'
p2260
tp2261
Rp2262
(I18
I42
tp2263
tp2264
a(g2
(g6
S'\x05\x00\x00\x00'
p2265
tp2266
Rp2267
(I42
I46
tp2268
tp2269
a(g2
(g6
S'\x00\x00\x00\x00'
p2270
tp2271
Rp2272
(I46
I87
tp2273
tp2274
a(g2
(g6
S'\x01\x00\x00\x00'
p2275
tp2276
Rp2277
(I87
I146
tp2278
tp2279
a(g2
(g6
S'\x06\x00\x00\x00'
p2280
tp2281
Rp2282
(I146
I165
tp2283
tp2284
aa(lp2285
(g2
(g6
S'\x05\x00\x00\x00'
p2286
tp2287
Rp2288
(I0
I17
tp2289
tp2290
a(g2
(g6
S'\x06\x00\x00\x00'
p2291
tp2292
Rp2293
(I17
I45
tp2294
tp2295
a(g2
(g6
S'\x00\x00\x00\x00'
p2296
tp2297
Rp2298
(I45
I89
tp2299
tp2300
a(g2
(g6
S'\x01\x00\x00\x00'
p2301
tp2302
Rp2303
(I89
I146
tp2304
tp2305
a(g2
(g6
S'\x06\x00\x00\x00'
p2306
tp2307
Rp2308
(I146
I165
tp2309
tp2310
aa(lp2311
(g2
(g6
S'\x05\x00\x00\x00'
p2312
tp2313
Rp2314
(I0
I17
tp2315
tp2316
a(g2
(g6
S'\x06\x00\x00\x00'
p2317
tp2318
Rp2319
(I17
I44
tp2320
tp2321
a(g2
(g6
S'\x00\x00\x00\x00'
p2322
tp2323
Rp2324
(I44
I89
tp2325
tp2326
a(g2
(g6
S'\x01\x00\x00\x00'
p2327
tp2328
Rp2329
(I89
I146
tp2330
tp2331
a(g2
(g6
S'\x06\x00\x00\x00'
p2332
tp2333
Rp2334
(I146
I165
tp2335
tp2336
aa(lp2337
(g2
(g6
S'\x05\x00\x00\x00'
p2338
tp2339
Rp2340
(I0
I17
tp2341
tp2342
a(g2
(g6
S'\x06\x00\x00\x00'
p2343
tp2344
Rp2345
(I17
I44
tp2346
tp2347
a(g2
(g6
S'\x00\x00\x00\x00'
p2348
tp2349
Rp2350
(I44
I89
tp2351
tp2352
a(g2
(g6
S'\x01\x00\x00\x00'
p2353
tp2354
Rp2355
(I89
I146
tp2356
tp2357
a(g2
(g6
S'\x06\x00\x00\x00'
p2358
tp2359
Rp2360
(I146
I165
tp2361
tp2362
aa(lp2363
(g2
(g6
S'\x05\x00\x00\x00'
p2364
tp2365
Rp2366
(I0
I16
tp2367
tp2368
a(g2
(g6
S'\x06\x00\x00\x00'
p2369
tp2370
Rp2371
(I16
I44
tp2372
tp2373
a(g2
(g6
S'\x00\x00\x00\x00'
p2374
tp2375
Rp2376
(I44
I89
tp2377
tp2378
a(g2
(g6
S'\x01\x00\x00\x00'
p2379
tp2380
Rp2381
(I89
I146
tp2382
tp2383
a(g2
(g6
S'\x06\x00\x00\x00'
p2384
tp2385
Rp2386
(I146
I165
tp2387
tp2388
aa(lp2389
(g2
(g6
S'\x01\x00\x00\x00'
p2390
tp2391
Rp2392
(I0
I56
tp2393
tp2394
a(g2
(g6
S'\x00\x00\x00\x00'
p2395
tp2396
Rp2397
(I56
I89
tp2398
tp2399
a(g2
(g6
S'\x01\x00\x00\x00'
p2400
tp2401
Rp2402
(I89
I146
tp2403
tp2404
a(g2
(g6
S'\x06\x00\x00\x00'
p2405
tp2406
Rp2407
(I146
I165
tp2408
tp2409
aa(lp2410
(g2
(g6
S'\x01\x00\x00\x00'
p2411
tp2412
Rp2413
(I0
I54
tp2414
tp2415
a(g2
(g6
S'\x00\x00\x00\x00'
p2416
tp2417
Rp2418
(I54
I90
tp2419
tp2420
a(g2
(g6
S'\x01\x00\x00\x00'
p2421
tp2422
Rp2423
(I90
I147
tp2424
tp2425
a(g2
(g6
S'\x06\x00\x00\x00'
p2426
tp2427
Rp2428
(I147
I165
tp2429
tp2430
aa(lp2431
(g2
(g6
S'\x01\x00\x00\x00'
p2432
tp2433
Rp2434
(I0
I56
tp2435
tp2436
a(g2
(g6
S'\x00\x00\x00\x00'
p2437
tp2438
Rp2439
(I56
I91
tp2440
tp2441
a(g2
(g6
S'\x01\x00\x00\x00'
p2442
tp2443
Rp2444
(I91
I147
tp2445
tp2446
a(g2
(g6
S'\x06\x00\x00\x00'
p2447
tp2448
Rp2449
(I147
I165
tp2450
tp2451
aa(lp2452
(g2
(g6
S'\x01\x00\x00\x00'
p2453
tp2454
Rp2455
(I0
I52
tp2456
tp2457
a(g2
(g6
S'\x00\x00\x00\x00'
p2458
tp2459
Rp2460
(I52
I89
tp2461
tp2462
a(g2
(g6
S'\x01\x00\x00\x00'
p2463
tp2464
Rp2465
(I89
I147
tp2466
tp2467
a(g2
(g6
S'\x06\x00\x00\x00'
p2468
tp2469
Rp2470
(I147
I165
tp2471
tp2472
aa(lp2473
(g2
(g6
S'\x01\x00\x00\x00'
p2474
tp2475
Rp2476
(I0
I54
tp2477
tp2478
a(g2
(g6
S'\x00\x00\x00\x00'
p2479
tp2480
Rp2481
(I54
I91
tp2482
tp2483
a(g2
(g6
S'\x01\x00\x00\x00'
p2484
tp2485
Rp2486
(I91
I147
tp2487
tp2488
a(g2
(g6
S'\x06\x00\x00\x00'
p2489
tp2490
Rp2491
(I147
I165
tp2492
tp2493
aa(lp2494
(g2
(g6
S'\x01\x00\x00\x00'
p2495
tp2496
Rp2497
(I0
I53
tp2498
tp2499
a(g2
(g6
S'\x00\x00\x00\x00'
p2500
tp2501
Rp2502
(I53
I90
tp2503
tp2504
a(g2
(g6
S'\x01\x00\x00\x00'
p2505
tp2506
Rp2507
(I90
I146
tp2508
tp2509
a(g2
(g6
S'\x06\x00\x00\x00'
p2510
tp2511
Rp2512
(I146
I165
tp2513
tp2514
aa(lp2515
(g2
(g6
S'\x01\x00\x00\x00'
p2516
tp2517
Rp2518
(I0
I54
tp2519
tp2520
a(g2
(g6
S'\x00\x00\x00\x00'
p2521
tp2522
Rp2523
(I54
I90
tp2524
tp2525
a(g2
(g6
S'\x01\x00\x00\x00'
p2526
tp2527
Rp2528
(I90
I146
tp2529
tp2530
a(g2
(g6
S'\x06\x00\x00\x00'
p2531
tp2532
Rp2533
(I146
I165
tp2534
tp2535
aa(lp2536
(g2
(g6
S'\x01\x00\x00\x00'
p2537
tp2538
Rp2539
(I0
I54
tp2540
tp2541
a(g2
(g6
S'\x00\x00\x00\x00'
p2542
tp2543
Rp2544
(I54
I91
tp2545
tp2546
a(g2
(g6
S'\x01\x00\x00\x00'
p2547
tp2548
Rp2549
(I91
I146
tp2550
tp2551
a(g2
(g6
S'\x06\x00\x00\x00'
p2552
tp2553
Rp2554
(I146
I165
tp2555
tp2556
aa(lp2557
(g2
(g6
S'\x01\x00\x00\x00'
p2558
tp2559
Rp2560
(I0
I54
tp2561
tp2562
a(g2
(g6
S'\x00\x00\x00\x00'
p2563
tp2564
Rp2565
(I54
I90
tp2566
tp2567
a(g2
(g6
S'\x01\x00\x00\x00'
p2568
tp2569
Rp2570
(I90
I146
tp2571
tp2572
a(g2
(g6
S'\x06\x00\x00\x00'
p2573
tp2574
Rp2575
(I146
I165
tp2576
tp2577
aa.