(lp0
(lp1
(cnumpy.core.multiarray
scalar
p2
(cnumpy
dtype
p3
(S'i4'
p4
I0
I1
tp5
Rp6
(I3
S'<'
p7
NNNI-1
I-1
I0
tp8
bS'\x01\x00\x00\x00'
p9
tp10
Rp11
(I0
I36
tp12
tp13
a(g2
(g6
S'\x01\x00\x00\x00'
p14
tp15
Rp16
(I36
I73
tp17
tp18
aa(lp19
(g2
(g6
S'\x01\x00\x00\x00'
p20
tp21
Rp22
(I0
I36
tp23
tp24
a(g2
(g6
S'\x04\x00\x00\x00'
p25
tp26
Rp27
(I36
I73
tp28
tp29
aa(lp30
(g2
(g6
S'\x02\x00\x00\x00'
p31
tp32
Rp33
(I0
I37
tp34
tp35
a(g2
(g6
S'\x04\x00\x00\x00'
p36
tp37
Rp38
(I37
I73
tp39
tp40
aa(lp41
(g2
(g6
S'\x02\x00\x00\x00'
p42
tp43
Rp44
(I0
I37
tp45
tp46
a(g2
(g6
S'\x04\x00\x00\x00'
p47
tp48
Rp49
(I37
I73
tp50
tp51
aa(lp52
(g2
(g6
S'\x02\x00\x00\x00'
p53
tp54
Rp55
(I0
I37
tp56
tp57
a(g2
(g6
S'\x04\x00\x00\x00'
p58
tp59
Rp60
(I37
I73
tp61
tp62
aa(lp63
(g2
(g6
S'\x02\x00\x00\x00'
p64
tp65
Rp66
(I0
I37
tp67
tp68
a(g2
(g6
S'\x04\x00\x00\x00'
p69
tp70
Rp71
(I37
I73
tp72
tp73
aa(lp74
(g2
(g6
S'\x02\x00\x00\x00'
p75
tp76
Rp77
(I0
I37
tp78
tp79
a(g2
(g6
S'\x04\x00\x00\x00'
p80
tp81
Rp82
(I37
I73
tp83
tp84
aa(lp85
(g2
(g6
S'\x02\x00\x00\x00'
p86
tp87
Rp88
(I0
I37
tp89
tp90
a(g2
(g6
S'\x04\x00\x00\x00'
p91
tp92
Rp93
(I37
I73
tp94
tp95
aa(lp96
(g2
(g6
S'\x02\x00\x00\x00'
p97
tp98
Rp99
(I0
I37
tp100
tp101
a(g2
(g6
S'\x04\x00\x00\x00'
p102
tp103
Rp104
(I37
I73
tp105
tp106
aa(lp107
(g2
(g6
S'\x02\x00\x00\x00'
p108
tp109
Rp110
(I0
I37
tp111
tp112
a(g2
(g6
S'\x04\x00\x00\x00'
p113
tp114
Rp115
(I37
I73
tp116
tp117
aa(lp118
(g2
(g6
S'\x02\x00\x00\x00'
p119
tp120
Rp121
(I0
I37
tp122
tp123
a(g2
(g6
S'\x04\x00\x00\x00'
p124
tp125
Rp126
(I37
I73
tp127
tp128
aa(lp129
(g2
(g6
S'\x02\x00\x00\x00'
p130
tp131
Rp132
(I0
I37
tp133
tp134
a(g2
(g6
S'\x04\x00\x00\x00'
p135
tp136
Rp137
(I37
I73
tp138
tp139
aa(lp140
(g2
(g6
S'\x02\x00\x00\x00'
p141
tp142
Rp143
(I0
I37
tp144
tp145
a(g2
(g6
S'\x04\x00\x00\x00'
p146
tp147
Rp148
(I37
I73
tp149
tp150
aa(lp151
(g2
(g6
S'\x02\x00\x00\x00'
p152
tp153
Rp154
(I0
I37
tp155
tp156
a(g2
(g6
S'\x04\x00\x00\x00'
p157
tp158
Rp159
(I37
I73
tp160
tp161
aa(lp162
(g2
(g6
S'\x05\x00\x00\x00'
p163
tp164
Rp165
(I0
I17
tp166
tp167
a(g2
(g6
S'\x00\x00\x00\x00'
p168
tp169
Rp170
(I17
I73
tp171
tp172
aa(lp173
(g2
(g6
S'\x02\x00\x00\x00'
p174
tp175
Rp176
(I0
I37
tp177
tp178
a(g2
(g6
S'\x04\x00\x00\x00'
p179
tp180
Rp181
(I37
I73
tp182
tp183
aa(lp184
(g2
(g6
S'\x02\x00\x00\x00'
p185
tp186
Rp187
(I0
I37
tp188
tp189
a(g2
(g6
S'\x04\x00\x00\x00'
p190
tp191
Rp192
(I37
I73
tp193
tp194
aa(lp195
(g2
(g6
S'\x02\x00\x00\x00'
p196
tp197
Rp198
(I0
I37
tp199
tp200
a(g2
(g6
S'\x04\x00\x00\x00'
p201
tp202
Rp203
(I37
I73
tp204
tp205
aa(lp206
(g2
(g6
S'\x02\x00\x00\x00'
p207
tp208
Rp209
(I0
I37
tp210
tp211
a(g2
(g6
S'\x04\x00\x00\x00'
p212
tp213
Rp214
(I37
I73
tp215
tp216
aa(lp217
(g2
(g6
S'\x02\x00\x00\x00'
p218
tp219
Rp220
(I0
I37
tp221
tp222
a(g2
(g6
S'\x04\x00\x00\x00'
p223
tp224
Rp225
(I37
I73
tp226
tp227
aa(lp228
(g2
(g6
S'\x02\x00\x00\x00'
p229
tp230
Rp231
(I0
I37
tp232
tp233
a(g2
(g6
S'\x04\x00\x00\x00'
p234
tp235
Rp236
(I37
I73
tp237
tp238
aa(lp239
(g2
(g6
S'\x02\x00\x00\x00'
p240
tp241
Rp242
(I0
I37
tp243
tp244
a(g2
(g6
S'\x04\x00\x00\x00'
p245
tp246
Rp247
(I37
I73
tp248
tp249
aa(lp250
(g2
(g6
S'\x02\x00\x00\x00'
p251
tp252
Rp253
(I0
I37
tp254
tp255
a(g2
(g6
S'\x04\x00\x00\x00'
p256
tp257
Rp258
(I37
I73
tp259
tp260
aa(lp261
(g2
(g6
S'\x02\x00\x00\x00'
p262
tp263
Rp264
(I0
I37
tp265
tp266
a(g2
(g6
S'\x04\x00\x00\x00'
p267
tp268
Rp269
(I37
I73
tp270
tp271
aa(lp272
(g2
(g6
S'\x02\x00\x00\x00'
p273
tp274
Rp275
(I0
I37
tp276
tp277
a(g2
(g6
S'\x04\x00\x00\x00'
p278
tp279
Rp280
(I37
I73
tp281
tp282
aa(lp283
(g2
(g6
S'\x02\x00\x00\x00'
p284
tp285
Rp286
(I0
I37
tp287
tp288
a(g2
(g6
S'\x04\x00\x00\x00'
p289
tp290
Rp291
(I37
I73
tp292
tp293
aa(lp294
(g2
(g6
S'\x02\x00\x00\x00'
p295
tp296
Rp297
(I0
I37
tp298
tp299
a(g2
(g6
S'\x04\x00\x00\x00'
p300
tp301
Rp302
(I37
I73
tp303
tp304
aa(lp305
(g2
(g6
S'\x02\x00\x00\x00'
p306
tp307
Rp308
(I0
I37
tp309
tp310
a(g2
(g6
S'\x04\x00\x00\x00'
p311
tp312
Rp313
(I37
I73
tp314
tp315
aa(lp316
(g2
(g6
S'\x02\x00\x00\x00'
p317
tp318
Rp319
(I0
I37
tp320
tp321
a(g2
(g6
S'\x04\x00\x00\x00'
p322
tp323
Rp324
(I37
I73
tp325
tp326
aa(lp327
(g2
(g6
S'\x02\x00\x00\x00'
p328
tp329
Rp330
(I0
I37
tp331
tp332
a(g2
(g6
S'\x04\x00\x00\x00'
p333
tp334
Rp335
(I37
I73
tp336
tp337
aa(lp338
(g2
(g6
S'\x02\x00\x00\x00'
p339
tp340
Rp341
(I0
I37
tp342
tp343
a(g2
(g6
S'\x04\x00\x00\x00'
p344
tp345
Rp346
(I37
I73
tp347
tp348
aa(lp349
(g2
(g6
S'\x02\x00\x00\x00'
p350
tp351
Rp352
(I0
I37
tp353
tp354
a(g2
(g6
S'\x04\x00\x00\x00'
p355
tp356
Rp357
(I37
I73
tp358
tp359
aa(lp360
(g2
(g6
S'\x02\x00\x00\x00'
p361
tp362
Rp363
(I0
I37
tp364
tp365
a(g2
(g6
S'\x04\x00\x00\x00'
p366
tp367
Rp368
(I37
I73
tp369
tp370
aa(lp371
(g2
(g6
S'\x02\x00\x00\x00'
p372
tp373
Rp374
(I0
I37
tp375
tp376
a(g2
(g6
S'\x04\x00\x00\x00'
p377
tp378
Rp379
(I37
I73
tp380
tp381
aa(lp382
(g2
(g6
S'\x02\x00\x00\x00'
p383
tp384
Rp385
(I0
I37
tp386
tp387
a(g2
(g6
S'\x04\x00\x00\x00'
p388
tp389
Rp390
(I37
I73
tp391
tp392
aa(lp393
(g2
(g6
S'\x02\x00\x00\x00'
p394
tp395
Rp396
(I0
I37
tp397
tp398
a(g2
(g6
S'\x04\x00\x00\x00'
p399
tp400
Rp401
(I37
I73
tp402
tp403
aa(lp404
(g2
(g6
S'\x02\x00\x00\x00'
p405
tp406
Rp407
(I0
I37
tp408
tp409
a(g2
(g6
S'\x04\x00\x00\x00'
p410
tp411
Rp412
(I37
I73
tp413
tp414
aa(lp415
(g2
(g6
S'\x02\x00\x00\x00'
p416
tp417
Rp418
(I0
I37
tp419
tp420
a(g2
(g6
S'\x04\x00\x00\x00'
p421
tp422
Rp423
(I37
I73
tp424
tp425
aa(lp426
(g2
(g6
S'\x02\x00\x00\x00'
p427
tp428
Rp429
(I0
I37
tp430
tp431
a(g2
(g6
S'\x04\x00\x00\x00'
p432
tp433
Rp434
(I37
I73
tp435
tp436
aa(lp437
(g2
(g6
S'\x02\x00\x00\x00'
p438
tp439
Rp440
(I0
I37
tp441
tp442
a(g2
(g6
S'\x04\x00\x00\x00'
p443
tp444
Rp445
(I37
I73
tp446
tp447
aa(lp448
(g2
(g6
S'\x02\x00\x00\x00'
p449
tp450
Rp451
(I0
I37
tp452
tp453
a(g2
(g6
S'\x04\x00\x00\x00'
p454
tp455
Rp456
(I37
I73
tp457
tp458
aa(lp459
(g2
(g6
S'\x02\x00\x00\x00'
p460
tp461
Rp462
(I0
I37
tp463
tp464
a(g2
(g6
S'\x04\x00\x00\x00'
p465
tp466
Rp467
(I37
I73
tp468
tp469
aa(lp470
(g2
(g6
S'\x02\x00\x00\x00'
p471
tp472
Rp473
(I0
I37
tp474
tp475
a(g2
(g6
S'\x04\x00\x00\x00'
p476
tp477
Rp478
(I37
I73
tp479
tp480
aa(lp481
(g2
(g6
S'\x02\x00\x00\x00'
p482
tp483
Rp484
(I0
I37
tp485
tp486
a(g2
(g6
S'\x04\x00\x00\x00'
p487
tp488
Rp489
(I37
I73
tp490
tp491
aa(lp492
(g2
(g6
S'\x02\x00\x00\x00'
p493
tp494
Rp495
(I0
I37
tp496
tp497
a(g2
(g6
S'\x04\x00\x00\x00'
p498
tp499
Rp500
(I37
I73
tp501
tp502
aa(lp503
(g2
(g6
S'\x02\x00\x00\x00'
p504
tp505
Rp506
(I0
I37
tp507
tp508
a(g2
(g6
S'\x04\x00\x00\x00'
p509
tp510
Rp511
(I37
I73
tp512
tp513
aa(lp514
(g2
(g6
S'\x02\x00\x00\x00'
p515
tp516
Rp517
(I0
I37
tp518
tp519
a(g2
(g6
S'\x04\x00\x00\x00'
p520
tp521
Rp522
(I37
I73
tp523
tp524
aa(lp525
(g2
(g6
S'\x05\x00\x00\x00'
p526
tp527
Rp528
(I0
I17
tp529
tp530
a(g2
(g6
S'\x00\x00\x00\x00'
p531
tp532
Rp533
(I17
I73
tp534
tp535
aa(lp536
(g2
(g6
S'\x02\x00\x00\x00'
p537
tp538
Rp539
(I0
I37
tp540
tp541
a(g2
(g6
S'\x04\x00\x00\x00'
p542
tp543
Rp544
(I37
I73
tp545
tp546
aa(lp547
(g2
(g6
S'\x02\x00\x00\x00'
p548
tp549
Rp550
(I0
I37
tp551
tp552
a(g2
(g6
S'\x04\x00\x00\x00'
p553
tp554
Rp555
(I37
I73
tp556
tp557
aa(lp558
(g2
(g6
S'\x02\x00\x00\x00'
p559
tp560
Rp561
(I0
I37
tp562
tp563
a(g2
(g6
S'\x04\x00\x00\x00'
p564
tp565
Rp566
(I37
I73
tp567
tp568
aa(lp569
(g2
(g6
S'\x02\x00\x00\x00'
p570
tp571
Rp572
(I0
I37
tp573
tp574
a(g2
(g6
S'\x04\x00\x00\x00'
p575
tp576
Rp577
(I37
I73
tp578
tp579
aa(lp580
(g2
(g6
S'\x02\x00\x00\x00'
p581
tp582
Rp583
(I0
I37
tp584
tp585
a(g2
(g6
S'\x04\x00\x00\x00'
p586
tp587
Rp588
(I37
I73
tp589
tp590
aa(lp591
(g2
(g6
S'\x02\x00\x00\x00'
p592
tp593
Rp594
(I0
I37
tp595
tp596
a(g2
(g6
S'\x04\x00\x00\x00'
p597
tp598
Rp599
(I37
I73
tp600
tp601
aa(lp602
(g2
(g6
S'\x02\x00\x00\x00'
p603
tp604
Rp605
(I0
I37
tp606
tp607
a(g2
(g6
S'\x04\x00\x00\x00'
p608
tp609
Rp610
(I37
I73
tp611
tp612
aa(lp613
(g2
(g6
S'\x02\x00\x00\x00'
p614
tp615
Rp616
(I0
I37
tp617
tp618
a(g2
(g6
S'\x04\x00\x00\x00'
p619
tp620
Rp621
(I37
I73
tp622
tp623
aa(lp624
(g2
(g6
S'\x02\x00\x00\x00'
p625
tp626
Rp627
(I0
I37
tp628
tp629
a(g2
(g6
S'\x04\x00\x00\x00'
p630
tp631
Rp632
(I37
I73
tp633
tp634
aa(lp635
(g2
(g6
S'\x02\x00\x00\x00'
p636
tp637
Rp638
(I0
I37
tp639
tp640
a(g2
(g6
S'\x04\x00\x00\x00'
p641
tp642
Rp643
(I37
I73
tp644
tp645
aa(lp646
(g2
(g6
S'\x02\x00\x00\x00'
p647
tp648
Rp649
(I0
I37
tp650
tp651
a(g2
(g6
S'\x04\x00\x00\x00'
p652
tp653
Rp654
(I37
I73
tp655
tp656
aa(lp657
(g2
(g6
S'\x02\x00\x00\x00'
p658
tp659
Rp660
(I0
I37
tp661
tp662
a(g2
(g6
S'\x04\x00\x00\x00'
p663
tp664
Rp665
(I37
I73
tp666
tp667
aa(lp668
(g2
(g6
S'\x02\x00\x00\x00'
p669
tp670
Rp671
(I0
I37
tp672
tp673
a(g2
(g6
S'\x04\x00\x00\x00'
p674
tp675
Rp676
(I37
I73
tp677
tp678
aa(lp679
(g2
(g6
S'\x05\x00\x00\x00'
p680
tp681
Rp682
(I0
I17
tp683
tp684
a(g2
(g6
S'\x00\x00\x00\x00'
p685
tp686
Rp687
(I17
I73
tp688
tp689
aa(lp690
(g2
(g6
S'\x02\x00\x00\x00'
p691
tp692
Rp693
(I0
I37
tp694
tp695
a(g2
(g6
S'\x04\x00\x00\x00'
p696
tp697
Rp698
(I37
I73
tp699
tp700
aa(lp701
(g2
(g6
S'\x02\x00\x00\x00'
p702
tp703
Rp704
(I0
I37
tp705
tp706
a(g2
(g6
S'\x04\x00\x00\x00'
p707
tp708
Rp709
(I37
I73
tp710
tp711
aa(lp712
(g2
(g6
S'\x02\x00\x00\x00'
p713
tp714
Rp715
(I0
I37
tp716
tp717
a(g2
(g6
S'\x04\x00\x00\x00'
p718
tp719
Rp720
(I37
I73
tp721
tp722
aa(lp723
(g2
(g6
S'\x02\x00\x00\x00'
p724
tp725
Rp726
(I0
I37
tp727
tp728
a(g2
(g6
S'\x04\x00\x00\x00'
p729
tp730
Rp731
(I37
I73
tp732
tp733
aa(lp734
(g2
(g6
S'\x02\x00\x00\x00'
p735
tp736
Rp737
(I0
I37
tp738
tp739
a(g2
(g6
S'\x04\x00\x00\x00'
p740
tp741
Rp742
(I37
I73
tp743
tp744
aa(lp745
(g2
(g6
S'\x02\x00\x00\x00'
p746
tp747
Rp748
(I0
I37
tp749
tp750
a(g2
(g6
S'\x04\x00\x00\x00'
p751
tp752
Rp753
(I37
I73
tp754
tp755
aa(lp756
(g2
(g6
S'\x02\x00\x00\x00'
p757
tp758
Rp759
(I0
I37
tp760
tp761
a(g2
(g6
S'\x04\x00\x00\x00'
p762
tp763
Rp764
(I37
I73
tp765
tp766
aa(lp767
(g2
(g6
S'\x02\x00\x00\x00'
p768
tp769
Rp770
(I0
I37
tp771
tp772
a(g2
(g6
S'\x04\x00\x00\x00'
p773
tp774
Rp775
(I37
I73
tp776
tp777
aa(lp778
(g2
(g6
S'\x02\x00\x00\x00'
p779
tp780
Rp781
(I0
I37
tp782
tp783
a(g2
(g6
S'\x04\x00\x00\x00'
p784
tp785
Rp786
(I37
I73
tp787
tp788
aa(lp789
(g2
(g6
S'\x02\x00\x00\x00'
p790
tp791
Rp792
(I0
I37
tp793
tp794
a(g2
(g6
S'\x04\x00\x00\x00'
p795
tp796
Rp797
(I37
I73
tp798
tp799
aa(lp800
(g2
(g6
S'\x02\x00\x00\x00'
p801
tp802
Rp803
(I0
I37
tp804
tp805
a(g2
(g6
S'\x04\x00\x00\x00'
p806
tp807
Rp808
(I37
I73
tp809
tp810
aa(lp811
(g2
(g6
S'\x02\x00\x00\x00'
p812
tp813
Rp814
(I0
I37
tp815
tp816
a(g2
(g6
S'\x04\x00\x00\x00'
p817
tp818
Rp819
(I37
I73
tp820
tp821
aa(lp822
(g2
(g6
S'\x02\x00\x00\x00'
p823
tp824
Rp825
(I0
I37
tp826
tp827
a(g2
(g6
S'\x04\x00\x00\x00'
p828
tp829
Rp830
(I37
I73
tp831
tp832
aa(lp833
(g2
(g6
S'\x02\x00\x00\x00'
p834
tp835
Rp836
(I0
I37
tp837
tp838
a(g2
(g6
S'\x04\x00\x00\x00'
p839
tp840
Rp841
(I37
I73
tp842
tp843
aa(lp844
(g2
(g6
S'\x02\x00\x00\x00'
p845
tp846
Rp847
(I0
I37
tp848
tp849
a(g2
(g6
S'\x04\x00\x00\x00'
p850
tp851
Rp852
(I37
I73
tp853
tp854
aa(lp855
(g2
(g6
S'\x02\x00\x00\x00'
p856
tp857
Rp858
(I0
I37
tp859
tp860
a(g2
(g6
S'\x04\x00\x00\x00'
p861
tp862
Rp863
(I37
I73
tp864
tp865
aa(lp866
(g2
(g6
S'\x02\x00\x00\x00'
p867
tp868
Rp869
(I0
I37
tp870
tp871
a(g2
(g6
S'\x04\x00\x00\x00'
p872
tp873
Rp874
(I37
I73
tp875
tp876
aa(lp877
(g2
(g6
S'\x02\x00\x00\x00'
p878
tp879
Rp880
(I0
I37
tp881
tp882
a(g2
(g6
S'\x04\x00\x00\x00'
p883
tp884
Rp885
(I37
I73
tp886
tp887
aa(lp888
(g2
(g6
S'\x05\x00\x00\x00'
p889
tp890
Rp891
(I0
I16
tp892
tp893
a(g2
(g6
S'\x00\x00\x00\x00'
p894
tp895
Rp896
(I16
I73
tp897
tp898
aa(lp899
(g2
(g6
S'\x05\x00\x00\x00'
p900
tp901
Rp902
(I0
I15
tp903
tp904
a(g2
(g6
S'\x00\x00\x00\x00'
p905
tp906
Rp907
(I15
I73
tp908
tp909
aa(lp910
(g2
(g6
S'\x05\x00\x00\x00'
p911
tp912
Rp913
(I0
I17
tp914
tp915
a(g2
(g6
S'\x00\x00\x00\x00'
p916
tp917
Rp918
(I17
I73
tp919
tp920
aa(lp921
(g2
(g6
S'\x02\x00\x00\x00'
p922
tp923
Rp924
(I0
I37
tp925
tp926
a(g2
(g6
S'\x04\x00\x00\x00'
p927
tp928
Rp929
(I37
I73
tp930
tp931
aa(lp932
(g2
(g6
S'\x02\x00\x00\x00'
p933
tp934
Rp935
(I0
I37
tp936
tp937
a(g2
(g6
S'\x04\x00\x00\x00'
p938
tp939
Rp940
(I37
I73
tp941
tp942
aa(lp943
(g2
(g6
S'\x05\x00\x00\x00'
p944
tp945
Rp946
(I0
I18
tp947
tp948
a(g2
(g6
S'\x00\x00\x00\x00'
p949
tp950
Rp951
(I18
I73
tp952
tp953
aa(lp954
(g2
(g6
S'\x05\x00\x00\x00'
p955
tp956
Rp957
(I0
I16
tp958
tp959
a(g2
(g6
S'\x00\x00\x00\x00'
p960
tp961
Rp962
(I16
I73
tp963
tp964
aa(lp965
(g2
(g6
S'\x05\x00\x00\x00'
p966
tp967
Rp968
(I0
I18
tp969
tp970
a(g2
(g6
S'\x00\x00\x00\x00'
p971
tp972
Rp973
(I18
I73
tp974
tp975
aa(lp976
(g2
(g6
S'\x05\x00\x00\x00'
p977
tp978
Rp979
(I0
I18
tp980
tp981
a(g2
(g6
S'\x00\x00\x00\x00'
p982
tp983
Rp984
(I18
I73
tp985
tp986
aa(lp987
(g2
(g6
S'\x05\x00\x00\x00'
p988
tp989
Rp990
(I0
I18
tp991
tp992
a(g2
(g6
S'\x00\x00\x00\x00'
p993
tp994
Rp995
(I18
I73
tp996
tp997
aa(lp998
(g2
(g6
S'\x05\x00\x00\x00'
p999
tp1000
Rp1001
(I0
I17
tp1002
tp1003
a(g2
(g6
S'\x00\x00\x00\x00'
p1004
tp1005
Rp1006
(I17
I73
tp1007
tp1008
aa(lp1009
(g2
(g6
S'\x05\x00\x00\x00'
p1010
tp1011
Rp1012
(I0
I18
tp1013
tp1014
a(g2
(g6
S'\x00\x00\x00\x00'
p1015
tp1016
Rp1017
(I18
I73
tp1018
tp1019
aa(lp1020
(g2
(g6
S'\x05\x00\x00\x00'
p1021
tp1022
Rp1023
(I0
I18
tp1024
tp1025
a(g2
(g6
S'\x00\x00\x00\x00'
p1026
tp1027
Rp1028
(I18
I73
tp1029
tp1030
aa(lp1031
(g2
(g6
S'\x05\x00\x00\x00'
p1032
tp1033
Rp1034
(I0
I19
tp1035
tp1036
a(g2
(g6
S'\x00\x00\x00\x00'
p1037
tp1038
Rp1039
(I19
I73
tp1040
tp1041
aa(lp1042
(g2
(g6
S'\x05\x00\x00\x00'
p1043
tp1044
Rp1045
(I0
I18
tp1046
tp1047
a(g2
(g6
S'\x00\x00\x00\x00'
p1048
tp1049
Rp1050
(I18
I73
tp1051
tp1052
aa(lp1053
(g2
(g6
S'\x05\x00\x00\x00'
p1054
tp1055
Rp1056
(I0
I19
tp1057
tp1058
a(g2
(g6
S'\x00\x00\x00\x00'
p1059
tp1060
Rp1061
(I19
I73
tp1062
tp1063
aa(lp1064
(g2
(g6
S'\x05\x00\x00\x00'
p1065
tp1066
Rp1067
(I0
I17
tp1068
tp1069
a(g2
(g6
S'\x00\x00\x00\x00'
p1070
tp1071
Rp1072
(I17
I73
tp1073
tp1074
aa(lp1075
(g2
(g6
S'\x05\x00\x00\x00'
p1076
tp1077
Rp1078
(I0
I18
tp1079
tp1080
a(g2
(g6
S'\x00\x00\x00\x00'
p1081
tp1082
Rp1083
(I18
I73
tp1084
tp1085
aa(lp1086
(g2
(g6
S'\x05\x00\x00\x00'
p1087
tp1088
Rp1089
(I0
I18
tp1090
tp1091
a(g2
(g6
S'\x00\x00\x00\x00'
p1092
tp1093
Rp1094
(I18
I73
tp1095
tp1096
aa(lp1097
(g2
(g6
S'\x05\x00\x00\x00'
p1098
tp1099
Rp1100
(I0
I17
tp1101
tp1102
a(g2
(g6
S'\x00\x00\x00\x00'
p1103
tp1104
Rp1105
(I17
I73
tp1106
tp1107
aa.