(lp0
(lp1
(cnumpy.core.multiarray
scalar
p2
(cnumpy
dtype
p3
(S'i4'
p4
I0
I1
tp5
Rp6
(I3
S'<'
p7
NNNI-1
I-1
I0
tp8
bS'\x01\x00\x00\x00'
p9
tp10
Rp11
(I0
I53
tp12
tp13
a(g2
(g6
S'\x01\x00\x00\x00'
p14
tp15
Rp16
(I53
I95
tp17
tp18
a(g2
(g6
S'\x01\x00\x00\x00'
p19
tp20
Rp21
(I95
I155
tp22
tp23
aa(lp24
(g2
(g6
S'\x01\x00\x00\x00'
p25
tp26
Rp27
(I0
I56
tp28
tp29
a(g2
(g6
S'\x04\x00\x00\x00'
p30
tp31
Rp32
(I56
I90
tp33
tp34
a(g2
(g6
S'\x01\x00\x00\x00'
p35
tp36
Rp37
(I90
I135
tp38
tp39
a(g2
(g6
S'\x04\x00\x00\x00'
p40
tp41
Rp42
(I135
I155
tp43
tp44
aa(lp45
(g2
(g6
S'\x01\x00\x00\x00'
p46
tp47
Rp48
(I0
I55
tp49
tp50
a(g2
(g6
S'\x04\x00\x00\x00'
p51
tp52
Rp53
(I55
I103
tp54
tp55
a(g2
(g6
S'\x04\x00\x00\x00'
p56
tp57
Rp58
(I103
I140
tp59
tp60
a(g2
(g6
S'\x04\x00\x00\x00'
p61
tp62
Rp63
(I140
I155
tp64
tp65
aa(lp66
(g2
(g6
S'\x01\x00\x00\x00'
p67
tp68
Rp69
(I0
I56
tp70
tp71
a(g2
(g6
S'\x04\x00\x00\x00'
p72
tp73
Rp74
(I56
I95
tp75
tp76
a(g2
(g6
S'\x01\x00\x00\x00'
p77
tp78
Rp79
(I95
I135
tp80
tp81
a(g2
(g6
S'\x06\x00\x00\x00'
p82
tp83
Rp84
(I135
I155
tp85
tp86
aa(lp87
(g2
(g6
S'\x01\x00\x00\x00'
p88
tp89
Rp90
(I0
I56
tp91
tp92
a(g2
(g6
S'\x04\x00\x00\x00'
p93
tp94
Rp95
(I56
I88
tp96
tp97
a(g2
(g6
S'\x01\x00\x00\x00'
p98
tp99
Rp100
(I88
I136
tp101
tp102
a(g2
(g6
S'\x06\x00\x00\x00'
p103
tp104
Rp105
(I136
I155
tp106
tp107
aa(lp108
(g2
(g6
S'\x01\x00\x00\x00'
p109
tp110
Rp111
(I0
I56
tp112
tp113
a(g2
(g6
S'\x04\x00\x00\x00'
p114
tp115
Rp116
(I56
I88
tp117
tp118
a(g2
(g6
S'\x01\x00\x00\x00'
p119
tp120
Rp121
(I88
I136
tp122
tp123
a(g2
(g6
S'\x06\x00\x00\x00'
p124
tp125
Rp126
(I136
I155
tp127
tp128
aa(lp129
(g2
(g6
S'\x01\x00\x00\x00'
p130
tp131
Rp132
(I0
I56
tp133
tp134
a(g2
(g6
S'\x04\x00\x00\x00'
p135
tp136
Rp137
(I56
I88
tp138
tp139
a(g2
(g6
S'\x01\x00\x00\x00'
p140
tp141
Rp142
(I88
I136
tp143
tp144
a(g2
(g6
S'\x06\x00\x00\x00'
p145
tp146
Rp147
(I136
I155
tp148
tp149
aa(lp150
(g2
(g6
S'\x01\x00\x00\x00'
p151
tp152
Rp153
(I0
I56
tp154
tp155
a(g2
(g6
S'\x04\x00\x00\x00'
p156
tp157
Rp158
(I56
I91
tp159
tp160
a(g2
(g6
S'\x01\x00\x00\x00'
p161
tp162
Rp163
(I91
I136
tp164
tp165
a(g2
(g6
S'\x06\x00\x00\x00'
p166
tp167
Rp168
(I136
I155
tp169
tp170
aa(lp171
(g2
(g6
S'\x01\x00\x00\x00'
p172
tp173
Rp174
(I0
I56
tp175
tp176
a(g2
(g6
S'\x04\x00\x00\x00'
p177
tp178
Rp179
(I56
I87
tp180
tp181
a(g2
(g6
S'\x01\x00\x00\x00'
p182
tp183
Rp184
(I87
I136
tp185
tp186
a(g2
(g6
S'\x06\x00\x00\x00'
p187
tp188
Rp189
(I136
I155
tp190
tp191
aa(lp192
(g2
(g6
S'\x01\x00\x00\x00'
p193
tp194
Rp195
(I0
I56
tp196
tp197
a(g2
(g6
S'\x04\x00\x00\x00'
p198
tp199
Rp200
(I56
I89
tp201
tp202
a(g2
(g6
S'\x01\x00\x00\x00'
p203
tp204
Rp205
(I89
I137
tp206
tp207
a(g2
(g6
S'\x06\x00\x00\x00'
p208
tp209
Rp210
(I137
I155
tp211
tp212
aa(lp213
(g2
(g6
S'\x01\x00\x00\x00'
p214
tp215
Rp216
(I0
I56
tp217
tp218
a(g2
(g6
S'\x04\x00\x00\x00'
p219
tp220
Rp221
(I56
I91
tp222
tp223
a(g2
(g6
S'\x01\x00\x00\x00'
p224
tp225
Rp226
(I91
I136
tp227
tp228
a(g2
(g6
S'\x06\x00\x00\x00'
p229
tp230
Rp231
(I136
I155
tp232
tp233
aa(lp234
(g2
(g6
S'\x01\x00\x00\x00'
p235
tp236
Rp237
(I0
I55
tp238
tp239
a(g2
(g6
S'\x04\x00\x00\x00'
p240
tp241
Rp242
(I55
I85
tp243
tp244
a(g2
(g6
S'\x01\x00\x00\x00'
p245
tp246
Rp247
(I85
I136
tp248
tp249
a(g2
(g6
S'\x06\x00\x00\x00'
p250
tp251
Rp252
(I136
I155
tp253
tp254
aa(lp255
(g2
(g6
S'\x01\x00\x00\x00'
p256
tp257
Rp258
(I0
I56
tp259
tp260
a(g2
(g6
S'\x04\x00\x00\x00'
p261
tp262
Rp263
(I56
I90
tp264
tp265
a(g2
(g6
S'\x01\x00\x00\x00'
p266
tp267
Rp268
(I90
I137
tp269
tp270
a(g2
(g6
S'\x06\x00\x00\x00'
p271
tp272
Rp273
(I137
I155
tp274
tp275
aa(lp276
(g2
(g6
S'\x01\x00\x00\x00'
p277
tp278
Rp279
(I0
I56
tp280
tp281
a(g2
(g6
S'\x04\x00\x00\x00'
p282
tp283
Rp284
(I56
I88
tp285
tp286
a(g2
(g6
S'\x01\x00\x00\x00'
p287
tp288
Rp289
(I88
I136
tp290
tp291
a(g2
(g6
S'\x06\x00\x00\x00'
p292
tp293
Rp294
(I136
I155
tp295
tp296
aa(lp297
(g2
(g6
S'\x01\x00\x00\x00'
p298
tp299
Rp300
(I0
I56
tp301
tp302
a(g2
(g6
S'\x04\x00\x00\x00'
p303
tp304
Rp305
(I56
I90
tp306
tp307
a(g2
(g6
S'\x01\x00\x00\x00'
p308
tp309
Rp310
(I90
I137
tp311
tp312
a(g2
(g6
S'\x06\x00\x00\x00'
p313
tp314
Rp315
(I137
I155
tp316
tp317
aa(lp318
(g2
(g6
S'\x01\x00\x00\x00'
p319
tp320
Rp321
(I0
I56
tp322
tp323
a(g2
(g6
S'\x04\x00\x00\x00'
p324
tp325
Rp326
(I56
I88
tp327
tp328
a(g2
(g6
S'\x01\x00\x00\x00'
p329
tp330
Rp331
(I88
I136
tp332
tp333
a(g2
(g6
S'\x06\x00\x00\x00'
p334
tp335
Rp336
(I136
I155
tp337
tp338
aa(lp339
(g2
(g6
S'\x01\x00\x00\x00'
p340
tp341
Rp342
(I0
I56
tp343
tp344
a(g2
(g6
S'\x06\x00\x00\x00'
p345
tp346
Rp347
(I56
I78
tp348
tp349
a(g2
(g6
S'\x01\x00\x00\x00'
p350
tp351
Rp352
(I78
I137
tp353
tp354
a(g2
(g6
S'\x06\x00\x00\x00'
p355
tp356
Rp357
(I137
I155
tp358
tp359
aa(lp360
(g2
(g6
S'\x01\x00\x00\x00'
p361
tp362
Rp363
(I0
I56
tp364
tp365
a(g2
(g6
S'\x06\x00\x00\x00'
p366
tp367
Rp368
(I56
I79
tp369
tp370
a(g2
(g6
S'\x01\x00\x00\x00'
p371
tp372
Rp373
(I79
I137
tp374
tp375
a(g2
(g6
S'\x06\x00\x00\x00'
p376
tp377
Rp378
(I137
I155
tp379
tp380
aa(lp381
(g2
(g6
S'\x01\x00\x00\x00'
p382
tp383
Rp384
(I0
I56
tp385
tp386
a(g2
(g6
S'\x06\x00\x00\x00'
p387
tp388
Rp389
(I56
I78
tp390
tp391
a(g2
(g6
S'\x01\x00\x00\x00'
p392
tp393
Rp394
(I78
I138
tp395
tp396
a(g2
(g6
S'\x06\x00\x00\x00'
p397
tp398
Rp399
(I138
I155
tp400
tp401
aa(lp402
(g2
(g6
S'\x01\x00\x00\x00'
p403
tp404
Rp405
(I0
I56
tp406
tp407
a(g2
(g6
S'\x06\x00\x00\x00'
p408
tp409
Rp410
(I56
I78
tp411
tp412
a(g2
(g6
S'\x01\x00\x00\x00'
p413
tp414
Rp415
(I78
I137
tp416
tp417
a(g2
(g6
S'\x06\x00\x00\x00'
p418
tp419
Rp420
(I137
I155
tp421
tp422
aa(lp423
(g2
(g6
S'\x01\x00\x00\x00'
p424
tp425
Rp426
(I0
I56
tp427
tp428
a(g2
(g6
S'\x06\x00\x00\x00'
p429
tp430
Rp431
(I56
I78
tp432
tp433
a(g2
(g6
S'\x01\x00\x00\x00'
p434
tp435
Rp436
(I78
I137
tp437
tp438
a(g2
(g6
S'\x06\x00\x00\x00'
p439
tp440
Rp441
(I137
I155
tp442
tp443
aa(lp444
(g2
(g6
S'\x01\x00\x00\x00'
p445
tp446
Rp447
(I0
I56
tp448
tp449
a(g2
(g6
S'\x06\x00\x00\x00'
p450
tp451
Rp452
(I56
I78
tp453
tp454
a(g2
(g6
S'\x01\x00\x00\x00'
p455
tp456
Rp457
(I78
I138
tp458
tp459
a(g2
(g6
S'\x06\x00\x00\x00'
p460
tp461
Rp462
(I138
I155
tp463
tp464
aa(lp465
(g2
(g6
S'\x01\x00\x00\x00'
p466
tp467
Rp468
(I0
I57
tp469
tp470
a(g2
(g6
S'\x06\x00\x00\x00'
p471
tp472
Rp473
(I57
I78
tp474
tp475
a(g2
(g6
S'\x01\x00\x00\x00'
p476
tp477
Rp478
(I78
I137
tp479
tp480
a(g2
(g6
S'\x06\x00\x00\x00'
p481
tp482
Rp483
(I137
I155
tp484
tp485
aa(lp486
(g2
(g6
S'\x01\x00\x00\x00'
p487
tp488
Rp489
(I0
I56
tp490
tp491
a(g2
(g6
S'\x06\x00\x00\x00'
p492
tp493
Rp494
(I56
I78
tp495
tp496
a(g2
(g6
S'\x01\x00\x00\x00'
p497
tp498
Rp499
(I78
I138
tp500
tp501
a(g2
(g6
S'\x06\x00\x00\x00'
p502
tp503
Rp504
(I138
I155
tp505
tp506
aa(lp507
(g2
(g6
S'\x01\x00\x00\x00'
p508
tp509
Rp510
(I0
I56
tp511
tp512
a(g2
(g6
S'\x06\x00\x00\x00'
p513
tp514
Rp515
(I56
I78
tp516
tp517
a(g2
(g6
S'\x01\x00\x00\x00'
p518
tp519
Rp520
(I78
I138
tp521
tp522
a(g2
(g6
S'\x06\x00\x00\x00'
p523
tp524
Rp525
(I138
I155
tp526
tp527
aa(lp528
(g2
(g6
S'\x01\x00\x00\x00'
p529
tp530
Rp531
(I0
I56
tp532
tp533
a(g2
(g6
S'\x06\x00\x00\x00'
p534
tp535
Rp536
(I56
I78
tp537
tp538
a(g2
(g6
S'\x01\x00\x00\x00'
p539
tp540
Rp541
(I78
I138
tp542
tp543
a(g2
(g6
S'\x06\x00\x00\x00'
p544
tp545
Rp546
(I138
I155
tp547
tp548
aa(lp549
(g2
(g6
S'\x01\x00\x00\x00'
p550
tp551
Rp552
(I0
I56
tp553
tp554
a(g2
(g6
S'\x06\x00\x00\x00'
p555
tp556
Rp557
(I56
I78
tp558
tp559
a(g2
(g6
S'\x01\x00\x00\x00'
p560
tp561
Rp562
(I78
I137
tp563
tp564
a(g2
(g6
S'\x06\x00\x00\x00'
p565
tp566
Rp567
(I137
I155
tp568
tp569
aa(lp570
(g2
(g6
S'\x01\x00\x00\x00'
p571
tp572
Rp573
(I0
I57
tp574
tp575
a(g2
(g6
S'\x06\x00\x00\x00'
p576
tp577
Rp578
(I57
I78
tp579
tp580
a(g2
(g6
S'\x01\x00\x00\x00'
p581
tp582
Rp583
(I78
I138
tp584
tp585
a(g2
(g6
S'\x06\x00\x00\x00'
p586
tp587
Rp588
(I138
I155
tp589
tp590
aa(lp591
(g2
(g6
S'\x01\x00\x00\x00'
p592
tp593
Rp594
(I0
I57
tp595
tp596
a(g2
(g6
S'\x06\x00\x00\x00'
p597
tp598
Rp599
(I57
I78
tp600
tp601
a(g2
(g6
S'\x01\x00\x00\x00'
p602
tp603
Rp604
(I78
I138
tp605
tp606
a(g2
(g6
S'\x06\x00\x00\x00'
p607
tp608
Rp609
(I138
I155
tp610
tp611
aa(lp612
(g2
(g6
S'\x01\x00\x00\x00'
p613
tp614
Rp615
(I0
I56
tp616
tp617
a(g2
(g6
S'\x06\x00\x00\x00'
p618
tp619
Rp620
(I56
I78
tp621
tp622
a(g2
(g6
S'\x01\x00\x00\x00'
p623
tp624
Rp625
(I78
I138
tp626
tp627
a(g2
(g6
S'\x06\x00\x00\x00'
p628
tp629
Rp630
(I138
I155
tp631
tp632
aa(lp633
(g2
(g6
S'\x01\x00\x00\x00'
p634
tp635
Rp636
(I0
I56
tp637
tp638
a(g2
(g6
S'\x06\x00\x00\x00'
p639
tp640
Rp641
(I56
I78
tp642
tp643
a(g2
(g6
S'\x01\x00\x00\x00'
p644
tp645
Rp646
(I78
I137
tp647
tp648
a(g2
(g6
S'\x06\x00\x00\x00'
p649
tp650
Rp651
(I137
I155
tp652
tp653
aa(lp654
(g2
(g6
S'\x01\x00\x00\x00'
p655
tp656
Rp657
(I0
I56
tp658
tp659
a(g2
(g6
S'\x06\x00\x00\x00'
p660
tp661
Rp662
(I56
I78
tp663
tp664
a(g2
(g6
S'\x01\x00\x00\x00'
p665
tp666
Rp667
(I78
I138
tp668
tp669
a(g2
(g6
S'\x06\x00\x00\x00'
p670
tp671
Rp672
(I138
I155
tp673
tp674
aa(lp675
(g2
(g6
S'\x01\x00\x00\x00'
p676
tp677
Rp678
(I0
I57
tp679
tp680
a(g2
(g6
S'\x06\x00\x00\x00'
p681
tp682
Rp683
(I57
I78
tp684
tp685
a(g2
(g6
S'\x01\x00\x00\x00'
p686
tp687
Rp688
(I78
I138
tp689
tp690
a(g2
(g6
S'\x06\x00\x00\x00'
p691
tp692
Rp693
(I138
I155
tp694
tp695
aa(lp696
(g2
(g6
S'\x01\x00\x00\x00'
p697
tp698
Rp699
(I0
I56
tp700
tp701
a(g2
(g6
S'\x06\x00\x00\x00'
p702
tp703
Rp704
(I56
I78
tp705
tp706
a(g2
(g6
S'\x01\x00\x00\x00'
p707
tp708
Rp709
(I78
I138
tp710
tp711
a(g2
(g6
S'\x06\x00\x00\x00'
p712
tp713
Rp714
(I138
I155
tp715
tp716
aa(lp717
(g2
(g6
S'\x01\x00\x00\x00'
p718
tp719
Rp720
(I0
I56
tp721
tp722
a(g2
(g6
S'\x06\x00\x00\x00'
p723
tp724
Rp725
(I56
I78
tp726
tp727
a(g2
(g6
S'\x01\x00\x00\x00'
p728
tp729
Rp730
(I78
I138
tp731
tp732
a(g2
(g6
S'\x06\x00\x00\x00'
p733
tp734
Rp735
(I138
I155
tp736
tp737
aa(lp738
(g2
(g6
S'\x01\x00\x00\x00'
p739
tp740
Rp741
(I0
I57
tp742
tp743
a(g2
(g6
S'\x06\x00\x00\x00'
p744
tp745
Rp746
(I57
I78
tp747
tp748
a(g2
(g6
S'\x01\x00\x00\x00'
p749
tp750
Rp751
(I78
I138
tp752
tp753
a(g2
(g6
S'\x06\x00\x00\x00'
p754
tp755
Rp756
(I138
I155
tp757
tp758
aa(lp759
(g2
(g6
S'\x01\x00\x00\x00'
p760
tp761
Rp762
(I0
I56
tp763
tp764
a(g2
(g6
S'\x06\x00\x00\x00'
p765
tp766
Rp767
(I56
I78
tp768
tp769
a(g2
(g6
S'\x01\x00\x00\x00'
p770
tp771
Rp772
(I78
I138
tp773
tp774
a(g2
(g6
S'\x06\x00\x00\x00'
p775
tp776
Rp777
(I138
I155
tp778
tp779
aa(lp780
(g2
(g6
S'\x01\x00\x00\x00'
p781
tp782
Rp783
(I0
I56
tp784
tp785
a(g2
(g6
S'\x06\x00\x00\x00'
p786
tp787
Rp788
(I56
I78
tp789
tp790
a(g2
(g6
S'\x01\x00\x00\x00'
p791
tp792
Rp793
(I78
I138
tp794
tp795
a(g2
(g6
S'\x06\x00\x00\x00'
p796
tp797
Rp798
(I138
I155
tp799
tp800
aa(lp801
(g2
(g6
S'\x01\x00\x00\x00'
p802
tp803
Rp804
(I0
I56
tp805
tp806
a(g2
(g6
S'\x06\x00\x00\x00'
p807
tp808
Rp809
(I56
I78
tp810
tp811
a(g2
(g6
S'\x01\x00\x00\x00'
p812
tp813
Rp814
(I78
I138
tp815
tp816
a(g2
(g6
S'\x06\x00\x00\x00'
p817
tp818
Rp819
(I138
I155
tp820
tp821
aa(lp822
(g2
(g6
S'\x01\x00\x00\x00'
p823
tp824
Rp825
(I0
I56
tp826
tp827
a(g2
(g6
S'\x06\x00\x00\x00'
p828
tp829
Rp830
(I56
I79
tp831
tp832
a(g2
(g6
S'\x01\x00\x00\x00'
p833
tp834
Rp835
(I79
I138
tp836
tp837
a(g2
(g6
S'\x06\x00\x00\x00'
p838
tp839
Rp840
(I138
I155
tp841
tp842
aa(lp843
(g2
(g6
S'\x01\x00\x00\x00'
p844
tp845
Rp846
(I0
I56
tp847
tp848
a(g2
(g6
S'\x06\x00\x00\x00'
p849
tp850
Rp851
(I56
I78
tp852
tp853
a(g2
(g6
S'\x01\x00\x00\x00'
p854
tp855
Rp856
(I78
I138
tp857
tp858
a(g2
(g6
S'\x06\x00\x00\x00'
p859
tp860
Rp861
(I138
I155
tp862
tp863
aa(lp864
(g2
(g6
S'\x01\x00\x00\x00'
p865
tp866
Rp867
(I0
I56
tp868
tp869
a(g2
(g6
S'\x06\x00\x00\x00'
p870
tp871
Rp872
(I56
I78
tp873
tp874
a(g2
(g6
S'\x01\x00\x00\x00'
p875
tp876
Rp877
(I78
I138
tp878
tp879
a(g2
(g6
S'\x06\x00\x00\x00'
p880
tp881
Rp882
(I138
I155
tp883
tp884
aa(lp885
(g2
(g6
S'\x01\x00\x00\x00'
p886
tp887
Rp888
(I0
I56
tp889
tp890
a(g2
(g6
S'\x06\x00\x00\x00'
p891
tp892
Rp893
(I56
I78
tp894
tp895
a(g2
(g6
S'\x01\x00\x00\x00'
p896
tp897
Rp898
(I78
I138
tp899
tp900
a(g2
(g6
S'\x06\x00\x00\x00'
p901
tp902
Rp903
(I138
I155
tp904
tp905
aa(lp906
(g2
(g6
S'\x01\x00\x00\x00'
p907
tp908
Rp909
(I0
I56
tp910
tp911
a(g2
(g6
S'\x06\x00\x00\x00'
p912
tp913
Rp914
(I56
I78
tp915
tp916
a(g2
(g6
S'\x01\x00\x00\x00'
p917
tp918
Rp919
(I78
I138
tp920
tp921
a(g2
(g6
S'\x06\x00\x00\x00'
p922
tp923
Rp924
(I138
I155
tp925
tp926
aa(lp927
(g2
(g6
S'\x01\x00\x00\x00'
p928
tp929
Rp930
(I0
I56
tp931
tp932
a(g2
(g6
S'\x06\x00\x00\x00'
p933
tp934
Rp935
(I56
I78
tp936
tp937
a(g2
(g6
S'\x01\x00\x00\x00'
p938
tp939
Rp940
(I78
I138
tp941
tp942
a(g2
(g6
S'\x06\x00\x00\x00'
p943
tp944
Rp945
(I138
I155
tp946
tp947
aa(lp948
(g2
(g6
S'\x01\x00\x00\x00'
p949
tp950
Rp951
(I0
I57
tp952
tp953
a(g2
(g6
S'\x06\x00\x00\x00'
p954
tp955
Rp956
(I57
I78
tp957
tp958
a(g2
(g6
S'\x01\x00\x00\x00'
p959
tp960
Rp961
(I78
I138
tp962
tp963
a(g2
(g6
S'\x06\x00\x00\x00'
p964
tp965
Rp966
(I138
I155
tp967
tp968
aa(lp969
(g2
(g6
S'\x01\x00\x00\x00'
p970
tp971
Rp972
(I0
I56
tp973
tp974
a(g2
(g6
S'\x06\x00\x00\x00'
p975
tp976
Rp977
(I56
I78
tp978
tp979
a(g2
(g6
S'\x01\x00\x00\x00'
p980
tp981
Rp982
(I78
I138
tp983
tp984
a(g2
(g6
S'\x06\x00\x00\x00'
p985
tp986
Rp987
(I138
I155
tp988
tp989
aa(lp990
(g2
(g6
S'\x01\x00\x00\x00'
p991
tp992
Rp993
(I0
I56
tp994
tp995
a(g2
(g6
S'\x06\x00\x00\x00'
p996
tp997
Rp998
(I56
I79
tp999
tp1000
a(g2
(g6
S'\x01\x00\x00\x00'
p1001
tp1002
Rp1003
(I79
I137
tp1004
tp1005
a(g2
(g6
S'\x06\x00\x00\x00'
p1006
tp1007
Rp1008
(I137
I155
tp1009
tp1010
aa(lp1011
(g2
(g6
S'\x01\x00\x00\x00'
p1012
tp1013
Rp1014
(I0
I56
tp1015
tp1016
a(g2
(g6
S'\x06\x00\x00\x00'
p1017
tp1018
Rp1019
(I56
I78
tp1020
tp1021
a(g2
(g6
S'\x01\x00\x00\x00'
p1022
tp1023
Rp1024
(I78
I138
tp1025
tp1026
a(g2
(g6
S'\x06\x00\x00\x00'
p1027
tp1028
Rp1029
(I138
I155
tp1030
tp1031
aa(lp1032
(g2
(g6
S'\x01\x00\x00\x00'
p1033
tp1034
Rp1035
(I0
I56
tp1036
tp1037
a(g2
(g6
S'\x06\x00\x00\x00'
p1038
tp1039
Rp1040
(I56
I78
tp1041
tp1042
a(g2
(g6
S'\x01\x00\x00\x00'
p1043
tp1044
Rp1045
(I78
I138
tp1046
tp1047
a(g2
(g6
S'\x06\x00\x00\x00'
p1048
tp1049
Rp1050
(I138
I155
tp1051
tp1052
aa(lp1053
(g2
(g6
S'\x01\x00\x00\x00'
p1054
tp1055
Rp1056
(I0
I56
tp1057
tp1058
a(g2
(g6
S'\x06\x00\x00\x00'
p1059
tp1060
Rp1061
(I56
I78
tp1062
tp1063
a(g2
(g6
S'\x01\x00\x00\x00'
p1064
tp1065
Rp1066
(I78
I137
tp1067
tp1068
a(g2
(g6
S'\x06\x00\x00\x00'
p1069
tp1070
Rp1071
(I137
I155
tp1072
tp1073
aa(lp1074
(g2
(g6
S'\x01\x00\x00\x00'
p1075
tp1076
Rp1077
(I0
I56
tp1078
tp1079
a(g2
(g6
S'\x06\x00\x00\x00'
p1080
tp1081
Rp1082
(I56
I78
tp1083
tp1084
a(g2
(g6
S'\x01\x00\x00\x00'
p1085
tp1086
Rp1087
(I78
I138
tp1088
tp1089
a(g2
(g6
S'\x06\x00\x00\x00'
p1090
tp1091
Rp1092
(I138
I155
tp1093
tp1094
aa(lp1095
(g2
(g6
S'\x01\x00\x00\x00'
p1096
tp1097
Rp1098
(I0
I56
tp1099
tp1100
a(g2
(g6
S'\x06\x00\x00\x00'
p1101
tp1102
Rp1103
(I56
I78
tp1104
tp1105
a(g2
(g6
S'\x01\x00\x00\x00'
p1106
tp1107
Rp1108
(I78
I138
tp1109
tp1110
a(g2
(g6
S'\x06\x00\x00\x00'
p1111
tp1112
Rp1113
(I138
I155
tp1114
tp1115
aa(lp1116
(g2
(g6
S'\x01\x00\x00\x00'
p1117
tp1118
Rp1119
(I0
I56
tp1120
tp1121
a(g2
(g6
S'\x06\x00\x00\x00'
p1122
tp1123
Rp1124
(I56
I78
tp1125
tp1126
a(g2
(g6
S'\x01\x00\x00\x00'
p1127
tp1128
Rp1129
(I78
I138
tp1130
tp1131
a(g2
(g6
S'\x06\x00\x00\x00'
p1132
tp1133
Rp1134
(I138
I155
tp1135
tp1136
aa(lp1137
(g2
(g6
S'\x01\x00\x00\x00'
p1138
tp1139
Rp1140
(I0
I56
tp1141
tp1142
a(g2
(g6
S'\x06\x00\x00\x00'
p1143
tp1144
Rp1145
(I56
I78
tp1146
tp1147
a(g2
(g6
S'\x01\x00\x00\x00'
p1148
tp1149
Rp1150
(I78
I138
tp1151
tp1152
a(g2
(g6
S'\x06\x00\x00\x00'
p1153
tp1154
Rp1155
(I138
I155
tp1156
tp1157
aa(lp1158
(g2
(g6
S'\x01\x00\x00\x00'
p1159
tp1160
Rp1161
(I0
I56
tp1162
tp1163
a(g2
(g6
S'\x06\x00\x00\x00'
p1164
tp1165
Rp1166
(I56
I78
tp1167
tp1168
a(g2
(g6
S'\x01\x00\x00\x00'
p1169
tp1170
Rp1171
(I78
I138
tp1172
tp1173
a(g2
(g6
S'\x06\x00\x00\x00'
p1174
tp1175
Rp1176
(I138
I155
tp1177
tp1178
aa(lp1179
(g2
(g6
S'\x01\x00\x00\x00'
p1180
tp1181
Rp1182
(I0
I56
tp1183
tp1184
a(g2
(g6
S'\x06\x00\x00\x00'
p1185
tp1186
Rp1187
(I56
I78
tp1188
tp1189
a(g2
(g6
S'\x01\x00\x00\x00'
p1190
tp1191
Rp1192
(I78
I138
tp1193
tp1194
a(g2
(g6
S'\x06\x00\x00\x00'
p1195
tp1196
Rp1197
(I138
I155
tp1198
tp1199
aa(lp1200
(g2
(g6
S'\x01\x00\x00\x00'
p1201
tp1202
Rp1203
(I0
I56
tp1204
tp1205
a(g2
(g6
S'\x06\x00\x00\x00'
p1206
tp1207
Rp1208
(I56
I78
tp1209
tp1210
a(g2
(g6
S'\x01\x00\x00\x00'
p1211
tp1212
Rp1213
(I78
I137
tp1214
tp1215
a(g2
(g6
S'\x06\x00\x00\x00'
p1216
tp1217
Rp1218
(I137
I155
tp1219
tp1220
aa(lp1221
(g2
(g6
S'\x01\x00\x00\x00'
p1222
tp1223
Rp1224
(I0
I57
tp1225
tp1226
a(g2
(g6
S'\x06\x00\x00\x00'
p1227
tp1228
Rp1229
(I57
I78
tp1230
tp1231
a(g2
(g6
S'\x01\x00\x00\x00'
p1232
tp1233
Rp1234
(I78
I138
tp1235
tp1236
a(g2
(g6
S'\x06\x00\x00\x00'
p1237
tp1238
Rp1239
(I138
I155
tp1240
tp1241
aa(lp1242
(g2
(g6
S'\x01\x00\x00\x00'
p1243
tp1244
Rp1245
(I0
I56
tp1246
tp1247
a(g2
(g6
S'\x06\x00\x00\x00'
p1248
tp1249
Rp1250
(I56
I78
tp1251
tp1252
a(g2
(g6
S'\x01\x00\x00\x00'
p1253
tp1254
Rp1255
(I78
I138
tp1256
tp1257
a(g2
(g6
S'\x06\x00\x00\x00'
p1258
tp1259
Rp1260
(I138
I155
tp1261
tp1262
aa(lp1263
(g2
(g6
S'\x01\x00\x00\x00'
p1264
tp1265
Rp1266
(I0
I56
tp1267
tp1268
a(g2
(g6
S'\x06\x00\x00\x00'
p1269
tp1270
Rp1271
(I56
I78
tp1272
tp1273
a(g2
(g6
S'\x01\x00\x00\x00'
p1274
tp1275
Rp1276
(I78
I138
tp1277
tp1278
a(g2
(g6
S'\x06\x00\x00\x00'
p1279
tp1280
Rp1281
(I138
I155
tp1282
tp1283
aa(lp1284
(g2
(g6
S'\x01\x00\x00\x00'
p1285
tp1286
Rp1287
(I0
I56
tp1288
tp1289
a(g2
(g6
S'\x06\x00\x00\x00'
p1290
tp1291
Rp1292
(I56
I78
tp1293
tp1294
a(g2
(g6
S'\x01\x00\x00\x00'
p1295
tp1296
Rp1297
(I78
I138
tp1298
tp1299
a(g2
(g6
S'\x06\x00\x00\x00'
p1300
tp1301
Rp1302
(I138
I155
tp1303
tp1304
aa(lp1305
(g2
(g6
S'\x01\x00\x00\x00'
p1306
tp1307
Rp1308
(I0
I56
tp1309
tp1310
a(g2
(g6
S'\x06\x00\x00\x00'
p1311
tp1312
Rp1313
(I56
I78
tp1314
tp1315
a(g2
(g6
S'\x01\x00\x00\x00'
p1316
tp1317
Rp1318
(I78
I138
tp1319
tp1320
a(g2
(g6
S'\x06\x00\x00\x00'
p1321
tp1322
Rp1323
(I138
I155
tp1324
tp1325
aa(lp1326
(g2
(g6
S'\x01\x00\x00\x00'
p1327
tp1328
Rp1329
(I0
I56
tp1330
tp1331
a(g2
(g6
S'\x06\x00\x00\x00'
p1332
tp1333
Rp1334
(I56
I78
tp1335
tp1336
a(g2
(g6
S'\x01\x00\x00\x00'
p1337
tp1338
Rp1339
(I78
I138
tp1340
tp1341
a(g2
(g6
S'\x06\x00\x00\x00'
p1342
tp1343
Rp1344
(I138
I155
tp1345
tp1346
aa(lp1347
(g2
(g6
S'\x01\x00\x00\x00'
p1348
tp1349
Rp1350
(I0
I56
tp1351
tp1352
a(g2
(g6
S'\x06\x00\x00\x00'
p1353
tp1354
Rp1355
(I56
I78
tp1356
tp1357
a(g2
(g6
S'\x01\x00\x00\x00'
p1358
tp1359
Rp1360
(I78
I137
tp1361
tp1362
a(g2
(g6
S'\x06\x00\x00\x00'
p1363
tp1364
Rp1365
(I137
I155
tp1366
tp1367
aa(lp1368
(g2
(g6
S'\x01\x00\x00\x00'
p1369
tp1370
Rp1371
(I0
I57
tp1372
tp1373
a(g2
(g6
S'\x06\x00\x00\x00'
p1374
tp1375
Rp1376
(I57
I78
tp1377
tp1378
a(g2
(g6
S'\x01\x00\x00\x00'
p1379
tp1380
Rp1381
(I78
I138
tp1382
tp1383
a(g2
(g6
S'\x06\x00\x00\x00'
p1384
tp1385
Rp1386
(I138
I155
tp1387
tp1388
aa(lp1389
(g2
(g6
S'\x01\x00\x00\x00'
p1390
tp1391
Rp1392
(I0
I56
tp1393
tp1394
a(g2
(g6
S'\x06\x00\x00\x00'
p1395
tp1396
Rp1397
(I56
I78
tp1398
tp1399
a(g2
(g6
S'\x01\x00\x00\x00'
p1400
tp1401
Rp1402
(I78
I138
tp1403
tp1404
a(g2
(g6
S'\x06\x00\x00\x00'
p1405
tp1406
Rp1407
(I138
I155
tp1408
tp1409
aa(lp1410
(g2
(g6
S'\x01\x00\x00\x00'
p1411
tp1412
Rp1413
(I0
I56
tp1414
tp1415
a(g2
(g6
S'\x06\x00\x00\x00'
p1416
tp1417
Rp1418
(I56
I78
tp1419
tp1420
a(g2
(g6
S'\x01\x00\x00\x00'
p1421
tp1422
Rp1423
(I78
I138
tp1424
tp1425
a(g2
(g6
S'\x06\x00\x00\x00'
p1426
tp1427
Rp1428
(I138
I155
tp1429
tp1430
aa(lp1431
(g2
(g6
S'\x01\x00\x00\x00'
p1432
tp1433
Rp1434
(I0
I56
tp1435
tp1436
a(g2
(g6
S'\x06\x00\x00\x00'
p1437
tp1438
Rp1439
(I56
I78
tp1440
tp1441
a(g2
(g6
S'\x01\x00\x00\x00'
p1442
tp1443
Rp1444
(I78
I138
tp1445
tp1446
a(g2
(g6
S'\x06\x00\x00\x00'
p1447
tp1448
Rp1449
(I138
I155
tp1450
tp1451
aa(lp1452
(g2
(g6
S'\x01\x00\x00\x00'
p1453
tp1454
Rp1455
(I0
I56
tp1456
tp1457
a(g2
(g6
S'\x06\x00\x00\x00'
p1458
tp1459
Rp1460
(I56
I78
tp1461
tp1462
a(g2
(g6
S'\x01\x00\x00\x00'
p1463
tp1464
Rp1465
(I78
I138
tp1466
tp1467
a(g2
(g6
S'\x06\x00\x00\x00'
p1468
tp1469
Rp1470
(I138
I155
tp1471
tp1472
aa(lp1473
(g2
(g6
S'\x01\x00\x00\x00'
p1474
tp1475
Rp1476
(I0
I56
tp1477
tp1478
a(g2
(g6
S'\x06\x00\x00\x00'
p1479
tp1480
Rp1481
(I56
I78
tp1482
tp1483
a(g2
(g6
S'\x01\x00\x00\x00'
p1484
tp1485
Rp1486
(I78
I138
tp1487
tp1488
a(g2
(g6
S'\x06\x00\x00\x00'
p1489
tp1490
Rp1491
(I138
I155
tp1492
tp1493
aa(lp1494
(g2
(g6
S'\x01\x00\x00\x00'
p1495
tp1496
Rp1497
(I0
I56
tp1498
tp1499
a(g2
(g6
S'\x06\x00\x00\x00'
p1500
tp1501
Rp1502
(I56
I78
tp1503
tp1504
a(g2
(g6
S'\x01\x00\x00\x00'
p1505
tp1506
Rp1507
(I78
I138
tp1508
tp1509
a(g2
(g6
S'\x06\x00\x00\x00'
p1510
tp1511
Rp1512
(I138
I155
tp1513
tp1514
aa(lp1515
(g2
(g6
S'\x01\x00\x00\x00'
p1516
tp1517
Rp1518
(I0
I56
tp1519
tp1520
a(g2
(g6
S'\x06\x00\x00\x00'
p1521
tp1522
Rp1523
(I56
I78
tp1524
tp1525
a(g2
(g6
S'\x01\x00\x00\x00'
p1526
tp1527
Rp1528
(I78
I138
tp1529
tp1530
a(g2
(g6
S'\x06\x00\x00\x00'
p1531
tp1532
Rp1533
(I138
I155
tp1534
tp1535
aa(lp1536
(g2
(g6
S'\x01\x00\x00\x00'
p1537
tp1538
Rp1539
(I0
I56
tp1540
tp1541
a(g2
(g6
S'\x06\x00\x00\x00'
p1542
tp1543
Rp1544
(I56
I78
tp1545
tp1546
a(g2
(g6
S'\x01\x00\x00\x00'
p1547
tp1548
Rp1549
(I78
I138
tp1550
tp1551
a(g2
(g6
S'\x06\x00\x00\x00'
p1552
tp1553
Rp1554
(I138
I155
tp1555
tp1556
aa(lp1557
(g2
(g6
S'\x01\x00\x00\x00'
p1558
tp1559
Rp1560
(I0
I56
tp1561
tp1562
a(g2
(g6
S'\x06\x00\x00\x00'
p1563
tp1564
Rp1565
(I56
I78
tp1566
tp1567
a(g2
(g6
S'\x01\x00\x00\x00'
p1568
tp1569
Rp1570
(I78
I138
tp1571
tp1572
a(g2
(g6
S'\x06\x00\x00\x00'
p1573
tp1574
Rp1575
(I138
I155
tp1576
tp1577
aa(lp1578
(g2
(g6
S'\x01\x00\x00\x00'
p1579
tp1580
Rp1581
(I0
I56
tp1582
tp1583
a(g2
(g6
S'\x06\x00\x00\x00'
p1584
tp1585
Rp1586
(I56
I79
tp1587
tp1588
a(g2
(g6
S'\x01\x00\x00\x00'
p1589
tp1590
Rp1591
(I79
I137
tp1592
tp1593
a(g2
(g6
S'\x06\x00\x00\x00'
p1594
tp1595
Rp1596
(I137
I155
tp1597
tp1598
aa(lp1599
(g2
(g6
S'\x01\x00\x00\x00'
p1600
tp1601
Rp1602
(I0
I56
tp1603
tp1604
a(g2
(g6
S'\x06\x00\x00\x00'
p1605
tp1606
Rp1607
(I56
I78
tp1608
tp1609
a(g2
(g6
S'\x01\x00\x00\x00'
p1610
tp1611
Rp1612
(I78
I138
tp1613
tp1614
a(g2
(g6
S'\x06\x00\x00\x00'
p1615
tp1616
Rp1617
(I138
I155
tp1618
tp1619
aa(lp1620
(g2
(g6
S'\x01\x00\x00\x00'
p1621
tp1622
Rp1623
(I0
I56
tp1624
tp1625
a(g2
(g6
S'\x06\x00\x00\x00'
p1626
tp1627
Rp1628
(I56
I78
tp1629
tp1630
a(g2
(g6
S'\x01\x00\x00\x00'
p1631
tp1632
Rp1633
(I78
I138
tp1634
tp1635
a(g2
(g6
S'\x06\x00\x00\x00'
p1636
tp1637
Rp1638
(I138
I155
tp1639
tp1640
aa(lp1641
(g2
(g6
S'\x01\x00\x00\x00'
p1642
tp1643
Rp1644
(I0
I56
tp1645
tp1646
a(g2
(g6
S'\x06\x00\x00\x00'
p1647
tp1648
Rp1649
(I56
I78
tp1650
tp1651
a(g2
(g6
S'\x01\x00\x00\x00'
p1652
tp1653
Rp1654
(I78
I138
tp1655
tp1656
a(g2
(g6
S'\x06\x00\x00\x00'
p1657
tp1658
Rp1659
(I138
I155
tp1660
tp1661
aa(lp1662
(g2
(g6
S'\x01\x00\x00\x00'
p1663
tp1664
Rp1665
(I0
I56
tp1666
tp1667
a(g2
(g6
S'\x06\x00\x00\x00'
p1668
tp1669
Rp1670
(I56
I78
tp1671
tp1672
a(g2
(g6
S'\x01\x00\x00\x00'
p1673
tp1674
Rp1675
(I78
I138
tp1676
tp1677
a(g2
(g6
S'\x06\x00\x00\x00'
p1678
tp1679
Rp1680
(I138
I155
tp1681
tp1682
aa(lp1683
(g2
(g6
S'\x01\x00\x00\x00'
p1684
tp1685
Rp1686
(I0
I56
tp1687
tp1688
a(g2
(g6
S'\x06\x00\x00\x00'
p1689
tp1690
Rp1691
(I56
I77
tp1692
tp1693
a(g2
(g6
S'\x01\x00\x00\x00'
p1694
tp1695
Rp1696
(I77
I137
tp1697
tp1698
a(g2
(g6
S'\x06\x00\x00\x00'
p1699
tp1700
Rp1701
(I137
I155
tp1702
tp1703
aa(lp1704
(g2
(g6
S'\x01\x00\x00\x00'
p1705
tp1706
Rp1707
(I0
I56
tp1708
tp1709
a(g2
(g6
S'\x06\x00\x00\x00'
p1710
tp1711
Rp1712
(I56
I78
tp1713
tp1714
a(g2
(g6
S'\x01\x00\x00\x00'
p1715
tp1716
Rp1717
(I78
I138
tp1718
tp1719
a(g2
(g6
S'\x06\x00\x00\x00'
p1720
tp1721
Rp1722
(I138
I155
tp1723
tp1724
aa(lp1725
(g2
(g6
S'\x01\x00\x00\x00'
p1726
tp1727
Rp1728
(I0
I56
tp1729
tp1730
a(g2
(g6
S'\x06\x00\x00\x00'
p1731
tp1732
Rp1733
(I56
I78
tp1734
tp1735
a(g2
(g6
S'\x01\x00\x00\x00'
p1736
tp1737
Rp1738
(I78
I137
tp1739
tp1740
a(g2
(g6
S'\x06\x00\x00\x00'
p1741
tp1742
Rp1743
(I137
I155
tp1744
tp1745
aa(lp1746
(g2
(g6
S'\x01\x00\x00\x00'
p1747
tp1748
Rp1749
(I0
I56
tp1750
tp1751
a(g2
(g6
S'\x06\x00\x00\x00'
p1752
tp1753
Rp1754
(I56
I78
tp1755
tp1756
a(g2
(g6
S'\x01\x00\x00\x00'
p1757
tp1758
Rp1759
(I78
I138
tp1760
tp1761
a(g2
(g6
S'\x06\x00\x00\x00'
p1762
tp1763
Rp1764
(I138
I155
tp1765
tp1766
aa(lp1767
(g2
(g6
S'\x01\x00\x00\x00'
p1768
tp1769
Rp1770
(I0
I56
tp1771
tp1772
a(g2
(g6
S'\x06\x00\x00\x00'
p1773
tp1774
Rp1775
(I56
I78
tp1776
tp1777
a(g2
(g6
S'\x01\x00\x00\x00'
p1778
tp1779
Rp1780
(I78
I138
tp1781
tp1782
a(g2
(g6
S'\x06\x00\x00\x00'
p1783
tp1784
Rp1785
(I138
I155
tp1786
tp1787
aa(lp1788
(g2
(g6
S'\x01\x00\x00\x00'
p1789
tp1790
Rp1791
(I0
I57
tp1792
tp1793
a(g2
(g6
S'\x06\x00\x00\x00'
p1794
tp1795
Rp1796
(I57
I78
tp1797
tp1798
a(g2
(g6
S'\x01\x00\x00\x00'
p1799
tp1800
Rp1801
(I78
I138
tp1802
tp1803
a(g2
(g6
S'\x06\x00\x00\x00'
p1804
tp1805
Rp1806
(I138
I155
tp1807
tp1808
aa(lp1809
(g2
(g6
S'\x01\x00\x00\x00'
p1810
tp1811
Rp1812
(I0
I56
tp1813
tp1814
a(g2
(g6
S'\x06\x00\x00\x00'
p1815
tp1816
Rp1817
(I56
I78
tp1818
tp1819
a(g2
(g6
S'\x01\x00\x00\x00'
p1820
tp1821
Rp1822
(I78
I138
tp1823
tp1824
a(g2
(g6
S'\x06\x00\x00\x00'
p1825
tp1826
Rp1827
(I138
I155
tp1828
tp1829
aa(lp1830
(g2
(g6
S'\x05\x00\x00\x00'
p1831
tp1832
Rp1833
(I0
I18
tp1834
tp1835
a(g2
(g6
S'\x06\x00\x00\x00'
p1836
tp1837
Rp1838
(I18
I43
tp1839
tp1840
a(g2
(g6
S'\x00\x00\x00\x00'
p1841
tp1842
Rp1843
(I43
I83
tp1844
tp1845
a(g2
(g6
S'\x01\x00\x00\x00'
p1846
tp1847
Rp1848
(I83
I138
tp1849
tp1850
a(g2
(g6
S'\x06\x00\x00\x00'
p1851
tp1852
Rp1853
(I138
I155
tp1854
tp1855
aa(lp1856
(g2
(g6
S'\x05\x00\x00\x00'
p1857
tp1858
Rp1859
(I0
I18
tp1860
tp1861
a(g2
(g6
S'\x06\x00\x00\x00'
p1862
tp1863
Rp1864
(I18
I43
tp1865
tp1866
a(g2
(g6
S'\x00\x00\x00\x00'
p1867
tp1868
Rp1869
(I43
I83
tp1870
tp1871
a(g2
(g6
S'\x01\x00\x00\x00'
p1872
tp1873
Rp1874
(I83
I138
tp1875
tp1876
a(g2
(g6
S'\x06\x00\x00\x00'
p1877
tp1878
Rp1879
(I138
I155
tp1880
tp1881
aa(lp1882
(g2
(g6
S'\x05\x00\x00\x00'
p1883
tp1884
Rp1885
(I0
I17
tp1886
tp1887
a(g2
(g6
S'\x06\x00\x00\x00'
p1888
tp1889
Rp1890
(I17
I43
tp1891
tp1892
a(g2
(g6
S'\x00\x00\x00\x00'
p1893
tp1894
Rp1895
(I43
I84
tp1896
tp1897
a(g2
(g6
S'\x01\x00\x00\x00'
p1898
tp1899
Rp1900
(I84
I138
tp1901
tp1902
a(g2
(g6
S'\x06\x00\x00\x00'
p1903
tp1904
Rp1905
(I138
I155
tp1906
tp1907
aa(lp1908
(g2
(g6
S'\x01\x00\x00\x00'
p1909
tp1910
Rp1911
(I0
I56
tp1912
tp1913
a(g2
(g6
S'\x04\x00\x00\x00'
p1914
tp1915
Rp1916
(I56
I91
tp1917
tp1918
a(g2
(g6
S'\x01\x00\x00\x00'
p1919
tp1920
Rp1921
(I91
I137
tp1922
tp1923
a(g2
(g6
S'\x06\x00\x00\x00'
p1924
tp1925
Rp1926
(I137
I155
tp1927
tp1928
aa(lp1929
(g2
(g6
S'\x01\x00\x00\x00'
p1930
tp1931
Rp1932
(I0
I56
tp1933
tp1934
a(g2
(g6
S'\x04\x00\x00\x00'
p1935
tp1936
Rp1937
(I56
I90
tp1938
tp1939
a(g2
(g6
S'\x01\x00\x00\x00'
p1940
tp1941
Rp1942
(I90
I138
tp1943
tp1944
a(g2
(g6
S'\x06\x00\x00\x00'
p1945
tp1946
Rp1947
(I138
I155
tp1948
tp1949
aa(lp1950
(g2
(g6
S'\x01\x00\x00\x00'
p1951
tp1952
Rp1953
(I0
I57
tp1954
tp1955
a(g2
(g6
S'\x04\x00\x00\x00'
p1956
tp1957
Rp1958
(I57
I89
tp1959
tp1960
a(g2
(g6
S'\x01\x00\x00\x00'
p1961
tp1962
Rp1963
(I89
I137
tp1964
tp1965
a(g2
(g6
S'\x06\x00\x00\x00'
p1966
tp1967
Rp1968
(I137
I155
tp1969
tp1970
aa(lp1971
(g2
(g6
S'\x01\x00\x00\x00'
p1972
tp1973
Rp1974
(I0
I56
tp1975
tp1976
a(g2
(g6
S'\x04\x00\x00\x00'
p1977
tp1978
Rp1979
(I56
I91
tp1980
tp1981
a(g2
(g6
S'\x01\x00\x00\x00'
p1982
tp1983
Rp1984
(I91
I138
tp1985
tp1986
a(g2
(g6
S'\x06\x00\x00\x00'
p1987
tp1988
Rp1989
(I138
I155
tp1990
tp1991
aa(lp1992
(g2
(g6
S'\x01\x00\x00\x00'
p1993
tp1994
Rp1995
(I0
I56
tp1996
tp1997
a(g2
(g6
S'\x04\x00\x00\x00'
p1998
tp1999
Rp2000
(I56
I90
tp2001
tp2002
a(g2
(g6
S'\x01\x00\x00\x00'
p2003
tp2004
Rp2005
(I90
I138
tp2006
tp2007
a(g2
(g6
S'\x06\x00\x00\x00'
p2008
tp2009
Rp2010
(I138
I155
tp2011
tp2012
aa(lp2013
(g2
(g6
S'\x01\x00\x00\x00'
p2014
tp2015
Rp2016
(I0
I56
tp2017
tp2018
a(g2
(g6
S'\x04\x00\x00\x00'
p2019
tp2020
Rp2021
(I56
I90
tp2022
tp2023
a(g2
(g6
S'\x01\x00\x00\x00'
p2024
tp2025
Rp2026
(I90
I138
tp2027
tp2028
a(g2
(g6
S'\x06\x00\x00\x00'
p2029
tp2030
Rp2031
(I138
I155
tp2032
tp2033
aa(lp2034
(g2
(g6
S'\x01\x00\x00\x00'
p2035
tp2036
Rp2037
(I0
I56
tp2038
tp2039
a(g2
(g6
S'\x04\x00\x00\x00'
p2040
tp2041
Rp2042
(I56
I90
tp2043
tp2044
a(g2
(g6
S'\x01\x00\x00\x00'
p2045
tp2046
Rp2047
(I90
I138
tp2048
tp2049
a(g2
(g6
S'\x06\x00\x00\x00'
p2050
tp2051
Rp2052
(I138
I155
tp2053
tp2054
aa(lp2055
(g2
(g6
S'\x01\x00\x00\x00'
p2056
tp2057
Rp2058
(I0
I56
tp2059
tp2060
a(g2
(g6
S'\x04\x00\x00\x00'
p2061
tp2062
Rp2063
(I56
I91
tp2064
tp2065
a(g2
(g6
S'\x01\x00\x00\x00'
p2066
tp2067
Rp2068
(I91
I137
tp2069
tp2070
a(g2
(g6
S'\x06\x00\x00\x00'
p2071
tp2072
Rp2073
(I137
I155
tp2074
tp2075
aa(lp2076
(g2
(g6
S'\x01\x00\x00\x00'
p2077
tp2078
Rp2079
(I0
I56
tp2080
tp2081
a(g2
(g6
S'\x04\x00\x00\x00'
p2082
tp2083
Rp2084
(I56
I91
tp2085
tp2086
a(g2
(g6
S'\x01\x00\x00\x00'
p2087
tp2088
Rp2089
(I91
I138
tp2090
tp2091
a(g2
(g6
S'\x06\x00\x00\x00'
p2092
tp2093
Rp2094
(I138
I155
tp2095
tp2096
aa(lp2097
(g2
(g6
S'\x01\x00\x00\x00'
p2098
tp2099
Rp2100
(I0
I56
tp2101
tp2102
a(g2
(g6
S'\x04\x00\x00\x00'
p2103
tp2104
Rp2105
(I56
I91
tp2106
tp2107
a(g2
(g6
S'\x01\x00\x00\x00'
p2108
tp2109
Rp2110
(I91
I138
tp2111
tp2112
a(g2
(g6
S'\x06\x00\x00\x00'
p2113
tp2114
Rp2115
(I138
I155
tp2116
tp2117
aa.