(lp0
(lp1
(cnumpy.core.multiarray
scalar
p2
(cnumpy
dtype
p3
(S'i4'
p4
I0
I1
tp5
Rp6
(I3
S'<'
p7
NNNI-1
I-1
I0
tp8
bS'\x01\x00\x00\x00'
p9
tp10
Rp11
(I0
I39
tp12
tp13
a(g2
(g6
S'\x01\x00\x00\x00'
p14
tp15
Rp16
(I39
I93
tp17
tp18
aa(lp19
(g2
(g6
S'\x01\x00\x00\x00'
p20
tp21
Rp22
(I0
I39
tp23
tp24
a(g2
(g6
S'\x01\x00\x00\x00'
p25
tp26
Rp27
(I39
I93
tp28
tp29
aa(lp30
(g2
(g6
S'\x02\x00\x00\x00'
p31
tp32
Rp33
(I0
I38
tp34
tp35
a(g2
(g6
S'\x02\x00\x00\x00'
p36
tp37
Rp38
(I38
I93
tp39
tp40
aa(lp41
(g2
(g6
S'\x02\x00\x00\x00'
p42
tp43
Rp44
(I0
I39
tp45
tp46
a(g2
(g6
S'\x02\x00\x00\x00'
p47
tp48
Rp49
(I39
I93
tp50
tp51
aa(lp52
(g2
(g6
S'\x02\x00\x00\x00'
p53
tp54
Rp55
(I0
I39
tp56
tp57
a(g2
(g6
S'\x02\x00\x00\x00'
p58
tp59
Rp60
(I39
I93
tp61
tp62
aa(lp63
(g2
(g6
S'\x02\x00\x00\x00'
p64
tp65
Rp66
(I0
I39
tp67
tp68
a(g2
(g6
S'\x05\x00\x00\x00'
p69
tp70
Rp71
(I39
I57
tp72
tp73
a(g2
(g6
S'\x02\x00\x00\x00'
p74
tp75
Rp76
(I57
I93
tp77
tp78
aa(lp79
(g2
(g6
S'\x02\x00\x00\x00'
p80
tp81
Rp82
(I0
I39
tp83
tp84
a(g2
(g6
S'\x05\x00\x00\x00'
p85
tp86
Rp87
(I39
I56
tp88
tp89
a(g2
(g6
S'\x02\x00\x00\x00'
p90
tp91
Rp92
(I56
I93
tp93
tp94
aa(lp95
(g2
(g6
S'\x02\x00\x00\x00'
p96
tp97
Rp98
(I0
I39
tp99
tp100
a(g2
(g6
S'\x02\x00\x00\x00'
p101
tp102
Rp103
(I39
I93
tp104
tp105
aa(lp106
(g2
(g6
S'\x02\x00\x00\x00'
p107
tp108
Rp109
(I0
I39
tp110
tp111
a(g2
(g6
S'\x05\x00\x00\x00'
p112
tp113
Rp114
(I39
I57
tp115
tp116
a(g2
(g6
S'\x02\x00\x00\x00'
p117
tp118
Rp119
(I57
I93
tp120
tp121
aa(lp122
(g2
(g6
S'\x02\x00\x00\x00'
p123
tp124
Rp125
(I0
I38
tp126
tp127
a(g2
(g6
S'\x05\x00\x00\x00'
p128
tp129
Rp130
(I38
I56
tp131
tp132
a(g2
(g6
S'\x02\x00\x00\x00'
p133
tp134
Rp135
(I56
I93
tp136
tp137
aa(lp138
(g2
(g6
S'\x02\x00\x00\x00'
p139
tp140
Rp141
(I0
I39
tp142
tp143
a(g2
(g6
S'\x05\x00\x00\x00'
p144
tp145
Rp146
(I39
I52
tp147
tp148
a(g2
(g6
S'\x02\x00\x00\x00'
p149
tp150
Rp151
(I52
I93
tp152
tp153
aa(lp154
(g2
(g6
S'\x02\x00\x00\x00'
p155
tp156
Rp157
(I0
I39
tp158
tp159
a(g2
(g6
S'\x05\x00\x00\x00'
p160
tp161
Rp162
(I39
I55
tp163
tp164
a(g2
(g6
S'\x02\x00\x00\x00'
p165
tp166
Rp167
(I55
I93
tp168
tp169
aa(lp170
(g2
(g6
S'\x02\x00\x00\x00'
p171
tp172
Rp173
(I0
I39
tp174
tp175
a(g2
(g6
S'\x05\x00\x00\x00'
p176
tp177
Rp178
(I39
I57
tp179
tp180
a(g2
(g6
S'\x02\x00\x00\x00'
p181
tp182
Rp183
(I57
I93
tp184
tp185
aa(lp186
(g2
(g6
S'\x02\x00\x00\x00'
p187
tp188
Rp189
(I0
I39
tp190
tp191
a(g2
(g6
S'\x05\x00\x00\x00'
p192
tp193
Rp194
(I39
I55
tp195
tp196
a(g2
(g6
S'\x02\x00\x00\x00'
p197
tp198
Rp199
(I55
I93
tp200
tp201
aa(lp202
(g2
(g6
S'\x02\x00\x00\x00'
p203
tp204
Rp205
(I0
I39
tp206
tp207
a(g2
(g6
S'\x05\x00\x00\x00'
p208
tp209
Rp210
(I39
I57
tp211
tp212
a(g2
(g6
S'\x02\x00\x00\x00'
p213
tp214
Rp215
(I57
I93
tp216
tp217
aa(lp218
(g2
(g6
S'\x02\x00\x00\x00'
p219
tp220
Rp221
(I0
I39
tp222
tp223
a(g2
(g6
S'\x05\x00\x00\x00'
p224
tp225
Rp226
(I39
I59
tp227
tp228
a(g2
(g6
S'\x02\x00\x00\x00'
p229
tp230
Rp231
(I59
I93
tp232
tp233
aa(lp234
(g2
(g6
S'\x02\x00\x00\x00'
p235
tp236
Rp237
(I0
I39
tp238
tp239
a(g2
(g6
S'\x05\x00\x00\x00'
p240
tp241
Rp242
(I39
I54
tp243
tp244
a(g2
(g6
S'\x02\x00\x00\x00'
p245
tp246
Rp247
(I54
I93
tp248
tp249
aa(lp250
(g2
(g6
S'\x02\x00\x00\x00'
p251
tp252
Rp253
(I0
I39
tp254
tp255
a(g2
(g6
S'\x05\x00\x00\x00'
p256
tp257
Rp258
(I39
I56
tp259
tp260
a(g2
(g6
S'\x02\x00\x00\x00'
p261
tp262
Rp263
(I56
I93
tp264
tp265
aa(lp266
(g2
(g6
S'\x02\x00\x00\x00'
p267
tp268
Rp269
(I0
I39
tp270
tp271
a(g2
(g6
S'\x05\x00\x00\x00'
p272
tp273
Rp274
(I39
I58
tp275
tp276
a(g2
(g6
S'\x02\x00\x00\x00'
p277
tp278
Rp279
(I58
I93
tp280
tp281
aa(lp282
(g2
(g6
S'\x02\x00\x00\x00'
p283
tp284
Rp285
(I0
I39
tp286
tp287
a(g2
(g6
S'\x05\x00\x00\x00'
p288
tp289
Rp290
(I39
I57
tp291
tp292
a(g2
(g6
S'\x02\x00\x00\x00'
p293
tp294
Rp295
(I57
I93
tp296
tp297
aa(lp298
(g2
(g6
S'\x02\x00\x00\x00'
p299
tp300
Rp301
(I0
I39
tp302
tp303
a(g2
(g6
S'\x05\x00\x00\x00'
p304
tp305
Rp306
(I39
I55
tp307
tp308
a(g2
(g6
S'\x02\x00\x00\x00'
p309
tp310
Rp311
(I55
I93
tp312
tp313
aa(lp314
(g2
(g6
S'\x02\x00\x00\x00'
p315
tp316
Rp317
(I0
I39
tp318
tp319
a(g2
(g6
S'\x05\x00\x00\x00'
p320
tp321
Rp322
(I39
I57
tp323
tp324
a(g2
(g6
S'\x02\x00\x00\x00'
p325
tp326
Rp327
(I57
I93
tp328
tp329
aa(lp330
(g2
(g6
S'\x02\x00\x00\x00'
p331
tp332
Rp333
(I0
I39
tp334
tp335
a(g2
(g6
S'\x05\x00\x00\x00'
p336
tp337
Rp338
(I39
I55
tp339
tp340
a(g2
(g6
S'\x02\x00\x00\x00'
p341
tp342
Rp343
(I55
I93
tp344
tp345
aa(lp346
(g2
(g6
S'\x02\x00\x00\x00'
p347
tp348
Rp349
(I0
I39
tp350
tp351
a(g2
(g6
S'\x05\x00\x00\x00'
p352
tp353
Rp354
(I39
I56
tp355
tp356
a(g2
(g6
S'\x02\x00\x00\x00'
p357
tp358
Rp359
(I56
I93
tp360
tp361
aa(lp362
(g2
(g6
S'\x02\x00\x00\x00'
p363
tp364
Rp365
(I0
I39
tp366
tp367
a(g2
(g6
S'\x05\x00\x00\x00'
p368
tp369
Rp370
(I39
I62
tp371
tp372
a(g2
(g6
S'\x02\x00\x00\x00'
p373
tp374
Rp375
(I62
I93
tp376
tp377
aa(lp378
(g2
(g6
S'\x02\x00\x00\x00'
p379
tp380
Rp381
(I0
I39
tp382
tp383
a(g2
(g6
S'\x05\x00\x00\x00'
p384
tp385
Rp386
(I39
I57
tp387
tp388
a(g2
(g6
S'\x02\x00\x00\x00'
p389
tp390
Rp391
(I57
I93
tp392
tp393
aa(lp394
(g2
(g6
S'\x02\x00\x00\x00'
p395
tp396
Rp397
(I0
I39
tp398
tp399
a(g2
(g6
S'\x05\x00\x00\x00'
p400
tp401
Rp402
(I39
I50
tp403
tp404
a(g2
(g6
S'\x02\x00\x00\x00'
p405
tp406
Rp407
(I50
I93
tp408
tp409
aa(lp410
(g2
(g6
S'\x02\x00\x00\x00'
p411
tp412
Rp413
(I0
I39
tp414
tp415
a(g2
(g6
S'\x05\x00\x00\x00'
p416
tp417
Rp418
(I39
I55
tp419
tp420
a(g2
(g6
S'\x02\x00\x00\x00'
p421
tp422
Rp423
(I55
I93
tp424
tp425
aa(lp426
(g2
(g6
S'\x02\x00\x00\x00'
p427
tp428
Rp429
(I0
I39
tp430
tp431
a(g2
(g6
S'\x05\x00\x00\x00'
p432
tp433
Rp434
(I39
I58
tp435
tp436
a(g2
(g6
S'\x02\x00\x00\x00'
p437
tp438
Rp439
(I58
I93
tp440
tp441
aa(lp442
(g2
(g6
S'\x02\x00\x00\x00'
p443
tp444
Rp445
(I0
I39
tp446
tp447
a(g2
(g6
S'\x05\x00\x00\x00'
p448
tp449
Rp450
(I39
I56
tp451
tp452
a(g2
(g6
S'\x02\x00\x00\x00'
p453
tp454
Rp455
(I56
I93
tp456
tp457
aa(lp458
(g2
(g6
S'\x02\x00\x00\x00'
p459
tp460
Rp461
(I0
I39
tp462
tp463
a(g2
(g6
S'\x05\x00\x00\x00'
p464
tp465
Rp466
(I39
I55
tp467
tp468
a(g2
(g6
S'\x02\x00\x00\x00'
p469
tp470
Rp471
(I55
I93
tp472
tp473
aa(lp474
(g2
(g6
S'\x02\x00\x00\x00'
p475
tp476
Rp477
(I0
I39
tp478
tp479
a(g2
(g6
S'\x05\x00\x00\x00'
p480
tp481
Rp482
(I39
I54
tp483
tp484
a(g2
(g6
S'\x02\x00\x00\x00'
p485
tp486
Rp487
(I54
I93
tp488
tp489
aa(lp490
(g2
(g6
S'\x02\x00\x00\x00'
p491
tp492
Rp493
(I0
I39
tp494
tp495
a(g2
(g6
S'\x05\x00\x00\x00'
p496
tp497
Rp498
(I39
I58
tp499
tp500
a(g2
(g6
S'\x02\x00\x00\x00'
p501
tp502
Rp503
(I58
I93
tp504
tp505
aa(lp506
(g2
(g6
S'\x02\x00\x00\x00'
p507
tp508
Rp509
(I0
I39
tp510
tp511
a(g2
(g6
S'\x02\x00\x00\x00'
p512
tp513
Rp514
(I39
I93
tp515
tp516
aa(lp517
(g2
(g6
S'\x02\x00\x00\x00'
p518
tp519
Rp520
(I0
I39
tp521
tp522
a(g2
(g6
S'\x05\x00\x00\x00'
p523
tp524
Rp525
(I39
I54
tp526
tp527
a(g2
(g6
S'\x02\x00\x00\x00'
p528
tp529
Rp530
(I54
I93
tp531
tp532
aa(lp533
(g2
(g6
S'\x02\x00\x00\x00'
p534
tp535
Rp536
(I0
I39
tp537
tp538
a(g2
(g6
S'\x02\x00\x00\x00'
p539
tp540
Rp541
(I39
I93
tp542
tp543
aa(lp544
(g2
(g6
S'\x02\x00\x00\x00'
p545
tp546
Rp547
(I0
I39
tp548
tp549
a(g2
(g6
S'\x02\x00\x00\x00'
p550
tp551
Rp552
(I39
I93
tp553
tp554
aa(lp555
(g2
(g6
S'\x02\x00\x00\x00'
p556
tp557
Rp558
(I0
I39
tp559
tp560
a(g2
(g6
S'\x05\x00\x00\x00'
p561
tp562
Rp563
(I39
I55
tp564
tp565
a(g2
(g6
S'\x02\x00\x00\x00'
p566
tp567
Rp568
(I55
I93
tp569
tp570
aa(lp571
(g2
(g6
S'\x02\x00\x00\x00'
p572
tp573
Rp574
(I0
I39
tp575
tp576
a(g2
(g6
S'\x05\x00\x00\x00'
p577
tp578
Rp579
(I39
I52
tp580
tp581
a(g2
(g6
S'\x02\x00\x00\x00'
p582
tp583
Rp584
(I52
I93
tp585
tp586
aa(lp587
(g2
(g6
S'\x02\x00\x00\x00'
p588
tp589
Rp590
(I0
I39
tp591
tp592
a(g2
(g6
S'\x02\x00\x00\x00'
p593
tp594
Rp595
(I39
I93
tp596
tp597
aa(lp598
(g2
(g6
S'\x02\x00\x00\x00'
p599
tp600
Rp601
(I0
I39
tp602
tp603
a(g2
(g6
S'\x05\x00\x00\x00'
p604
tp605
Rp606
(I39
I55
tp607
tp608
a(g2
(g6
S'\x02\x00\x00\x00'
p609
tp610
Rp611
(I55
I93
tp612
tp613
aa(lp614
(g2
(g6
S'\x02\x00\x00\x00'
p615
tp616
Rp617
(I0
I39
tp618
tp619
a(g2
(g6
S'\x05\x00\x00\x00'
p620
tp621
Rp622
(I39
I50
tp623
tp624
a(g2
(g6
S'\x02\x00\x00\x00'
p625
tp626
Rp627
(I50
I93
tp628
tp629
aa(lp630
(g2
(g6
S'\x02\x00\x00\x00'
p631
tp632
Rp633
(I0
I39
tp634
tp635
a(g2
(g6
S'\x05\x00\x00\x00'
p636
tp637
Rp638
(I39
I56
tp639
tp640
a(g2
(g6
S'\x02\x00\x00\x00'
p641
tp642
Rp643
(I56
I93
tp644
tp645
aa(lp646
(g2
(g6
S'\x02\x00\x00\x00'
p647
tp648
Rp649
(I0
I39
tp650
tp651
a(g2
(g6
S'\x05\x00\x00\x00'
p652
tp653
Rp654
(I39
I52
tp655
tp656
a(g2
(g6
S'\x02\x00\x00\x00'
p657
tp658
Rp659
(I52
I93
tp660
tp661
aa(lp662
(g2
(g6
S'\x02\x00\x00\x00'
p663
tp664
Rp665
(I0
I39
tp666
tp667
a(g2
(g6
S'\x05\x00\x00\x00'
p668
tp669
Rp670
(I39
I55
tp671
tp672
a(g2
(g6
S'\x02\x00\x00\x00'
p673
tp674
Rp675
(I55
I93
tp676
tp677
aa(lp678
(g2
(g6
S'\x02\x00\x00\x00'
p679
tp680
Rp681
(I0
I39
tp682
tp683
a(g2
(g6
S'\x05\x00\x00\x00'
p684
tp685
Rp686
(I39
I60
tp687
tp688
a(g2
(g6
S'\x02\x00\x00\x00'
p689
tp690
Rp691
(I60
I93
tp692
tp693
aa(lp694
(g2
(g6
S'\x02\x00\x00\x00'
p695
tp696
Rp697
(I0
I39
tp698
tp699
a(g2
(g6
S'\x05\x00\x00\x00'
p700
tp701
Rp702
(I39
I54
tp703
tp704
a(g2
(g6
S'\x02\x00\x00\x00'
p705
tp706
Rp707
(I54
I93
tp708
tp709
aa(lp710
(g2
(g6
S'\x02\x00\x00\x00'
p711
tp712
Rp713
(I0
I39
tp714
tp715
a(g2
(g6
S'\x05\x00\x00\x00'
p716
tp717
Rp718
(I39
I56
tp719
tp720
a(g2
(g6
S'\x02\x00\x00\x00'
p721
tp722
Rp723
(I56
I93
tp724
tp725
aa(lp726
(g2
(g6
S'\x02\x00\x00\x00'
p727
tp728
Rp729
(I0
I39
tp730
tp731
a(g2
(g6
S'\x05\x00\x00\x00'
p732
tp733
Rp734
(I39
I55
tp735
tp736
a(g2
(g6
S'\x02\x00\x00\x00'
p737
tp738
Rp739
(I55
I93
tp740
tp741
aa(lp742
(g2
(g6
S'\x02\x00\x00\x00'
p743
tp744
Rp745
(I0
I39
tp746
tp747
a(g2
(g6
S'\x05\x00\x00\x00'
p748
tp749
Rp750
(I39
I54
tp751
tp752
a(g2
(g6
S'\x02\x00\x00\x00'
p753
tp754
Rp755
(I54
I93
tp756
tp757
aa(lp758
(g2
(g6
S'\x02\x00\x00\x00'
p759
tp760
Rp761
(I0
I39
tp762
tp763
a(g2
(g6
S'\x05\x00\x00\x00'
p764
tp765
Rp766
(I39
I58
tp767
tp768
a(g2
(g6
S'\x02\x00\x00\x00'
p769
tp770
Rp771
(I58
I93
tp772
tp773
aa(lp774
(g2
(g6
S'\x02\x00\x00\x00'
p775
tp776
Rp777
(I0
I39
tp778
tp779
a(g2
(g6
S'\x05\x00\x00\x00'
p780
tp781
Rp782
(I39
I55
tp783
tp784
a(g2
(g6
S'\x02\x00\x00\x00'
p785
tp786
Rp787
(I55
I93
tp788
tp789
aa(lp790
(g2
(g6
S'\x02\x00\x00\x00'
p791
tp792
Rp793
(I0
I39
tp794
tp795
a(g2
(g6
S'\x02\x00\x00\x00'
p796
tp797
Rp798
(I39
I93
tp799
tp800
aa(lp801
(g2
(g6
S'\x02\x00\x00\x00'
p802
tp803
Rp804
(I0
I39
tp805
tp806
a(g2
(g6
S'\x05\x00\x00\x00'
p807
tp808
Rp809
(I39
I55
tp810
tp811
a(g2
(g6
S'\x02\x00\x00\x00'
p812
tp813
Rp814
(I55
I93
tp815
tp816
aa(lp817
(g2
(g6
S'\x02\x00\x00\x00'
p818
tp819
Rp820
(I0
I39
tp821
tp822
a(g2
(g6
S'\x05\x00\x00\x00'
p823
tp824
Rp825
(I39
I55
tp826
tp827
a(g2
(g6
S'\x02\x00\x00\x00'
p828
tp829
Rp830
(I55
I93
tp831
tp832
aa(lp833
(g2
(g6
S'\x02\x00\x00\x00'
p834
tp835
Rp836
(I0
I39
tp837
tp838
a(g2
(g6
S'\x05\x00\x00\x00'
p839
tp840
Rp841
(I39
I56
tp842
tp843
a(g2
(g6
S'\x02\x00\x00\x00'
p844
tp845
Rp846
(I56
I93
tp847
tp848
aa(lp849
(g2
(g6
S'\x02\x00\x00\x00'
p850
tp851
Rp852
(I0
I39
tp853
tp854
a(g2
(g6
S'\x05\x00\x00\x00'
p855
tp856
Rp857
(I39
I58
tp858
tp859
a(g2
(g6
S'\x02\x00\x00\x00'
p860
tp861
Rp862
(I58
I93
tp863
tp864
aa(lp865
(g2
(g6
S'\x02\x00\x00\x00'
p866
tp867
Rp868
(I0
I39
tp869
tp870
a(g2
(g6
S'\x05\x00\x00\x00'
p871
tp872
Rp873
(I39
I61
tp874
tp875
a(g2
(g6
S'\x02\x00\x00\x00'
p876
tp877
Rp878
(I61
I93
tp879
tp880
aa(lp881
(g2
(g6
S'\x02\x00\x00\x00'
p882
tp883
Rp884
(I0
I39
tp885
tp886
a(g2
(g6
S'\x05\x00\x00\x00'
p887
tp888
Rp889
(I39
I54
tp890
tp891
a(g2
(g6
S'\x02\x00\x00\x00'
p892
tp893
Rp894
(I54
I93
tp895
tp896
aa(lp897
(g2
(g6
S'\x02\x00\x00\x00'
p898
tp899
Rp900
(I0
I39
tp901
tp902
a(g2
(g6
S'\x05\x00\x00\x00'
p903
tp904
Rp905
(I39
I49
tp906
tp907
a(g2
(g6
S'\x02\x00\x00\x00'
p908
tp909
Rp910
(I49
I93
tp911
tp912
aa(lp913
(g2
(g6
S'\x02\x00\x00\x00'
p914
tp915
Rp916
(I0
I39
tp917
tp918
a(g2
(g6
S'\x05\x00\x00\x00'
p919
tp920
Rp921
(I39
I54
tp922
tp923
a(g2
(g6
S'\x02\x00\x00\x00'
p924
tp925
Rp926
(I54
I93
tp927
tp928
aa(lp929
(g2
(g6
S'\x02\x00\x00\x00'
p930
tp931
Rp932
(I0
I39
tp933
tp934
a(g2
(g6
S'\x05\x00\x00\x00'
p935
tp936
Rp937
(I39
I54
tp938
tp939
a(g2
(g6
S'\x02\x00\x00\x00'
p940
tp941
Rp942
(I54
I93
tp943
tp944
aa(lp945
(g2
(g6
S'\x02\x00\x00\x00'
p946
tp947
Rp948
(I0
I39
tp949
tp950
a(g2
(g6
S'\x05\x00\x00\x00'
p951
tp952
Rp953
(I39
I55
tp954
tp955
a(g2
(g6
S'\x02\x00\x00\x00'
p956
tp957
Rp958
(I55
I93
tp959
tp960
aa(lp961
(g2
(g6
S'\x02\x00\x00\x00'
p962
tp963
Rp964
(I0
I39
tp965
tp966
a(g2
(g6
S'\x05\x00\x00\x00'
p967
tp968
Rp969
(I39
I57
tp970
tp971
a(g2
(g6
S'\x02\x00\x00\x00'
p972
tp973
Rp974
(I57
I93
tp975
tp976
aa(lp977
(g2
(g6
S'\x02\x00\x00\x00'
p978
tp979
Rp980
(I0
I39
tp981
tp982
a(g2
(g6
S'\x05\x00\x00\x00'
p983
tp984
Rp985
(I39
I56
tp986
tp987
a(g2
(g6
S'\x02\x00\x00\x00'
p988
tp989
Rp990
(I56
I93
tp991
tp992
aa(lp993
(g2
(g6
S'\x02\x00\x00\x00'
p994
tp995
Rp996
(I0
I39
tp997
tp998
a(g2
(g6
S'\x05\x00\x00\x00'
p999
tp1000
Rp1001
(I39
I58
tp1002
tp1003
a(g2
(g6
S'\x02\x00\x00\x00'
p1004
tp1005
Rp1006
(I58
I93
tp1007
tp1008
aa(lp1009
(g2
(g6
S'\x02\x00\x00\x00'
p1010
tp1011
Rp1012
(I0
I39
tp1013
tp1014
a(g2
(g6
S'\x05\x00\x00\x00'
p1015
tp1016
Rp1017
(I39
I56
tp1018
tp1019
a(g2
(g6
S'\x02\x00\x00\x00'
p1020
tp1021
Rp1022
(I56
I93
tp1023
tp1024
aa(lp1025
(g2
(g6
S'\x02\x00\x00\x00'
p1026
tp1027
Rp1028
(I0
I39
tp1029
tp1030
a(g2
(g6
S'\x05\x00\x00\x00'
p1031
tp1032
Rp1033
(I39
I57
tp1034
tp1035
a(g2
(g6
S'\x02\x00\x00\x00'
p1036
tp1037
Rp1038
(I57
I93
tp1039
tp1040
aa(lp1041
(g2
(g6
S'\x02\x00\x00\x00'
p1042
tp1043
Rp1044
(I0
I39
tp1045
tp1046
a(g2
(g6
S'\x05\x00\x00\x00'
p1047
tp1048
Rp1049
(I39
I59
tp1050
tp1051
a(g2
(g6
S'\x02\x00\x00\x00'
p1052
tp1053
Rp1054
(I59
I93
tp1055
tp1056
aa(lp1057
(g2
(g6
S'\x02\x00\x00\x00'
p1058
tp1059
Rp1060
(I0
I39
tp1061
tp1062
a(g2
(g6
S'\x05\x00\x00\x00'
p1063
tp1064
Rp1065
(I39
I53
tp1066
tp1067
a(g2
(g6
S'\x02\x00\x00\x00'
p1068
tp1069
Rp1070
(I53
I93
tp1071
tp1072
aa(lp1073
(g2
(g6
S'\x02\x00\x00\x00'
p1074
tp1075
Rp1076
(I0
I39
tp1077
tp1078
a(g2
(g6
S'\x05\x00\x00\x00'
p1079
tp1080
Rp1081
(I39
I57
tp1082
tp1083
a(g2
(g6
S'\x02\x00\x00\x00'
p1084
tp1085
Rp1086
(I57
I93
tp1087
tp1088
aa(lp1089
(g2
(g6
S'\x02\x00\x00\x00'
p1090
tp1091
Rp1092
(I0
I39
tp1093
tp1094
a(g2
(g6
S'\x05\x00\x00\x00'
p1095
tp1096
Rp1097
(I39
I58
tp1098
tp1099
a(g2
(g6
S'\x02\x00\x00\x00'
p1100
tp1101
Rp1102
(I58
I93
tp1103
tp1104
aa(lp1105
(g2
(g6
S'\x02\x00\x00\x00'
p1106
tp1107
Rp1108
(I0
I39
tp1109
tp1110
a(g2
(g6
S'\x05\x00\x00\x00'
p1111
tp1112
Rp1113
(I39
I52
tp1114
tp1115
a(g2
(g6
S'\x02\x00\x00\x00'
p1116
tp1117
Rp1118
(I52
I93
tp1119
tp1120
aa(lp1121
(g2
(g6
S'\x02\x00\x00\x00'
p1122
tp1123
Rp1124
(I0
I39
tp1125
tp1126
a(g2
(g6
S'\x05\x00\x00\x00'
p1127
tp1128
Rp1129
(I39
I56
tp1130
tp1131
a(g2
(g6
S'\x02\x00\x00\x00'
p1132
tp1133
Rp1134
(I56
I93
tp1135
tp1136
aa(lp1137
(g2
(g6
S'\x02\x00\x00\x00'
p1138
tp1139
Rp1140
(I0
I39
tp1141
tp1142
a(g2
(g6
S'\x05\x00\x00\x00'
p1143
tp1144
Rp1145
(I39
I55
tp1146
tp1147
a(g2
(g6
S'\x02\x00\x00\x00'
p1148
tp1149
Rp1150
(I55
I93
tp1151
tp1152
aa(lp1153
(g2
(g6
S'\x02\x00\x00\x00'
p1154
tp1155
Rp1156
(I0
I39
tp1157
tp1158
a(g2
(g6
S'\x05\x00\x00\x00'
p1159
tp1160
Rp1161
(I39
I58
tp1162
tp1163
a(g2
(g6
S'\x02\x00\x00\x00'
p1164
tp1165
Rp1166
(I58
I93
tp1167
tp1168
aa(lp1169
(g2
(g6
S'\x02\x00\x00\x00'
p1170
tp1171
Rp1172
(I0
I39
tp1173
tp1174
a(g2
(g6
S'\x05\x00\x00\x00'
p1175
tp1176
Rp1177
(I39
I57
tp1178
tp1179
a(g2
(g6
S'\x02\x00\x00\x00'
p1180
tp1181
Rp1182
(I57
I93
tp1183
tp1184
aa(lp1185
(g2
(g6
S'\x02\x00\x00\x00'
p1186
tp1187
Rp1188
(I0
I39
tp1189
tp1190
a(g2
(g6
S'\x02\x00\x00\x00'
p1191
tp1192
Rp1193
(I39
I93
tp1194
tp1195
aa(lp1196
(g2
(g6
S'\x02\x00\x00\x00'
p1197
tp1198
Rp1199
(I0
I39
tp1200
tp1201
a(g2
(g6
S'\x05\x00\x00\x00'
p1202
tp1203
Rp1204
(I39
I58
tp1205
tp1206
a(g2
(g6
S'\x02\x00\x00\x00'
p1207
tp1208
Rp1209
(I58
I93
tp1210
tp1211
aa(lp1212
(g2
(g6
S'\x02\x00\x00\x00'
p1213
tp1214
Rp1215
(I0
I39
tp1216
tp1217
a(g2
(g6
S'\x05\x00\x00\x00'
p1218
tp1219
Rp1220
(I39
I59
tp1221
tp1222
a(g2
(g6
S'\x02\x00\x00\x00'
p1223
tp1224
Rp1225
(I59
I93
tp1226
tp1227
aa(lp1228
(g2
(g6
S'\x02\x00\x00\x00'
p1229
tp1230
Rp1231
(I0
I39
tp1232
tp1233
a(g2
(g6
S'\x05\x00\x00\x00'
p1234
tp1235
Rp1236
(I39
I57
tp1237
tp1238
a(g2
(g6
S'\x02\x00\x00\x00'
p1239
tp1240
Rp1241
(I57
I93
tp1242
tp1243
aa(lp1244
(g2
(g6
S'\x02\x00\x00\x00'
p1245
tp1246
Rp1247
(I0
I39
tp1248
tp1249
a(g2
(g6
S'\x05\x00\x00\x00'
p1250
tp1251
Rp1252
(I39
I52
tp1253
tp1254
a(g2
(g6
S'\x02\x00\x00\x00'
p1255
tp1256
Rp1257
(I52
I93
tp1258
tp1259
aa(lp1260
(g2
(g6
S'\x02\x00\x00\x00'
p1261
tp1262
Rp1263
(I0
I39
tp1264
tp1265
a(g2
(g6
S'\x05\x00\x00\x00'
p1266
tp1267
Rp1268
(I39
I54
tp1269
tp1270
a(g2
(g6
S'\x02\x00\x00\x00'
p1271
tp1272
Rp1273
(I54
I93
tp1274
tp1275
aa(lp1276
(g2
(g6
S'\x02\x00\x00\x00'
p1277
tp1278
Rp1279
(I0
I38
tp1280
tp1281
a(g2
(g6
S'\x04\x00\x00\x00'
p1282
tp1283
Rp1284
(I38
I62
tp1285
tp1286
a(g2
(g6
S'\x02\x00\x00\x00'
p1287
tp1288
Rp1289
(I62
I93
tp1290
tp1291
aa(lp1292
(g2
(g6
S'\x02\x00\x00\x00'
p1293
tp1294
Rp1295
(I0
I37
tp1296
tp1297
a(g2
(g6
S'\x04\x00\x00\x00'
p1298
tp1299
Rp1300
(I37
I69
tp1301
tp1302
a(g2
(g6
S'\x02\x00\x00\x00'
p1303
tp1304
Rp1305
(I69
I93
tp1306
tp1307
aa(lp1308
(g2
(g6
S'\x05\x00\x00\x00'
p1309
tp1310
Rp1311
(I0
I15
tp1312
tp1313
a(g2
(g6
S'\x00\x00\x00\x00'
p1314
tp1315
Rp1316
(I15
I59
tp1317
tp1318
a(g2
(g6
S'\x02\x00\x00\x00'
p1319
tp1320
Rp1321
(I59
I93
tp1322
tp1323
aa(lp1324
(g2
(g6
S'\x05\x00\x00\x00'
p1325
tp1326
Rp1327
(I0
I14
tp1328
tp1329
a(g2
(g6
S'\x00\x00\x00\x00'
p1330
tp1331
Rp1332
(I14
I60
tp1333
tp1334
a(g2
(g6
S'\x02\x00\x00\x00'
p1335
tp1336
Rp1337
(I60
I93
tp1338
tp1339
aa(lp1340
(g2
(g6
S'\x05\x00\x00\x00'
p1341
tp1342
Rp1343
(I0
I15
tp1344
tp1345
a(g2
(g6
S'\x00\x00\x00\x00'
p1346
tp1347
Rp1348
(I15
I59
tp1349
tp1350
a(g2
(g6
S'\x02\x00\x00\x00'
p1351
tp1352
Rp1353
(I59
I93
tp1354
tp1355
aa(lp1356
(g2
(g6
S'\x05\x00\x00\x00'
p1357
tp1358
Rp1359
(I0
I15
tp1360
tp1361
a(g2
(g6
S'\x00\x00\x00\x00'
p1362
tp1363
Rp1364
(I15
I60
tp1365
tp1366
a(g2
(g6
S'\x02\x00\x00\x00'
p1367
tp1368
Rp1369
(I60
I93
tp1370
tp1371
aa(lp1372
(g2
(g6
S'\x05\x00\x00\x00'
p1373
tp1374
Rp1375
(I0
I15
tp1376
tp1377
a(g2
(g6
S'\x00\x00\x00\x00'
p1378
tp1379
Rp1380
(I15
I60
tp1381
tp1382
a(g2
(g6
S'\x02\x00\x00\x00'
p1383
tp1384
Rp1385
(I60
I93
tp1386
tp1387
aa(lp1388
(g2
(g6
S'\x05\x00\x00\x00'
p1389
tp1390
Rp1391
(I0
I15
tp1392
tp1393
a(g2
(g6
S'\x00\x00\x00\x00'
p1394
tp1395
Rp1396
(I15
I60
tp1397
tp1398
a(g2
(g6
S'\x02\x00\x00\x00'
p1399
tp1400
Rp1401
(I60
I93
tp1402
tp1403
aa(lp1404
(g2
(g6
S'\x05\x00\x00\x00'
p1405
tp1406
Rp1407
(I0
I14
tp1408
tp1409
a(g2
(g6
S'\x00\x00\x00\x00'
p1410
tp1411
Rp1412
(I14
I60
tp1413
tp1414
a(g2
(g6
S'\x02\x00\x00\x00'
p1415
tp1416
Rp1417
(I60
I93
tp1418
tp1419
aa(lp1420
(g2
(g6
S'\x05\x00\x00\x00'
p1421
tp1422
Rp1423
(I0
I14
tp1424
tp1425
a(g2
(g6
S'\x00\x00\x00\x00'
p1426
tp1427
Rp1428
(I14
I61
tp1429
tp1430
a(g2
(g6
S'\x02\x00\x00\x00'
p1431
tp1432
Rp1433
(I61
I93
tp1434
tp1435
aa(lp1436
(g2
(g6
S'\x05\x00\x00\x00'
p1437
tp1438
Rp1439
(I0
I14
tp1440
tp1441
a(g2
(g6
S'\x00\x00\x00\x00'
p1442
tp1443
Rp1444
(I14
I60
tp1445
tp1446
a(g2
(g6
S'\x02\x00\x00\x00'
p1447
tp1448
Rp1449
(I60
I93
tp1450
tp1451
aa(lp1452
(g2
(g6
S'\x05\x00\x00\x00'
p1453
tp1454
Rp1455
(I0
I14
tp1456
tp1457
a(g2
(g6
S'\x00\x00\x00\x00'
p1458
tp1459
Rp1460
(I14
I61
tp1461
tp1462
a(g2
(g6
S'\x02\x00\x00\x00'
p1463
tp1464
Rp1465
(I61
I93
tp1466
tp1467
aa(lp1468
(g2
(g6
S'\x05\x00\x00\x00'
p1469
tp1470
Rp1471
(I0
I14
tp1472
tp1473
a(g2
(g6
S'\x00\x00\x00\x00'
p1474
tp1475
Rp1476
(I14
I60
tp1477
tp1478
a(g2
(g6
S'\x02\x00\x00\x00'
p1479
tp1480
Rp1481
(I60
I93
tp1482
tp1483
aa(lp1484
(g2
(g6
S'\x05\x00\x00\x00'
p1485
tp1486
Rp1487
(I0
I13
tp1488
tp1489
a(g2
(g6
S'\x00\x00\x00\x00'
p1490
tp1491
Rp1492
(I13
I60
tp1493
tp1494
a(g2
(g6
S'\x02\x00\x00\x00'
p1495
tp1496
Rp1497
(I60
I93
tp1498
tp1499
aa(lp1500
(g2
(g6
S'\x05\x00\x00\x00'
p1501
tp1502
Rp1503
(I0
I13
tp1504
tp1505
a(g2
(g6
S'\x00\x00\x00\x00'
p1506
tp1507
Rp1508
(I13
I60
tp1509
tp1510
a(g2
(g6
S'\x02\x00\x00\x00'
p1511
tp1512
Rp1513
(I60
I93
tp1514
tp1515
aa(lp1516
(g2
(g6
S'\x05\x00\x00\x00'
p1517
tp1518
Rp1519
(I0
I14
tp1520
tp1521
a(g2
(g6
S'\x00\x00\x00\x00'
p1522
tp1523
Rp1524
(I14
I60
tp1525
tp1526
a(g2
(g6
S'\x02\x00\x00\x00'
p1527
tp1528
Rp1529
(I60
I93
tp1530
tp1531
aa(lp1532
(g2
(g6
S'\x05\x00\x00\x00'
p1533
tp1534
Rp1535
(I0
I14
tp1536
tp1537
a(g2
(g6
S'\x00\x00\x00\x00'
p1538
tp1539
Rp1540
(I14
I60
tp1541
tp1542
a(g2
(g6
S'\x02\x00\x00\x00'
p1543
tp1544
Rp1545
(I60
I93
tp1546
tp1547
aa.