(lp0
(lp1
(cnumpy.core.multiarray
scalar
p2
(cnumpy
dtype
p3
(S'i4'
p4
I0
I1
tp5
Rp6
(I3
S'<'
p7
NNNI-1
I-1
I0
tp8
bS'\x01\x00\x00\x00'
p9
tp10
Rp11
(I0
I42
tp12
tp13
a(g2
(g6
S'\x01\x00\x00\x00'
p14
tp15
Rp16
(I42
I100
tp17
tp18
a(g2
(g6
S'\x01\x00\x00\x00'
p19
tp20
Rp21
(I100
I120
tp22
tp23
aa(lp24
(g2
(g6
S'\x01\x00\x00\x00'
p25
tp26
Rp27
(I0
I42
tp28
tp29
a(g2
(g6
S'\x01\x00\x00\x00'
p30
tp31
Rp32
(I42
I100
tp33
tp34
a(g2
(g6
S'\x04\x00\x00\x00'
p35
tp36
Rp37
(I100
I120
tp38
tp39
aa(lp40
(g2
(g6
S'\x02\x00\x00\x00'
p41
tp42
Rp43
(I0
I43
tp44
tp45
a(g2
(g6
S'\x02\x00\x00\x00'
p46
tp47
Rp48
(I43
I100
tp49
tp50
a(g2
(g6
S'\x05\x00\x00\x00'
p51
tp52
Rp53
(I100
I120
tp54
tp55
aa(lp56
(g2
(g6
S'\x02\x00\x00\x00'
p57
tp58
Rp59
(I0
I43
tp60
tp61
a(g2
(g6
S'\x02\x00\x00\x00'
p62
tp63
Rp64
(I43
I100
tp65
tp66
a(g2
(g6
S'\x05\x00\x00\x00'
p67
tp68
Rp69
(I100
I120
tp70
tp71
aa(lp72
(g2
(g6
S'\x02\x00\x00\x00'
p73
tp74
Rp75
(I0
I43
tp76
tp77
a(g2
(g6
S'\x05\x00\x00\x00'
p78
tp79
Rp80
(I43
I59
tp81
tp82
a(g2
(g6
S'\x02\x00\x00\x00'
p83
tp84
Rp85
(I59
I100
tp86
tp87
a(g2
(g6
S'\x05\x00\x00\x00'
p88
tp89
Rp90
(I100
I120
tp91
tp92
aa(lp93
(g2
(g6
S'\x02\x00\x00\x00'
p94
tp95
Rp96
(I0
I42
tp97
tp98
a(g2
(g6
S'\x05\x00\x00\x00'
p99
tp100
Rp101
(I42
I65
tp102
tp103
a(g2
(g6
S'\x02\x00\x00\x00'
p104
tp105
Rp106
(I65
I100
tp107
tp108
a(g2
(g6
S'\x05\x00\x00\x00'
p109
tp110
Rp111
(I100
I120
tp112
tp113
aa(lp114
(g2
(g6
S'\x02\x00\x00\x00'
p115
tp116
Rp117
(I0
I43
tp118
tp119
a(g2
(g6
S'\x05\x00\x00\x00'
p120
tp121
Rp122
(I43
I64
tp123
tp124
a(g2
(g6
S'\x02\x00\x00\x00'
p125
tp126
Rp127
(I64
I100
tp128
tp129
a(g2
(g6
S'\x05\x00\x00\x00'
p130
tp131
Rp132
(I100
I120
tp133
tp134
aa(lp135
(g2
(g6
S'\x02\x00\x00\x00'
p136
tp137
Rp138
(I0
I43
tp139
tp140
a(g2
(g6
S'\x05\x00\x00\x00'
p141
tp142
Rp143
(I43
I60
tp144
tp145
a(g2
(g6
S'\x02\x00\x00\x00'
p146
tp147
Rp148
(I60
I100
tp149
tp150
a(g2
(g6
S'\x05\x00\x00\x00'
p151
tp152
Rp153
(I100
I120
tp154
tp155
aa(lp156
(g2
(g6
S'\x02\x00\x00\x00'
p157
tp158
Rp159
(I0
I43
tp160
tp161
a(g2
(g6
S'\x05\x00\x00\x00'
p162
tp163
Rp164
(I43
I64
tp165
tp166
a(g2
(g6
S'\x02\x00\x00\x00'
p167
tp168
Rp169
(I64
I100
tp170
tp171
a(g2
(g6
S'\x05\x00\x00\x00'
p172
tp173
Rp174
(I100
I120
tp175
tp176
aa(lp177
(g2
(g6
S'\x02\x00\x00\x00'
p178
tp179
Rp180
(I0
I42
tp181
tp182
a(g2
(g6
S'\x05\x00\x00\x00'
p183
tp184
Rp185
(I42
I59
tp186
tp187
a(g2
(g6
S'\x02\x00\x00\x00'
p188
tp189
Rp190
(I59
I100
tp191
tp192
a(g2
(g6
S'\x05\x00\x00\x00'
p193
tp194
Rp195
(I100
I120
tp196
tp197
aa(lp198
(g2
(g6
S'\x02\x00\x00\x00'
p199
tp200
Rp201
(I0
I42
tp202
tp203
a(g2
(g6
S'\x05\x00\x00\x00'
p204
tp205
Rp206
(I42
I62
tp207
tp208
a(g2
(g6
S'\x02\x00\x00\x00'
p209
tp210
Rp211
(I62
I100
tp212
tp213
a(g2
(g6
S'\x05\x00\x00\x00'
p214
tp215
Rp216
(I100
I120
tp217
tp218
aa(lp219
(g2
(g6
S'\x02\x00\x00\x00'
p220
tp221
Rp222
(I0
I42
tp223
tp224
a(g2
(g6
S'\x05\x00\x00\x00'
p225
tp226
Rp227
(I42
I61
tp228
tp229
a(g2
(g6
S'\x02\x00\x00\x00'
p230
tp231
Rp232
(I61
I100
tp233
tp234
a(g2
(g6
S'\x05\x00\x00\x00'
p235
tp236
Rp237
(I100
I120
tp238
tp239
aa(lp240
(g2
(g6
S'\x02\x00\x00\x00'
p241
tp242
Rp243
(I0
I43
tp244
tp245
a(g2
(g6
S'\x05\x00\x00\x00'
p246
tp247
Rp248
(I43
I60
tp249
tp250
a(g2
(g6
S'\x02\x00\x00\x00'
p251
tp252
Rp253
(I60
I100
tp254
tp255
a(g2
(g6
S'\x05\x00\x00\x00'
p256
tp257
Rp258
(I100
I120
tp259
tp260
aa(lp261
(g2
(g6
S'\x02\x00\x00\x00'
p262
tp263
Rp264
(I0
I43
tp265
tp266
a(g2
(g6
S'\x05\x00\x00\x00'
p267
tp268
Rp269
(I43
I63
tp270
tp271
a(g2
(g6
S'\x02\x00\x00\x00'
p272
tp273
Rp274
(I63
I100
tp275
tp276
a(g2
(g6
S'\x05\x00\x00\x00'
p277
tp278
Rp279
(I100
I120
tp280
tp281
aa(lp282
(g2
(g6
S'\x02\x00\x00\x00'
p283
tp284
Rp285
(I0
I43
tp286
tp287
a(g2
(g6
S'\x05\x00\x00\x00'
p288
tp289
Rp290
(I43
I59
tp291
tp292
a(g2
(g6
S'\x02\x00\x00\x00'
p293
tp294
Rp295
(I59
I101
tp296
tp297
a(g2
(g6
S'\x05\x00\x00\x00'
p298
tp299
Rp300
(I101
I120
tp301
tp302
aa(lp303
(g2
(g6
S'\x02\x00\x00\x00'
p304
tp305
Rp306
(I0
I43
tp307
tp308
a(g2
(g6
S'\x05\x00\x00\x00'
p309
tp310
Rp311
(I43
I61
tp312
tp313
a(g2
(g6
S'\x02\x00\x00\x00'
p314
tp315
Rp316
(I61
I100
tp317
tp318
a(g2
(g6
S'\x05\x00\x00\x00'
p319
tp320
Rp321
(I100
I120
tp322
tp323
aa(lp324
(g2
(g6
S'\x02\x00\x00\x00'
p325
tp326
Rp327
(I0
I43
tp328
tp329
a(g2
(g6
S'\x05\x00\x00\x00'
p330
tp331
Rp332
(I43
I61
tp333
tp334
a(g2
(g6
S'\x02\x00\x00\x00'
p335
tp336
Rp337
(I61
I101
tp338
tp339
a(g2
(g6
S'\x05\x00\x00\x00'
p340
tp341
Rp342
(I101
I120
tp343
tp344
aa(lp345
(g2
(g6
S'\x02\x00\x00\x00'
p346
tp347
Rp348
(I0
I43
tp349
tp350
a(g2
(g6
S'\x05\x00\x00\x00'
p351
tp352
Rp353
(I43
I61
tp354
tp355
a(g2
(g6
S'\x02\x00\x00\x00'
p356
tp357
Rp358
(I61
I100
tp359
tp360
a(g2
(g6
S'\x05\x00\x00\x00'
p361
tp362
Rp363
(I100
I120
tp364
tp365
aa(lp366
(g2
(g6
S'\x02\x00\x00\x00'
p367
tp368
Rp369
(I0
I43
tp370
tp371
a(g2
(g6
S'\x05\x00\x00\x00'
p372
tp373
Rp374
(I43
I58
tp375
tp376
a(g2
(g6
S'\x02\x00\x00\x00'
p377
tp378
Rp379
(I58
I100
tp380
tp381
a(g2
(g6
S'\x05\x00\x00\x00'
p382
tp383
Rp384
(I100
I120
tp385
tp386
aa(lp387
(g2
(g6
S'\x02\x00\x00\x00'
p388
tp389
Rp390
(I0
I43
tp391
tp392
a(g2
(g6
S'\x05\x00\x00\x00'
p393
tp394
Rp395
(I43
I60
tp396
tp397
a(g2
(g6
S'\x02\x00\x00\x00'
p398
tp399
Rp400
(I60
I100
tp401
tp402
a(g2
(g6
S'\x05\x00\x00\x00'
p403
tp404
Rp405
(I100
I120
tp406
tp407
aa(lp408
(g2
(g6
S'\x02\x00\x00\x00'
p409
tp410
Rp411
(I0
I43
tp412
tp413
a(g2
(g6
S'\x05\x00\x00\x00'
p414
tp415
Rp416
(I43
I62
tp417
tp418
a(g2
(g6
S'\x02\x00\x00\x00'
p419
tp420
Rp421
(I62
I101
tp422
tp423
a(g2
(g6
S'\x05\x00\x00\x00'
p424
tp425
Rp426
(I101
I120
tp427
tp428
aa(lp429
(g2
(g6
S'\x02\x00\x00\x00'
p430
tp431
Rp432
(I0
I43
tp433
tp434
a(g2
(g6
S'\x05\x00\x00\x00'
p435
tp436
Rp437
(I43
I61
tp438
tp439
a(g2
(g6
S'\x02\x00\x00\x00'
p440
tp441
Rp442
(I61
I101
tp443
tp444
a(g2
(g6
S'\x05\x00\x00\x00'
p445
tp446
Rp447
(I101
I120
tp448
tp449
aa(lp450
(g2
(g6
S'\x02\x00\x00\x00'
p451
tp452
Rp453
(I0
I43
tp454
tp455
a(g2
(g6
S'\x05\x00\x00\x00'
p456
tp457
Rp458
(I43
I59
tp459
tp460
a(g2
(g6
S'\x02\x00\x00\x00'
p461
tp462
Rp463
(I59
I100
tp464
tp465
a(g2
(g6
S'\x05\x00\x00\x00'
p466
tp467
Rp468
(I100
I120
tp469
tp470
aa(lp471
(g2
(g6
S'\x02\x00\x00\x00'
p472
tp473
Rp474
(I0
I43
tp475
tp476
a(g2
(g6
S'\x05\x00\x00\x00'
p477
tp478
Rp479
(I43
I55
tp480
tp481
a(g2
(g6
S'\x02\x00\x00\x00'
p482
tp483
Rp484
(I55
I101
tp485
tp486
a(g2
(g6
S'\x05\x00\x00\x00'
p487
tp488
Rp489
(I101
I120
tp490
tp491
aa(lp492
(g2
(g6
S'\x02\x00\x00\x00'
p493
tp494
Rp495
(I0
I43
tp496
tp497
a(g2
(g6
S'\x05\x00\x00\x00'
p498
tp499
Rp500
(I43
I59
tp501
tp502
a(g2
(g6
S'\x02\x00\x00\x00'
p503
tp504
Rp505
(I59
I100
tp506
tp507
a(g2
(g6
S'\x05\x00\x00\x00'
p508
tp509
Rp510
(I100
I120
tp511
tp512
aa(lp513
(g2
(g6
S'\x02\x00\x00\x00'
p514
tp515
Rp516
(I0
I43
tp517
tp518
a(g2
(g6
S'\x05\x00\x00\x00'
p519
tp520
Rp521
(I43
I61
tp522
tp523
a(g2
(g6
S'\x02\x00\x00\x00'
p524
tp525
Rp526
(I61
I101
tp527
tp528
a(g2
(g6
S'\x05\x00\x00\x00'
p529
tp530
Rp531
(I101
I120
tp532
tp533
aa(lp534
(g2
(g6
S'\x02\x00\x00\x00'
p535
tp536
Rp537
(I0
I43
tp538
tp539
a(g2
(g6
S'\x05\x00\x00\x00'
p540
tp541
Rp542
(I43
I58
tp543
tp544
a(g2
(g6
S'\x02\x00\x00\x00'
p545
tp546
Rp547
(I58
I101
tp548
tp549
a(g2
(g6
S'\x05\x00\x00\x00'
p550
tp551
Rp552
(I101
I120
tp553
tp554
aa(lp555
(g2
(g6
S'\x02\x00\x00\x00'
p556
tp557
Rp558
(I0
I43
tp559
tp560
a(g2
(g6
S'\x05\x00\x00\x00'
p561
tp562
Rp563
(I43
I60
tp564
tp565
a(g2
(g6
S'\x02\x00\x00\x00'
p566
tp567
Rp568
(I60
I100
tp569
tp570
a(g2
(g6
S'\x05\x00\x00\x00'
p571
tp572
Rp573
(I100
I120
tp574
tp575
aa(lp576
(g2
(g6
S'\x02\x00\x00\x00'
p577
tp578
Rp579
(I0
I42
tp580
tp581
a(g2
(g6
S'\x05\x00\x00\x00'
p582
tp583
Rp584
(I42
I57
tp585
tp586
a(g2
(g6
S'\x02\x00\x00\x00'
p587
tp588
Rp589
(I57
I100
tp590
tp591
a(g2
(g6
S'\x05\x00\x00\x00'
p592
tp593
Rp594
(I100
I120
tp595
tp596
aa(lp597
(g2
(g6
S'\x02\x00\x00\x00'
p598
tp599
Rp600
(I0
I42
tp601
tp602
a(g2
(g6
S'\x05\x00\x00\x00'
p603
tp604
Rp605
(I42
I57
tp606
tp607
a(g2
(g6
S'\x02\x00\x00\x00'
p608
tp609
Rp610
(I57
I100
tp611
tp612
a(g2
(g6
S'\x05\x00\x00\x00'
p613
tp614
Rp615
(I100
I120
tp616
tp617
aa(lp618
(g2
(g6
S'\x02\x00\x00\x00'
p619
tp620
Rp621
(I0
I43
tp622
tp623
a(g2
(g6
S'\x05\x00\x00\x00'
p624
tp625
Rp626
(I43
I65
tp627
tp628
a(g2
(g6
S'\x02\x00\x00\x00'
p629
tp630
Rp631
(I65
I100
tp632
tp633
a(g2
(g6
S'\x05\x00\x00\x00'
p634
tp635
Rp636
(I100
I120
tp637
tp638
aa(lp639
(g2
(g6
S'\x02\x00\x00\x00'
p640
tp641
Rp642
(I0
I43
tp643
tp644
a(g2
(g6
S'\x05\x00\x00\x00'
p645
tp646
Rp647
(I43
I60
tp648
tp649
a(g2
(g6
S'\x02\x00\x00\x00'
p650
tp651
Rp652
(I60
I101
tp653
tp654
a(g2
(g6
S'\x05\x00\x00\x00'
p655
tp656
Rp657
(I101
I120
tp658
tp659
aa(lp660
(g2
(g6
S'\x02\x00\x00\x00'
p661
tp662
Rp663
(I0
I43
tp664
tp665
a(g2
(g6
S'\x05\x00\x00\x00'
p666
tp667
Rp668
(I43
I60
tp669
tp670
a(g2
(g6
S'\x02\x00\x00\x00'
p671
tp672
Rp673
(I60
I101
tp674
tp675
a(g2
(g6
S'\x05\x00\x00\x00'
p676
tp677
Rp678
(I101
I120
tp679
tp680
aa(lp681
(g2
(g6
S'\x02\x00\x00\x00'
p682
tp683
Rp684
(I0
I42
tp685
tp686
a(g2
(g6
S'\x05\x00\x00\x00'
p687
tp688
Rp689
(I42
I61
tp690
tp691
a(g2
(g6
S'\x02\x00\x00\x00'
p692
tp693
Rp694
(I61
I100
tp695
tp696
a(g2
(g6
S'\x05\x00\x00\x00'
p697
tp698
Rp699
(I100
I120
tp700
tp701
aa(lp702
(g2
(g6
S'\x02\x00\x00\x00'
p703
tp704
Rp705
(I0
I43
tp706
tp707
a(g2
(g6
S'\x05\x00\x00\x00'
p708
tp709
Rp710
(I43
I60
tp711
tp712
a(g2
(g6
S'\x02\x00\x00\x00'
p713
tp714
Rp715
(I60
I100
tp716
tp717
a(g2
(g6
S'\x05\x00\x00\x00'
p718
tp719
Rp720
(I100
I120
tp721
tp722
aa(lp723
(g2
(g6
S'\x02\x00\x00\x00'
p724
tp725
Rp726
(I0
I43
tp727
tp728
a(g2
(g6
S'\x05\x00\x00\x00'
p729
tp730
Rp731
(I43
I63
tp732
tp733
a(g2
(g6
S'\x02\x00\x00\x00'
p734
tp735
Rp736
(I63
I101
tp737
tp738
a(g2
(g6
S'\x05\x00\x00\x00'
p739
tp740
Rp741
(I101
I120
tp742
tp743
aa(lp744
(g2
(g6
S'\x02\x00\x00\x00'
p745
tp746
Rp747
(I0
I43
tp748
tp749
a(g2
(g6
S'\x05\x00\x00\x00'
p750
tp751
Rp752
(I43
I62
tp753
tp754
a(g2
(g6
S'\x02\x00\x00\x00'
p755
tp756
Rp757
(I62
I101
tp758
tp759
a(g2
(g6
S'\x05\x00\x00\x00'
p760
tp761
Rp762
(I101
I120
tp763
tp764
aa(lp765
(g2
(g6
S'\x02\x00\x00\x00'
p766
tp767
Rp768
(I0
I43
tp769
tp770
a(g2
(g6
S'\x05\x00\x00\x00'
p771
tp772
Rp773
(I43
I59
tp774
tp775
a(g2
(g6
S'\x02\x00\x00\x00'
p776
tp777
Rp778
(I59
I100
tp779
tp780
a(g2
(g6
S'\x05\x00\x00\x00'
p781
tp782
Rp783
(I100
I120
tp784
tp785
aa(lp786
(g2
(g6
S'\x02\x00\x00\x00'
p787
tp788
Rp789
(I0
I43
tp790
tp791
a(g2
(g6
S'\x05\x00\x00\x00'
p792
tp793
Rp794
(I43
I58
tp795
tp796
a(g2
(g6
S'\x02\x00\x00\x00'
p797
tp798
Rp799
(I58
I101
tp800
tp801
a(g2
(g6
S'\x05\x00\x00\x00'
p802
tp803
Rp804
(I101
I120
tp805
tp806
aa(lp807
(g2
(g6
S'\x02\x00\x00\x00'
p808
tp809
Rp810
(I0
I43
tp811
tp812
a(g2
(g6
S'\x05\x00\x00\x00'
p813
tp814
Rp815
(I43
I62
tp816
tp817
a(g2
(g6
S'\x02\x00\x00\x00'
p818
tp819
Rp820
(I62
I100
tp821
tp822
a(g2
(g6
S'\x05\x00\x00\x00'
p823
tp824
Rp825
(I100
I120
tp826
tp827
aa(lp828
(g2
(g6
S'\x02\x00\x00\x00'
p829
tp830
Rp831
(I0
I43
tp832
tp833
a(g2
(g6
S'\x05\x00\x00\x00'
p834
tp835
Rp836
(I43
I61
tp837
tp838
a(g2
(g6
S'\x02\x00\x00\x00'
p839
tp840
Rp841
(I61
I100
tp842
tp843
a(g2
(g6
S'\x05\x00\x00\x00'
p844
tp845
Rp846
(I100
I120
tp847
tp848
aa(lp849
(g2
(g6
S'\x02\x00\x00\x00'
p850
tp851
Rp852
(I0
I42
tp853
tp854
a(g2
(g6
S'\x05\x00\x00\x00'
p855
tp856
Rp857
(I42
I58
tp858
tp859
a(g2
(g6
S'\x02\x00\x00\x00'
p860
tp861
Rp862
(I58
I100
tp863
tp864
a(g2
(g6
S'\x05\x00\x00\x00'
p865
tp866
Rp867
(I100
I120
tp868
tp869
aa(lp870
(g2
(g6
S'\x02\x00\x00\x00'
p871
tp872
Rp873
(I0
I43
tp874
tp875
a(g2
(g6
S'\x05\x00\x00\x00'
p876
tp877
Rp878
(I43
I58
tp879
tp880
a(g2
(g6
S'\x02\x00\x00\x00'
p881
tp882
Rp883
(I58
I100
tp884
tp885
a(g2
(g6
S'\x05\x00\x00\x00'
p886
tp887
Rp888
(I100
I120
tp889
tp890
aa(lp891
(g2
(g6
S'\x02\x00\x00\x00'
p892
tp893
Rp894
(I0
I43
tp895
tp896
a(g2
(g6
S'\x05\x00\x00\x00'
p897
tp898
Rp899
(I43
I57
tp900
tp901
a(g2
(g6
S'\x02\x00\x00\x00'
p902
tp903
Rp904
(I57
I100
tp905
tp906
a(g2
(g6
S'\x05\x00\x00\x00'
p907
tp908
Rp909
(I100
I120
tp910
tp911
aa(lp912
(g2
(g6
S'\x02\x00\x00\x00'
p913
tp914
Rp915
(I0
I43
tp916
tp917
a(g2
(g6
S'\x05\x00\x00\x00'
p918
tp919
Rp920
(I43
I57
tp921
tp922
a(g2
(g6
S'\x02\x00\x00\x00'
p923
tp924
Rp925
(I57
I100
tp926
tp927
a(g2
(g6
S'\x05\x00\x00\x00'
p928
tp929
Rp930
(I100
I120
tp931
tp932
aa(lp933
(g2
(g6
S'\x02\x00\x00\x00'
p934
tp935
Rp936
(I0
I43
tp937
tp938
a(g2
(g6
S'\x05\x00\x00\x00'
p939
tp940
Rp941
(I43
I57
tp942
tp943
a(g2
(g6
S'\x02\x00\x00\x00'
p944
tp945
Rp946
(I57
I100
tp947
tp948
a(g2
(g6
S'\x05\x00\x00\x00'
p949
tp950
Rp951
(I100
I120
tp952
tp953
aa(lp954
(g2
(g6
S'\x02\x00\x00\x00'
p955
tp956
Rp957
(I0
I43
tp958
tp959
a(g2
(g6
S'\x05\x00\x00\x00'
p960
tp961
Rp962
(I43
I60
tp963
tp964
a(g2
(g6
S'\x02\x00\x00\x00'
p965
tp966
Rp967
(I60
I100
tp968
tp969
a(g2
(g6
S'\x05\x00\x00\x00'
p970
tp971
Rp972
(I100
I120
tp973
tp974
aa(lp975
(g2
(g6
S'\x02\x00\x00\x00'
p976
tp977
Rp978
(I0
I43
tp979
tp980
a(g2
(g6
S'\x02\x00\x00\x00'
p981
tp982
Rp983
(I43
I101
tp984
tp985
a(g2
(g6
S'\x05\x00\x00\x00'
p986
tp987
Rp988
(I101
I120
tp989
tp990
aa(lp991
(g2
(g6
S'\x02\x00\x00\x00'
p992
tp993
Rp994
(I0
I43
tp995
tp996
a(g2
(g6
S'\x05\x00\x00\x00'
p997
tp998
Rp999
(I43
I60
tp1000
tp1001
a(g2
(g6
S'\x02\x00\x00\x00'
p1002
tp1003
Rp1004
(I60
I101
tp1005
tp1006
a(g2
(g6
S'\x05\x00\x00\x00'
p1007
tp1008
Rp1009
(I101
I120
tp1010
tp1011
aa(lp1012
(g2
(g6
S'\x02\x00\x00\x00'
p1013
tp1014
Rp1015
(I0
I43
tp1016
tp1017
a(g2
(g6
S'\x05\x00\x00\x00'
p1018
tp1019
Rp1020
(I43
I63
tp1021
tp1022
a(g2
(g6
S'\x02\x00\x00\x00'
p1023
tp1024
Rp1025
(I63
I101
tp1026
tp1027
a(g2
(g6
S'\x05\x00\x00\x00'
p1028
tp1029
Rp1030
(I101
I120
tp1031
tp1032
aa(lp1033
(g2
(g6
S'\x02\x00\x00\x00'
p1034
tp1035
Rp1036
(I0
I43
tp1037
tp1038
a(g2
(g6
S'\x05\x00\x00\x00'
p1039
tp1040
Rp1041
(I43
I59
tp1042
tp1043
a(g2
(g6
S'\x02\x00\x00\x00'
p1044
tp1045
Rp1046
(I59
I101
tp1047
tp1048
a(g2
(g6
S'\x05\x00\x00\x00'
p1049
tp1050
Rp1051
(I101
I120
tp1052
tp1053
aa(lp1054
(g2
(g6
S'\x02\x00\x00\x00'
p1055
tp1056
Rp1057
(I0
I43
tp1058
tp1059
a(g2
(g6
S'\x05\x00\x00\x00'
p1060
tp1061
Rp1062
(I43
I65
tp1063
tp1064
a(g2
(g6
S'\x02\x00\x00\x00'
p1065
tp1066
Rp1067
(I65
I100
tp1068
tp1069
a(g2
(g6
S'\x05\x00\x00\x00'
p1070
tp1071
Rp1072
(I100
I120
tp1073
tp1074
aa(lp1075
(g2
(g6
S'\x02\x00\x00\x00'
p1076
tp1077
Rp1078
(I0
I43
tp1079
tp1080
a(g2
(g6
S'\x05\x00\x00\x00'
p1081
tp1082
Rp1083
(I43
I61
tp1084
tp1085
a(g2
(g6
S'\x02\x00\x00\x00'
p1086
tp1087
Rp1088
(I61
I101
tp1089
tp1090
a(g2
(g6
S'\x05\x00\x00\x00'
p1091
tp1092
Rp1093
(I101
I120
tp1094
tp1095
aa(lp1096
(g2
(g6
S'\x02\x00\x00\x00'
p1097
tp1098
Rp1099
(I0
I43
tp1100
tp1101
a(g2
(g6
S'\x05\x00\x00\x00'
p1102
tp1103
Rp1104
(I43
I60
tp1105
tp1106
a(g2
(g6
S'\x02\x00\x00\x00'
p1107
tp1108
Rp1109
(I60
I101
tp1110
tp1111
a(g2
(g6
S'\x05\x00\x00\x00'
p1112
tp1113
Rp1114
(I101
I120
tp1115
tp1116
aa(lp1117
(g2
(g6
S'\x02\x00\x00\x00'
p1118
tp1119
Rp1120
(I0
I43
tp1121
tp1122
a(g2
(g6
S'\x05\x00\x00\x00'
p1123
tp1124
Rp1125
(I43
I61
tp1126
tp1127
a(g2
(g6
S'\x02\x00\x00\x00'
p1128
tp1129
Rp1130
(I61
I101
tp1131
tp1132
a(g2
(g6
S'\x05\x00\x00\x00'
p1133
tp1134
Rp1135
(I101
I120
tp1136
tp1137
aa(lp1138
(g2
(g6
S'\x02\x00\x00\x00'
p1139
tp1140
Rp1141
(I0
I43
tp1142
tp1143
a(g2
(g6
S'\x05\x00\x00\x00'
p1144
tp1145
Rp1146
(I43
I60
tp1147
tp1148
a(g2
(g6
S'\x02\x00\x00\x00'
p1149
tp1150
Rp1151
(I60
I100
tp1152
tp1153
a(g2
(g6
S'\x05\x00\x00\x00'
p1154
tp1155
Rp1156
(I100
I120
tp1157
tp1158
aa(lp1159
(g2
(g6
S'\x02\x00\x00\x00'
p1160
tp1161
Rp1162
(I0
I43
tp1163
tp1164
a(g2
(g6
S'\x05\x00\x00\x00'
p1165
tp1166
Rp1167
(I43
I62
tp1168
tp1169
a(g2
(g6
S'\x02\x00\x00\x00'
p1170
tp1171
Rp1172
(I62
I100
tp1173
tp1174
a(g2
(g6
S'\x05\x00\x00\x00'
p1175
tp1176
Rp1177
(I100
I120
tp1178
tp1179
aa(lp1180
(g2
(g6
S'\x02\x00\x00\x00'
p1181
tp1182
Rp1183
(I0
I43
tp1184
tp1185
a(g2
(g6
S'\x05\x00\x00\x00'
p1186
tp1187
Rp1188
(I43
I64
tp1189
tp1190
a(g2
(g6
S'\x02\x00\x00\x00'
p1191
tp1192
Rp1193
(I64
I100
tp1194
tp1195
a(g2
(g6
S'\x05\x00\x00\x00'
p1196
tp1197
Rp1198
(I100
I120
tp1199
tp1200
aa(lp1201
(g2
(g6
S'\x02\x00\x00\x00'
p1202
tp1203
Rp1204
(I0
I43
tp1205
tp1206
a(g2
(g6
S'\x05\x00\x00\x00'
p1207
tp1208
Rp1209
(I43
I64
tp1210
tp1211
a(g2
(g6
S'\x02\x00\x00\x00'
p1212
tp1213
Rp1214
(I64
I100
tp1215
tp1216
a(g2
(g6
S'\x05\x00\x00\x00'
p1217
tp1218
Rp1219
(I100
I120
tp1220
tp1221
aa(lp1222
(g2
(g6
S'\x02\x00\x00\x00'
p1223
tp1224
Rp1225
(I0
I43
tp1226
tp1227
a(g2
(g6
S'\x05\x00\x00\x00'
p1228
tp1229
Rp1230
(I43
I60
tp1231
tp1232
a(g2
(g6
S'\x02\x00\x00\x00'
p1233
tp1234
Rp1235
(I60
I101
tp1236
tp1237
a(g2
(g6
S'\x05\x00\x00\x00'
p1238
tp1239
Rp1240
(I101
I120
tp1241
tp1242
aa(lp1243
(g2
(g6
S'\x02\x00\x00\x00'
p1244
tp1245
Rp1246
(I0
I43
tp1247
tp1248
a(g2
(g6
S'\x05\x00\x00\x00'
p1249
tp1250
Rp1251
(I43
I60
tp1252
tp1253
a(g2
(g6
S'\x02\x00\x00\x00'
p1254
tp1255
Rp1256
(I60
I100
tp1257
tp1258
a(g2
(g6
S'\x05\x00\x00\x00'
p1259
tp1260
Rp1261
(I100
I120
tp1262
tp1263
aa(lp1264
(g2
(g6
S'\x02\x00\x00\x00'
p1265
tp1266
Rp1267
(I0
I43
tp1268
tp1269
a(g2
(g6
S'\x05\x00\x00\x00'
p1270
tp1271
Rp1272
(I43
I60
tp1273
tp1274
a(g2
(g6
S'\x02\x00\x00\x00'
p1275
tp1276
Rp1277
(I60
I101
tp1278
tp1279
a(g2
(g6
S'\x05\x00\x00\x00'
p1280
tp1281
Rp1282
(I101
I120
tp1283
tp1284
aa(lp1285
(g2
(g6
S'\x02\x00\x00\x00'
p1286
tp1287
Rp1288
(I0
I43
tp1289
tp1290
a(g2
(g6
S'\x05\x00\x00\x00'
p1291
tp1292
Rp1293
(I43
I58
tp1294
tp1295
a(g2
(g6
S'\x02\x00\x00\x00'
p1296
tp1297
Rp1298
(I58
I101
tp1299
tp1300
a(g2
(g6
S'\x05\x00\x00\x00'
p1301
tp1302
Rp1303
(I101
I120
tp1304
tp1305
aa(lp1306
(g2
(g6
S'\x02\x00\x00\x00'
p1307
tp1308
Rp1309
(I0
I43
tp1310
tp1311
a(g2
(g6
S'\x05\x00\x00\x00'
p1312
tp1313
Rp1314
(I43
I59
tp1315
tp1316
a(g2
(g6
S'\x02\x00\x00\x00'
p1317
tp1318
Rp1319
(I59
I100
tp1320
tp1321
a(g2
(g6
S'\x05\x00\x00\x00'
p1322
tp1323
Rp1324
(I100
I120
tp1325
tp1326
aa(lp1327
(g2
(g6
S'\x02\x00\x00\x00'
p1328
tp1329
Rp1330
(I0
I43
tp1331
tp1332
a(g2
(g6
S'\x05\x00\x00\x00'
p1333
tp1334
Rp1335
(I43
I54
tp1336
tp1337
a(g2
(g6
S'\x02\x00\x00\x00'
p1338
tp1339
Rp1340
(I54
I101
tp1341
tp1342
a(g2
(g6
S'\x05\x00\x00\x00'
p1343
tp1344
Rp1345
(I101
I120
tp1346
tp1347
aa(lp1348
(g2
(g6
S'\x02\x00\x00\x00'
p1349
tp1350
Rp1351
(I0
I43
tp1352
tp1353
a(g2
(g6
S'\x05\x00\x00\x00'
p1354
tp1355
Rp1356
(I43
I60
tp1357
tp1358
a(g2
(g6
S'\x02\x00\x00\x00'
p1359
tp1360
Rp1361
(I60
I101
tp1362
tp1363
a(g2
(g6
S'\x05\x00\x00\x00'
p1364
tp1365
Rp1366
(I101
I120
tp1367
tp1368
aa(lp1369
(g2
(g6
S'\x02\x00\x00\x00'
p1370
tp1371
Rp1372
(I0
I43
tp1373
tp1374
a(g2
(g6
S'\x05\x00\x00\x00'
p1375
tp1376
Rp1377
(I43
I63
tp1378
tp1379
a(g2
(g6
S'\x02\x00\x00\x00'
p1380
tp1381
Rp1382
(I63
I100
tp1383
tp1384
a(g2
(g6
S'\x05\x00\x00\x00'
p1385
tp1386
Rp1387
(I100
I120
tp1388
tp1389
aa(lp1390
(g2
(g6
S'\x02\x00\x00\x00'
p1391
tp1392
Rp1393
(I0
I43
tp1394
tp1395
a(g2
(g6
S'\x05\x00\x00\x00'
p1396
tp1397
Rp1398
(I43
I61
tp1399
tp1400
a(g2
(g6
S'\x02\x00\x00\x00'
p1401
tp1402
Rp1403
(I61
I100
tp1404
tp1405
a(g2
(g6
S'\x05\x00\x00\x00'
p1406
tp1407
Rp1408
(I100
I120
tp1409
tp1410
aa(lp1411
(g2
(g6
S'\x02\x00\x00\x00'
p1412
tp1413
Rp1414
(I0
I43
tp1415
tp1416
a(g2
(g6
S'\x05\x00\x00\x00'
p1417
tp1418
Rp1419
(I43
I58
tp1420
tp1421
a(g2
(g6
S'\x02\x00\x00\x00'
p1422
tp1423
Rp1424
(I58
I100
tp1425
tp1426
a(g2
(g6
S'\x05\x00\x00\x00'
p1427
tp1428
Rp1429
(I100
I120
tp1430
tp1431
aa(lp1432
(g2
(g6
S'\x02\x00\x00\x00'
p1433
tp1434
Rp1435
(I0
I43
tp1436
tp1437
a(g2
(g6
S'\x05\x00\x00\x00'
p1438
tp1439
Rp1440
(I43
I61
tp1441
tp1442
a(g2
(g6
S'\x02\x00\x00\x00'
p1443
tp1444
Rp1445
(I61
I101
tp1446
tp1447
a(g2
(g6
S'\x05\x00\x00\x00'
p1448
tp1449
Rp1450
(I101
I120
tp1451
tp1452
aa(lp1453
(g2
(g6
S'\x02\x00\x00\x00'
p1454
tp1455
Rp1456
(I0
I43
tp1457
tp1458
a(g2
(g6
S'\x05\x00\x00\x00'
p1459
tp1460
Rp1461
(I43
I60
tp1462
tp1463
a(g2
(g6
S'\x02\x00\x00\x00'
p1464
tp1465
Rp1466
(I60
I101
tp1467
tp1468
a(g2
(g6
S'\x05\x00\x00\x00'
p1469
tp1470
Rp1471
(I101
I120
tp1472
tp1473
aa(lp1474
(g2
(g6
S'\x02\x00\x00\x00'
p1475
tp1476
Rp1477
(I0
I43
tp1478
tp1479
a(g2
(g6
S'\x05\x00\x00\x00'
p1480
tp1481
Rp1482
(I43
I60
tp1483
tp1484
a(g2
(g6
S'\x02\x00\x00\x00'
p1485
tp1486
Rp1487
(I60
I100
tp1488
tp1489
a(g2
(g6
S'\x05\x00\x00\x00'
p1490
tp1491
Rp1492
(I100
I120
tp1493
tp1494
aa(lp1495
(g2
(g6
S'\x02\x00\x00\x00'
p1496
tp1497
Rp1498
(I0
I43
tp1499
tp1500
a(g2
(g6
S'\x05\x00\x00\x00'
p1501
tp1502
Rp1503
(I43
I61
tp1504
tp1505
a(g2
(g6
S'\x02\x00\x00\x00'
p1506
tp1507
Rp1508
(I61
I101
tp1509
tp1510
a(g2
(g6
S'\x05\x00\x00\x00'
p1511
tp1512
Rp1513
(I101
I120
tp1514
tp1515
aa(lp1516
(g2
(g6
S'\x02\x00\x00\x00'
p1517
tp1518
Rp1519
(I0
I43
tp1520
tp1521
a(g2
(g6
S'\x05\x00\x00\x00'
p1522
tp1523
Rp1524
(I43
I59
tp1525
tp1526
a(g2
(g6
S'\x02\x00\x00\x00'
p1527
tp1528
Rp1529
(I59
I100
tp1530
tp1531
a(g2
(g6
S'\x05\x00\x00\x00'
p1532
tp1533
Rp1534
(I100
I120
tp1535
tp1536
aa(lp1537
(g2
(g6
S'\x02\x00\x00\x00'
p1538
tp1539
Rp1540
(I0
I43
tp1541
tp1542
a(g2
(g6
S'\x05\x00\x00\x00'
p1543
tp1544
Rp1545
(I43
I61
tp1546
tp1547
a(g2
(g6
S'\x02\x00\x00\x00'
p1548
tp1549
Rp1550
(I61
I100
tp1551
tp1552
a(g2
(g6
S'\x05\x00\x00\x00'
p1553
tp1554
Rp1555
(I100
I120
tp1556
tp1557
aa(lp1558
(g2
(g6
S'\x02\x00\x00\x00'
p1559
tp1560
Rp1561
(I0
I43
tp1562
tp1563
a(g2
(g6
S'\x05\x00\x00\x00'
p1564
tp1565
Rp1566
(I43
I59
tp1567
tp1568
a(g2
(g6
S'\x02\x00\x00\x00'
p1569
tp1570
Rp1571
(I59
I100
tp1572
tp1573
a(g2
(g6
S'\x05\x00\x00\x00'
p1574
tp1575
Rp1576
(I100
I120
tp1577
tp1578
aa(lp1579
(g2
(g6
S'\x02\x00\x00\x00'
p1580
tp1581
Rp1582
(I0
I43
tp1583
tp1584
a(g2
(g6
S'\x02\x00\x00\x00'
p1585
tp1586
Rp1587
(I43
I101
tp1588
tp1589
a(g2
(g6
S'\x05\x00\x00\x00'
p1590
tp1591
Rp1592
(I101
I120
tp1593
tp1594
aa(lp1595
(g2
(g6
S'\x02\x00\x00\x00'
p1596
tp1597
Rp1598
(I0
I43
tp1599
tp1600
a(g2
(g6
S'\x05\x00\x00\x00'
p1601
tp1602
Rp1603
(I43
I64
tp1604
tp1605
a(g2
(g6
S'\x02\x00\x00\x00'
p1606
tp1607
Rp1608
(I64
I100
tp1609
tp1610
a(g2
(g6
S'\x05\x00\x00\x00'
p1611
tp1612
Rp1613
(I100
I120
tp1614
tp1615
aa(lp1616
(g2
(g6
S'\x02\x00\x00\x00'
p1617
tp1618
Rp1619
(I0
I43
tp1620
tp1621
a(g2
(g6
S'\x05\x00\x00\x00'
p1622
tp1623
Rp1624
(I43
I60
tp1625
tp1626
a(g2
(g6
S'\x02\x00\x00\x00'
p1627
tp1628
Rp1629
(I60
I100
tp1630
tp1631
a(g2
(g6
S'\x05\x00\x00\x00'
p1632
tp1633
Rp1634
(I100
I120
tp1635
tp1636
aa(lp1637
(g2
(g6
S'\x02\x00\x00\x00'
p1638
tp1639
Rp1640
(I0
I43
tp1641
tp1642
a(g2
(g6
S'\x05\x00\x00\x00'
p1643
tp1644
Rp1645
(I43
I63
tp1646
tp1647
a(g2
(g6
S'\x02\x00\x00\x00'
p1648
tp1649
Rp1650
(I63
I101
tp1651
tp1652
a(g2
(g6
S'\x05\x00\x00\x00'
p1653
tp1654
Rp1655
(I101
I120
tp1656
tp1657
aa(lp1658
(g2
(g6
S'\x02\x00\x00\x00'
p1659
tp1660
Rp1661
(I0
I43
tp1662
tp1663
a(g2
(g6
S'\x05\x00\x00\x00'
p1664
tp1665
Rp1666
(I43
I61
tp1667
tp1668
a(g2
(g6
S'\x02\x00\x00\x00'
p1669
tp1670
Rp1671
(I61
I100
tp1672
tp1673
a(g2
(g6
S'\x05\x00\x00\x00'
p1674
tp1675
Rp1676
(I100
I120
tp1677
tp1678
aa(lp1679
(g2
(g6
S'\x02\x00\x00\x00'
p1680
tp1681
Rp1682
(I0
I43
tp1683
tp1684
a(g2
(g6
S'\x05\x00\x00\x00'
p1685
tp1686
Rp1687
(I43
I60
tp1688
tp1689
a(g2
(g6
S'\x02\x00\x00\x00'
p1690
tp1691
Rp1692
(I60
I101
tp1693
tp1694
a(g2
(g6
S'\x05\x00\x00\x00'
p1695
tp1696
Rp1697
(I101
I120
tp1698
tp1699
aa(lp1700
(g2
(g6
S'\x02\x00\x00\x00'
p1701
tp1702
Rp1703
(I0
I42
tp1704
tp1705
a(g2
(g6
S'\x04\x00\x00\x00'
p1706
tp1707
Rp1708
(I42
I78
tp1709
tp1710
a(g2
(g6
S'\x00\x00\x00\x00'
p1711
tp1712
Rp1713
(I78
I120
tp1714
tp1715
aa(lp1716
(g2
(g6
S'\x02\x00\x00\x00'
p1717
tp1718
Rp1719
(I0
I41
tp1720
tp1721
a(g2
(g6
S'\x04\x00\x00\x00'
p1722
tp1723
Rp1724
(I41
I80
tp1725
tp1726
a(g2
(g6
S'\x00\x00\x00\x00'
p1727
tp1728
Rp1729
(I80
I120
tp1730
tp1731
aa(lp1732
(g2
(g6
S'\x02\x00\x00\x00'
p1733
tp1734
Rp1735
(I0
I41
tp1736
tp1737
a(g2
(g6
S'\x04\x00\x00\x00'
p1738
tp1739
Rp1740
(I41
I80
tp1741
tp1742
a(g2
(g6
S'\x00\x00\x00\x00'
p1743
tp1744
Rp1745
(I80
I120
tp1746
tp1747
aa(lp1748
(g2
(g6
S'\x02\x00\x00\x00'
p1749
tp1750
Rp1751
(I0
I42
tp1752
tp1753
a(g2
(g6
S'\x04\x00\x00\x00'
p1754
tp1755
Rp1756
(I42
I80
tp1757
tp1758
a(g2
(g6
S'\x00\x00\x00\x00'
p1759
tp1760
Rp1761
(I80
I120
tp1762
tp1763
aa(lp1764
(g2
(g6
S'\x02\x00\x00\x00'
p1765
tp1766
Rp1767
(I0
I42
tp1768
tp1769
a(g2
(g6
S'\x04\x00\x00\x00'
p1770
tp1771
Rp1772
(I42
I80
tp1773
tp1774
a(g2
(g6
S'\x00\x00\x00\x00'
p1775
tp1776
Rp1777
(I80
I120
tp1778
tp1779
aa(lp1780
(g2
(g6
S'\x02\x00\x00\x00'
p1781
tp1782
Rp1783
(I0
I41
tp1784
tp1785
a(g2
(g6
S'\x04\x00\x00\x00'
p1786
tp1787
Rp1788
(I41
I80
tp1789
tp1790
a(g2
(g6
S'\x00\x00\x00\x00'
p1791
tp1792
Rp1793
(I80
I120
tp1794
tp1795
aa(lp1796
(g2
(g6
S'\x02\x00\x00\x00'
p1797
tp1798
Rp1799
(I0
I42
tp1800
tp1801
a(g2
(g6
S'\x04\x00\x00\x00'
p1802
tp1803
Rp1804
(I42
I80
tp1805
tp1806
a(g2
(g6
S'\x00\x00\x00\x00'
p1807
tp1808
Rp1809
(I80
I120
tp1810
tp1811
aa(lp1812
(g2
(g6
S'\x02\x00\x00\x00'
p1813
tp1814
Rp1815
(I0
I41
tp1816
tp1817
a(g2
(g6
S'\x04\x00\x00\x00'
p1818
tp1819
Rp1820
(I41
I80
tp1821
tp1822
a(g2
(g6
S'\x00\x00\x00\x00'
p1823
tp1824
Rp1825
(I80
I120
tp1826
tp1827
aa(lp1828
(g2
(g6
S'\x02\x00\x00\x00'
p1829
tp1830
Rp1831
(I0
I41
tp1832
tp1833
a(g2
(g6
S'\x04\x00\x00\x00'
p1834
tp1835
Rp1836
(I41
I80
tp1837
tp1838
a(g2
(g6
S'\x00\x00\x00\x00'
p1839
tp1840
Rp1841
(I80
I120
tp1842
tp1843
aa(lp1844
(g2
(g6
S'\x02\x00\x00\x00'
p1845
tp1846
Rp1847
(I0
I42
tp1848
tp1849
a(g2
(g6
S'\x04\x00\x00\x00'
p1850
tp1851
Rp1852
(I42
I80
tp1853
tp1854
a(g2
(g6
S'\x00\x00\x00\x00'
p1855
tp1856
Rp1857
(I80
I120
tp1858
tp1859
aa(lp1860
(g2
(g6
S'\x02\x00\x00\x00'
p1861
tp1862
Rp1863
(I0
I42
tp1864
tp1865
a(g2
(g6
S'\x04\x00\x00\x00'
p1866
tp1867
Rp1868
(I42
I80
tp1869
tp1870
a(g2
(g6
S'\x00\x00\x00\x00'
p1871
tp1872
Rp1873
(I80
I120
tp1874
tp1875
aa(lp1876
(g2
(g6
S'\x02\x00\x00\x00'
p1877
tp1878
Rp1879
(I0
I42
tp1880
tp1881
a(g2
(g6
S'\x04\x00\x00\x00'
p1882
tp1883
Rp1884
(I42
I80
tp1885
tp1886
a(g2
(g6
S'\x00\x00\x00\x00'
p1887
tp1888
Rp1889
(I80
I120
tp1890
tp1891
aa(lp1892
(g2
(g6
S'\x02\x00\x00\x00'
p1893
tp1894
Rp1895
(I0
I42
tp1896
tp1897
a(g2
(g6
S'\x04\x00\x00\x00'
p1898
tp1899
Rp1900
(I42
I79
tp1901
tp1902
a(g2
(g6
S'\x00\x00\x00\x00'
p1903
tp1904
Rp1905
(I79
I120
tp1906
tp1907
aa(lp1908
(g2
(g6
S'\x02\x00\x00\x00'
p1909
tp1910
Rp1911
(I0
I42
tp1912
tp1913
a(g2
(g6
S'\x04\x00\x00\x00'
p1914
tp1915
Rp1916
(I42
I80
tp1917
tp1918
a(g2
(g6
S'\x00\x00\x00\x00'
p1919
tp1920
Rp1921
(I80
I120
tp1922
tp1923
aa(lp1924
(g2
(g6
S'\x02\x00\x00\x00'
p1925
tp1926
Rp1927
(I0
I42
tp1928
tp1929
a(g2
(g6
S'\x04\x00\x00\x00'
p1930
tp1931
Rp1932
(I42
I80
tp1933
tp1934
a(g2
(g6
S'\x00\x00\x00\x00'
p1935
tp1936
Rp1937
(I80
I120
tp1938
tp1939
aa(lp1940
(g2
(g6
S'\x02\x00\x00\x00'
p1941
tp1942
Rp1943
(I0
I42
tp1944
tp1945
a(g2
(g6
S'\x04\x00\x00\x00'
p1946
tp1947
Rp1948
(I42
I80
tp1949
tp1950
a(g2
(g6
S'\x00\x00\x00\x00'
p1951
tp1952
Rp1953
(I80
I120
tp1954
tp1955
aa(lp1956
(g2
(g6
S'\x02\x00\x00\x00'
p1957
tp1958
Rp1959
(I0
I42
tp1960
tp1961
a(g2
(g6
S'\x04\x00\x00\x00'
p1962
tp1963
Rp1964
(I42
I80
tp1965
tp1966
a(g2
(g6
S'\x00\x00\x00\x00'
p1967
tp1968
Rp1969
(I80
I120
tp1970
tp1971
aa(lp1972
(g2
(g6
S'\x02\x00\x00\x00'
p1973
tp1974
Rp1975
(I0
I42
tp1976
tp1977
a(g2
(g6
S'\x04\x00\x00\x00'
p1978
tp1979
Rp1980
(I42
I80
tp1981
tp1982
a(g2
(g6
S'\x00\x00\x00\x00'
p1983
tp1984
Rp1985
(I80
I120
tp1986
tp1987
aa.