(lp0
(lp1
(cnumpy.core.multiarray
scalar
p2
(cnumpy
dtype
p3
(S'i4'
p4
I0
I1
tp5
Rp6
(I3
S'<'
p7
NNNI-1
I-1
I0
tp8
bS'\x01\x00\x00\x00'
p9
tp10
Rp11
(I0
I53
tp12
tp13
a(g2
(g6
S'\x01\x00\x00\x00'
p14
tp15
Rp16
(I53
I112
tp17
tp18
a(g2
(g6
S'\x01\x00\x00\x00'
p19
tp20
Rp21
(I112
I129
tp22
tp23
aa(lp24
(g2
(g6
S'\x01\x00\x00\x00'
p25
tp26
Rp27
(I0
I55
tp28
tp29
a(g2
(g6
S'\x01\x00\x00\x00'
p30
tp31
Rp32
(I55
I111
tp33
tp34
a(g2
(g6
S'\x04\x00\x00\x00'
p35
tp36
Rp37
(I111
I129
tp38
tp39
aa(lp40
(g2
(g6
S'\x01\x00\x00\x00'
p41
tp42
Rp43
(I0
I55
tp44
tp45
a(g2
(g6
S'\x04\x00\x00\x00'
p46
tp47
Rp48
(I55
I85
tp49
tp50
a(g2
(g6
S'\x02\x00\x00\x00'
p51
tp52
Rp53
(I85
I112
tp54
tp55
a(g2
(g6
S'\x05\x00\x00\x00'
p56
tp57
Rp58
(I112
I129
tp59
tp60
aa(lp61
(g2
(g6
S'\x01\x00\x00\x00'
p62
tp63
Rp64
(I0
I54
tp65
tp66
a(g2
(g6
S'\x04\x00\x00\x00'
p67
tp68
Rp69
(I54
I87
tp70
tp71
a(g2
(g6
S'\x02\x00\x00\x00'
p72
tp73
Rp74
(I87
I113
tp75
tp76
a(g2
(g6
S'\x05\x00\x00\x00'
p77
tp78
Rp79
(I113
I129
tp80
tp81
aa(lp82
(g2
(g6
S'\x01\x00\x00\x00'
p83
tp84
Rp85
(I0
I55
tp86
tp87
a(g2
(g6
S'\x04\x00\x00\x00'
p88
tp89
Rp90
(I55
I85
tp91
tp92
a(g2
(g6
S'\x02\x00\x00\x00'
p93
tp94
Rp95
(I85
I113
tp96
tp97
a(g2
(g6
S'\x05\x00\x00\x00'
p98
tp99
Rp100
(I113
I129
tp101
tp102
aa(lp103
(g2
(g6
S'\x01\x00\x00\x00'
p104
tp105
Rp106
(I0
I54
tp107
tp108
a(g2
(g6
S'\x04\x00\x00\x00'
p109
tp110
Rp111
(I54
I86
tp112
tp113
a(g2
(g6
S'\x02\x00\x00\x00'
p114
tp115
Rp116
(I86
I113
tp117
tp118
a(g2
(g6
S'\x05\x00\x00\x00'
p119
tp120
Rp121
(I113
I129
tp122
tp123
aa(lp124
(g2
(g6
S'\x01\x00\x00\x00'
p125
tp126
Rp127
(I0
I55
tp128
tp129
a(g2
(g6
S'\x04\x00\x00\x00'
p130
tp131
Rp132
(I55
I86
tp133
tp134
a(g2
(g6
S'\x02\x00\x00\x00'
p135
tp136
Rp137
(I86
I114
tp138
tp139
a(g2
(g6
S'\x05\x00\x00\x00'
p140
tp141
Rp142
(I114
I129
tp143
tp144
aa(lp145
(g2
(g6
S'\x01\x00\x00\x00'
p146
tp147
Rp148
(I0
I55
tp149
tp150
a(g2
(g6
S'\x04\x00\x00\x00'
p151
tp152
Rp153
(I55
I86
tp154
tp155
a(g2
(g6
S'\x02\x00\x00\x00'
p156
tp157
Rp158
(I86
I114
tp159
tp160
a(g2
(g6
S'\x05\x00\x00\x00'
p161
tp162
Rp163
(I114
I129
tp164
tp165
aa(lp166
(g2
(g6
S'\x01\x00\x00\x00'
p167
tp168
Rp169
(I0
I55
tp170
tp171
a(g2
(g6
S'\x04\x00\x00\x00'
p172
tp173
Rp174
(I55
I87
tp175
tp176
a(g2
(g6
S'\x02\x00\x00\x00'
p177
tp178
Rp179
(I87
I113
tp180
tp181
a(g2
(g6
S'\x05\x00\x00\x00'
p182
tp183
Rp184
(I113
I129
tp185
tp186
aa(lp187
(g2
(g6
S'\x01\x00\x00\x00'
p188
tp189
Rp190
(I0
I55
tp191
tp192
a(g2
(g6
S'\x04\x00\x00\x00'
p193
tp194
Rp195
(I55
I88
tp196
tp197
a(g2
(g6
S'\x02\x00\x00\x00'
p198
tp199
Rp200
(I88
I114
tp201
tp202
a(g2
(g6
S'\x05\x00\x00\x00'
p203
tp204
Rp205
(I114
I129
tp206
tp207
aa(lp208
(g2
(g6
S'\x01\x00\x00\x00'
p209
tp210
Rp211
(I0
I54
tp212
tp213
a(g2
(g6
S'\x04\x00\x00\x00'
p214
tp215
Rp216
(I54
I86
tp217
tp218
a(g2
(g6
S'\x02\x00\x00\x00'
p219
tp220
Rp221
(I86
I113
tp222
tp223
a(g2
(g6
S'\x05\x00\x00\x00'
p224
tp225
Rp226
(I113
I129
tp227
tp228
aa(lp229
(g2
(g6
S'\x01\x00\x00\x00'
p230
tp231
Rp232
(I0
I55
tp233
tp234
a(g2
(g6
S'\x04\x00\x00\x00'
p235
tp236
Rp237
(I55
I88
tp238
tp239
a(g2
(g6
S'\x02\x00\x00\x00'
p240
tp241
Rp242
(I88
I113
tp243
tp244
a(g2
(g6
S'\x05\x00\x00\x00'
p245
tp246
Rp247
(I113
I129
tp248
tp249
aa(lp250
(g2
(g6
S'\x01\x00\x00\x00'
p251
tp252
Rp253
(I0
I55
tp254
tp255
a(g2
(g6
S'\x04\x00\x00\x00'
p256
tp257
Rp258
(I55
I83
tp259
tp260
a(g2
(g6
S'\x02\x00\x00\x00'
p261
tp262
Rp263
(I83
I113
tp264
tp265
a(g2
(g6
S'\x05\x00\x00\x00'
p266
tp267
Rp268
(I113
I129
tp269
tp270
aa(lp271
(g2
(g6
S'\x01\x00\x00\x00'
p272
tp273
Rp274
(I0
I55
tp275
tp276
a(g2
(g6
S'\x04\x00\x00\x00'
p277
tp278
Rp279
(I55
I85
tp280
tp281
a(g2
(g6
S'\x02\x00\x00\x00'
p282
tp283
Rp284
(I85
I114
tp285
tp286
a(g2
(g6
S'\x05\x00\x00\x00'
p287
tp288
Rp289
(I114
I129
tp290
tp291
aa(lp292
(g2
(g6
S'\x01\x00\x00\x00'
p293
tp294
Rp295
(I0
I54
tp296
tp297
a(g2
(g6
S'\x04\x00\x00\x00'
p298
tp299
Rp300
(I54
I84
tp301
tp302
a(g2
(g6
S'\x02\x00\x00\x00'
p303
tp304
Rp305
(I84
I114
tp306
tp307
a(g2
(g6
S'\x05\x00\x00\x00'
p308
tp309
Rp310
(I114
I129
tp311
tp312
aa(lp313
(g2
(g6
S'\x01\x00\x00\x00'
p314
tp315
Rp316
(I0
I54
tp317
tp318
a(g2
(g6
S'\x04\x00\x00\x00'
p319
tp320
Rp321
(I54
I87
tp322
tp323
a(g2
(g6
S'\x02\x00\x00\x00'
p324
tp325
Rp326
(I87
I114
tp327
tp328
a(g2
(g6
S'\x05\x00\x00\x00'
p329
tp330
Rp331
(I114
I129
tp332
tp333
aa(lp334
(g2
(g6
S'\x01\x00\x00\x00'
p335
tp336
Rp337
(I0
I54
tp338
tp339
a(g2
(g6
S'\x06\x00\x00\x00'
p340
tp341
Rp342
(I54
I79
tp343
tp344
a(g2
(g6
S'\x02\x00\x00\x00'
p345
tp346
Rp347
(I79
I114
tp348
tp349
a(g2
(g6
S'\x05\x00\x00\x00'
p350
tp351
Rp352
(I114
I129
tp353
tp354
aa(lp355
(g2
(g6
S'\x01\x00\x00\x00'
p356
tp357
Rp358
(I0
I55
tp359
tp360
a(g2
(g6
S'\x06\x00\x00\x00'
p361
tp362
Rp363
(I55
I79
tp364
tp365
a(g2
(g6
S'\x02\x00\x00\x00'
p366
tp367
Rp368
(I79
I114
tp369
tp370
a(g2
(g6
S'\x05\x00\x00\x00'
p371
tp372
Rp373
(I114
I129
tp374
tp375
aa(lp376
(g2
(g6
S'\x01\x00\x00\x00'
p377
tp378
Rp379
(I0
I55
tp380
tp381
a(g2
(g6
S'\x06\x00\x00\x00'
p382
tp383
Rp384
(I55
I79
tp385
tp386
a(g2
(g6
S'\x02\x00\x00\x00'
p387
tp388
Rp389
(I79
I114
tp390
tp391
a(g2
(g6
S'\x05\x00\x00\x00'
p392
tp393
Rp394
(I114
I129
tp395
tp396
aa(lp397
(g2
(g6
S'\x01\x00\x00\x00'
p398
tp399
Rp400
(I0
I54
tp401
tp402
a(g2
(g6
S'\x06\x00\x00\x00'
p403
tp404
Rp405
(I54
I79
tp406
tp407
a(g2
(g6
S'\x02\x00\x00\x00'
p408
tp409
Rp410
(I79
I113
tp411
tp412
a(g2
(g6
S'\x05\x00\x00\x00'
p413
tp414
Rp415
(I113
I129
tp416
tp417
aa(lp418
(g2
(g6
S'\x01\x00\x00\x00'
p419
tp420
Rp421
(I0
I55
tp422
tp423
a(g2
(g6
S'\x06\x00\x00\x00'
p424
tp425
Rp426
(I55
I79
tp427
tp428
a(g2
(g6
S'\x02\x00\x00\x00'
p429
tp430
Rp431
(I79
I114
tp432
tp433
a(g2
(g6
S'\x05\x00\x00\x00'
p434
tp435
Rp436
(I114
I129
tp437
tp438
aa(lp439
(g2
(g6
S'\x01\x00\x00\x00'
p440
tp441
Rp442
(I0
I54
tp443
tp444
a(g2
(g6
S'\x06\x00\x00\x00'
p445
tp446
Rp447
(I54
I79
tp448
tp449
a(g2
(g6
S'\x02\x00\x00\x00'
p450
tp451
Rp452
(I79
I114
tp453
tp454
a(g2
(g6
S'\x05\x00\x00\x00'
p455
tp456
Rp457
(I114
I129
tp458
tp459
aa(lp460
(g2
(g6
S'\x01\x00\x00\x00'
p461
tp462
Rp463
(I0
I55
tp464
tp465
a(g2
(g6
S'\x06\x00\x00\x00'
p466
tp467
Rp468
(I55
I79
tp469
tp470
a(g2
(g6
S'\x02\x00\x00\x00'
p471
tp472
Rp473
(I79
I113
tp474
tp475
a(g2
(g6
S'\x05\x00\x00\x00'
p476
tp477
Rp478
(I113
I129
tp479
tp480
aa(lp481
(g2
(g6
S'\x01\x00\x00\x00'
p482
tp483
Rp484
(I0
I55
tp485
tp486
a(g2
(g6
S'\x06\x00\x00\x00'
p487
tp488
Rp489
(I55
I79
tp490
tp491
a(g2
(g6
S'\x02\x00\x00\x00'
p492
tp493
Rp494
(I79
I114
tp495
tp496
a(g2
(g6
S'\x05\x00\x00\x00'
p497
tp498
Rp499
(I114
I129
tp500
tp501
aa(lp502
(g2
(g6
S'\x01\x00\x00\x00'
p503
tp504
Rp505
(I0
I55
tp506
tp507
a(g2
(g6
S'\x06\x00\x00\x00'
p508
tp509
Rp510
(I55
I79
tp511
tp512
a(g2
(g6
S'\x02\x00\x00\x00'
p513
tp514
Rp515
(I79
I114
tp516
tp517
a(g2
(g6
S'\x05\x00\x00\x00'
p518
tp519
Rp520
(I114
I129
tp521
tp522
aa(lp523
(g2
(g6
S'\x01\x00\x00\x00'
p524
tp525
Rp526
(I0
I55
tp527
tp528
a(g2
(g6
S'\x06\x00\x00\x00'
p529
tp530
Rp531
(I55
I79
tp532
tp533
a(g2
(g6
S'\x02\x00\x00\x00'
p534
tp535
Rp536
(I79
I114
tp537
tp538
a(g2
(g6
S'\x05\x00\x00\x00'
p539
tp540
Rp541
(I114
I129
tp542
tp543
aa(lp544
(g2
(g6
S'\x01\x00\x00\x00'
p545
tp546
Rp547
(I0
I54
tp548
tp549
a(g2
(g6
S'\x06\x00\x00\x00'
p550
tp551
Rp552
(I54
I79
tp553
tp554
a(g2
(g6
S'\x02\x00\x00\x00'
p555
tp556
Rp557
(I79
I114
tp558
tp559
a(g2
(g6
S'\x05\x00\x00\x00'
p560
tp561
Rp562
(I114
I129
tp563
tp564
aa(lp565
(g2
(g6
S'\x01\x00\x00\x00'
p566
tp567
Rp568
(I0
I54
tp569
tp570
a(g2
(g6
S'\x06\x00\x00\x00'
p571
tp572
Rp573
(I54
I79
tp574
tp575
a(g2
(g6
S'\x02\x00\x00\x00'
p576
tp577
Rp578
(I79
I114
tp579
tp580
a(g2
(g6
S'\x05\x00\x00\x00'
p581
tp582
Rp583
(I114
I129
tp584
tp585
aa(lp586
(g2
(g6
S'\x01\x00\x00\x00'
p587
tp588
Rp589
(I0
I55
tp590
tp591
a(g2
(g6
S'\x06\x00\x00\x00'
p592
tp593
Rp594
(I55
I79
tp595
tp596
a(g2
(g6
S'\x02\x00\x00\x00'
p597
tp598
Rp599
(I79
I114
tp600
tp601
a(g2
(g6
S'\x05\x00\x00\x00'
p602
tp603
Rp604
(I114
I129
tp605
tp606
aa(lp607
(g2
(g6
S'\x01\x00\x00\x00'
p608
tp609
Rp610
(I0
I55
tp611
tp612
a(g2
(g6
S'\x06\x00\x00\x00'
p613
tp614
Rp615
(I55
I79
tp616
tp617
a(g2
(g6
S'\x02\x00\x00\x00'
p618
tp619
Rp620
(I79
I114
tp621
tp622
a(g2
(g6
S'\x05\x00\x00\x00'
p623
tp624
Rp625
(I114
I129
tp626
tp627
aa(lp628
(g2
(g6
S'\x01\x00\x00\x00'
p629
tp630
Rp631
(I0
I55
tp632
tp633
a(g2
(g6
S'\x06\x00\x00\x00'
p634
tp635
Rp636
(I55
I79
tp637
tp638
a(g2
(g6
S'\x02\x00\x00\x00'
p639
tp640
Rp641
(I79
I114
tp642
tp643
a(g2
(g6
S'\x05\x00\x00\x00'
p644
tp645
Rp646
(I114
I129
tp647
tp648
aa(lp649
(g2
(g6
S'\x01\x00\x00\x00'
p650
tp651
Rp652
(I0
I54
tp653
tp654
a(g2
(g6
S'\x06\x00\x00\x00'
p655
tp656
Rp657
(I54
I79
tp658
tp659
a(g2
(g6
S'\x02\x00\x00\x00'
p660
tp661
Rp662
(I79
I114
tp663
tp664
a(g2
(g6
S'\x05\x00\x00\x00'
p665
tp666
Rp667
(I114
I129
tp668
tp669
aa(lp670
(g2
(g6
S'\x01\x00\x00\x00'
p671
tp672
Rp673
(I0
I55
tp674
tp675
a(g2
(g6
S'\x06\x00\x00\x00'
p676
tp677
Rp678
(I55
I79
tp679
tp680
a(g2
(g6
S'\x02\x00\x00\x00'
p681
tp682
Rp683
(I79
I114
tp684
tp685
a(g2
(g6
S'\x05\x00\x00\x00'
p686
tp687
Rp688
(I114
I129
tp689
tp690
aa(lp691
(g2
(g6
S'\x01\x00\x00\x00'
p692
tp693
Rp694
(I0
I55
tp695
tp696
a(g2
(g6
S'\x06\x00\x00\x00'
p697
tp698
Rp699
(I55
I79
tp700
tp701
a(g2
(g6
S'\x02\x00\x00\x00'
p702
tp703
Rp704
(I79
I114
tp705
tp706
a(g2
(g6
S'\x05\x00\x00\x00'
p707
tp708
Rp709
(I114
I129
tp710
tp711
aa(lp712
(g2
(g6
S'\x01\x00\x00\x00'
p713
tp714
Rp715
(I0
I55
tp716
tp717
a(g2
(g6
S'\x06\x00\x00\x00'
p718
tp719
Rp720
(I55
I79
tp721
tp722
a(g2
(g6
S'\x02\x00\x00\x00'
p723
tp724
Rp725
(I79
I113
tp726
tp727
a(g2
(g6
S'\x05\x00\x00\x00'
p728
tp729
Rp730
(I113
I129
tp731
tp732
aa(lp733
(g2
(g6
S'\x01\x00\x00\x00'
p734
tp735
Rp736
(I0
I55
tp737
tp738
a(g2
(g6
S'\x06\x00\x00\x00'
p739
tp740
Rp741
(I55
I79
tp742
tp743
a(g2
(g6
S'\x02\x00\x00\x00'
p744
tp745
Rp746
(I79
I114
tp747
tp748
a(g2
(g6
S'\x05\x00\x00\x00'
p749
tp750
Rp751
(I114
I129
tp752
tp753
aa(lp754
(g2
(g6
S'\x01\x00\x00\x00'
p755
tp756
Rp757
(I0
I55
tp758
tp759
a(g2
(g6
S'\x06\x00\x00\x00'
p760
tp761
Rp762
(I55
I79
tp763
tp764
a(g2
(g6
S'\x02\x00\x00\x00'
p765
tp766
Rp767
(I79
I113
tp768
tp769
a(g2
(g6
S'\x05\x00\x00\x00'
p770
tp771
Rp772
(I113
I129
tp773
tp774
aa(lp775
(g2
(g6
S'\x01\x00\x00\x00'
p776
tp777
Rp778
(I0
I55
tp779
tp780
a(g2
(g6
S'\x06\x00\x00\x00'
p781
tp782
Rp783
(I55
I79
tp784
tp785
a(g2
(g6
S'\x02\x00\x00\x00'
p786
tp787
Rp788
(I79
I114
tp789
tp790
a(g2
(g6
S'\x05\x00\x00\x00'
p791
tp792
Rp793
(I114
I129
tp794
tp795
aa(lp796
(g2
(g6
S'\x01\x00\x00\x00'
p797
tp798
Rp799
(I0
I55
tp800
tp801
a(g2
(g6
S'\x06\x00\x00\x00'
p802
tp803
Rp804
(I55
I79
tp805
tp806
a(g2
(g6
S'\x02\x00\x00\x00'
p807
tp808
Rp809
(I79
I114
tp810
tp811
a(g2
(g6
S'\x05\x00\x00\x00'
p812
tp813
Rp814
(I114
I129
tp815
tp816
aa(lp817
(g2
(g6
S'\x01\x00\x00\x00'
p818
tp819
Rp820
(I0
I55
tp821
tp822
a(g2
(g6
S'\x06\x00\x00\x00'
p823
tp824
Rp825
(I55
I79
tp826
tp827
a(g2
(g6
S'\x02\x00\x00\x00'
p828
tp829
Rp830
(I79
I114
tp831
tp832
a(g2
(g6
S'\x05\x00\x00\x00'
p833
tp834
Rp835
(I114
I129
tp836
tp837
aa(lp838
(g2
(g6
S'\x01\x00\x00\x00'
p839
tp840
Rp841
(I0
I55
tp842
tp843
a(g2
(g6
S'\x06\x00\x00\x00'
p844
tp845
Rp846
(I55
I79
tp847
tp848
a(g2
(g6
S'\x02\x00\x00\x00'
p849
tp850
Rp851
(I79
I114
tp852
tp853
a(g2
(g6
S'\x05\x00\x00\x00'
p854
tp855
Rp856
(I114
I129
tp857
tp858
aa(lp859
(g2
(g6
S'\x01\x00\x00\x00'
p860
tp861
Rp862
(I0
I54
tp863
tp864
a(g2
(g6
S'\x06\x00\x00\x00'
p865
tp866
Rp867
(I54
I79
tp868
tp869
a(g2
(g6
S'\x02\x00\x00\x00'
p870
tp871
Rp872
(I79
I114
tp873
tp874
a(g2
(g6
S'\x05\x00\x00\x00'
p875
tp876
Rp877
(I114
I129
tp878
tp879
aa(lp880
(g2
(g6
S'\x01\x00\x00\x00'
p881
tp882
Rp883
(I0
I54
tp884
tp885
a(g2
(g6
S'\x06\x00\x00\x00'
p886
tp887
Rp888
(I54
I79
tp889
tp890
a(g2
(g6
S'\x02\x00\x00\x00'
p891
tp892
Rp893
(I79
I113
tp894
tp895
a(g2
(g6
S'\x05\x00\x00\x00'
p896
tp897
Rp898
(I113
I129
tp899
tp900
aa(lp901
(g2
(g6
S'\x01\x00\x00\x00'
p902
tp903
Rp904
(I0
I54
tp905
tp906
a(g2
(g6
S'\x06\x00\x00\x00'
p907
tp908
Rp909
(I54
I79
tp910
tp911
a(g2
(g6
S'\x02\x00\x00\x00'
p912
tp913
Rp914
(I79
I113
tp915
tp916
a(g2
(g6
S'\x05\x00\x00\x00'
p917
tp918
Rp919
(I113
I129
tp920
tp921
aa(lp922
(g2
(g6
S'\x01\x00\x00\x00'
p923
tp924
Rp925
(I0
I54
tp926
tp927
a(g2
(g6
S'\x06\x00\x00\x00'
p928
tp929
Rp930
(I54
I79
tp931
tp932
a(g2
(g6
S'\x02\x00\x00\x00'
p933
tp934
Rp935
(I79
I114
tp936
tp937
a(g2
(g6
S'\x05\x00\x00\x00'
p938
tp939
Rp940
(I114
I129
tp941
tp942
aa(lp943
(g2
(g6
S'\x01\x00\x00\x00'
p944
tp945
Rp946
(I0
I54
tp947
tp948
a(g2
(g6
S'\x06\x00\x00\x00'
p949
tp950
Rp951
(I54
I79
tp952
tp953
a(g2
(g6
S'\x02\x00\x00\x00'
p954
tp955
Rp956
(I79
I114
tp957
tp958
a(g2
(g6
S'\x05\x00\x00\x00'
p959
tp960
Rp961
(I114
I129
tp962
tp963
aa(lp964
(g2
(g6
S'\x01\x00\x00\x00'
p965
tp966
Rp967
(I0
I55
tp968
tp969
a(g2
(g6
S'\x06\x00\x00\x00'
p970
tp971
Rp972
(I55
I79
tp973
tp974
a(g2
(g6
S'\x02\x00\x00\x00'
p975
tp976
Rp977
(I79
I113
tp978
tp979
a(g2
(g6
S'\x05\x00\x00\x00'
p980
tp981
Rp982
(I113
I129
tp983
tp984
aa(lp985
(g2
(g6
S'\x01\x00\x00\x00'
p986
tp987
Rp988
(I0
I54
tp989
tp990
a(g2
(g6
S'\x06\x00\x00\x00'
p991
tp992
Rp993
(I54
I79
tp994
tp995
a(g2
(g6
S'\x02\x00\x00\x00'
p996
tp997
Rp998
(I79
I114
tp999
tp1000
a(g2
(g6
S'\x05\x00\x00\x00'
p1001
tp1002
Rp1003
(I114
I129
tp1004
tp1005
aa(lp1006
(g2
(g6
S'\x01\x00\x00\x00'
p1007
tp1008
Rp1009
(I0
I55
tp1010
tp1011
a(g2
(g6
S'\x06\x00\x00\x00'
p1012
tp1013
Rp1014
(I55
I79
tp1015
tp1016
a(g2
(g6
S'\x02\x00\x00\x00'
p1017
tp1018
Rp1019
(I79
I114
tp1020
tp1021
a(g2
(g6
S'\x05\x00\x00\x00'
p1022
tp1023
Rp1024
(I114
I129
tp1025
tp1026
aa(lp1027
(g2
(g6
S'\x01\x00\x00\x00'
p1028
tp1029
Rp1030
(I0
I54
tp1031
tp1032
a(g2
(g6
S'\x06\x00\x00\x00'
p1033
tp1034
Rp1035
(I54
I79
tp1036
tp1037
a(g2
(g6
S'\x02\x00\x00\x00'
p1038
tp1039
Rp1040
(I79
I113
tp1041
tp1042
a(g2
(g6
S'\x05\x00\x00\x00'
p1043
tp1044
Rp1045
(I113
I129
tp1046
tp1047
aa(lp1048
(g2
(g6
S'\x01\x00\x00\x00'
p1049
tp1050
Rp1051
(I0
I54
tp1052
tp1053
a(g2
(g6
S'\x06\x00\x00\x00'
p1054
tp1055
Rp1056
(I54
I79
tp1057
tp1058
a(g2
(g6
S'\x02\x00\x00\x00'
p1059
tp1060
Rp1061
(I79
I114
tp1062
tp1063
a(g2
(g6
S'\x05\x00\x00\x00'
p1064
tp1065
Rp1066
(I114
I129
tp1067
tp1068
aa(lp1069
(g2
(g6
S'\x01\x00\x00\x00'
p1070
tp1071
Rp1072
(I0
I55
tp1073
tp1074
a(g2
(g6
S'\x06\x00\x00\x00'
p1075
tp1076
Rp1077
(I55
I79
tp1078
tp1079
a(g2
(g6
S'\x02\x00\x00\x00'
p1080
tp1081
Rp1082
(I79
I114
tp1083
tp1084
a(g2
(g6
S'\x05\x00\x00\x00'
p1085
tp1086
Rp1087
(I114
I129
tp1088
tp1089
aa(lp1090
(g2
(g6
S'\x01\x00\x00\x00'
p1091
tp1092
Rp1093
(I0
I55
tp1094
tp1095
a(g2
(g6
S'\x06\x00\x00\x00'
p1096
tp1097
Rp1098
(I55
I79
tp1099
tp1100
a(g2
(g6
S'\x02\x00\x00\x00'
p1101
tp1102
Rp1103
(I79
I114
tp1104
tp1105
a(g2
(g6
S'\x05\x00\x00\x00'
p1106
tp1107
Rp1108
(I114
I129
tp1109
tp1110
aa(lp1111
(g2
(g6
S'\x01\x00\x00\x00'
p1112
tp1113
Rp1114
(I0
I55
tp1115
tp1116
a(g2
(g6
S'\x06\x00\x00\x00'
p1117
tp1118
Rp1119
(I55
I79
tp1120
tp1121
a(g2
(g6
S'\x02\x00\x00\x00'
p1122
tp1123
Rp1124
(I79
I113
tp1125
tp1126
a(g2
(g6
S'\x05\x00\x00\x00'
p1127
tp1128
Rp1129
(I113
I129
tp1130
tp1131
aa(lp1132
(g2
(g6
S'\x01\x00\x00\x00'
p1133
tp1134
Rp1135
(I0
I55
tp1136
tp1137
a(g2
(g6
S'\x06\x00\x00\x00'
p1138
tp1139
Rp1140
(I55
I79
tp1141
tp1142
a(g2
(g6
S'\x02\x00\x00\x00'
p1143
tp1144
Rp1145
(I79
I114
tp1146
tp1147
a(g2
(g6
S'\x05\x00\x00\x00'
p1148
tp1149
Rp1150
(I114
I129
tp1151
tp1152
aa(lp1153
(g2
(g6
S'\x01\x00\x00\x00'
p1154
tp1155
Rp1156
(I0
I55
tp1157
tp1158
a(g2
(g6
S'\x06\x00\x00\x00'
p1159
tp1160
Rp1161
(I55
I79
tp1162
tp1163
a(g2
(g6
S'\x02\x00\x00\x00'
p1164
tp1165
Rp1166
(I79
I114
tp1167
tp1168
a(g2
(g6
S'\x05\x00\x00\x00'
p1169
tp1170
Rp1171
(I114
I129
tp1172
tp1173
aa(lp1174
(g2
(g6
S'\x01\x00\x00\x00'
p1175
tp1176
Rp1177
(I0
I54
tp1178
tp1179
a(g2
(g6
S'\x06\x00\x00\x00'
p1180
tp1181
Rp1182
(I54
I79
tp1183
tp1184
a(g2
(g6
S'\x02\x00\x00\x00'
p1185
tp1186
Rp1187
(I79
I113
tp1188
tp1189
a(g2
(g6
S'\x05\x00\x00\x00'
p1190
tp1191
Rp1192
(I113
I129
tp1193
tp1194
aa(lp1195
(g2
(g6
S'\x01\x00\x00\x00'
p1196
tp1197
Rp1198
(I0
I55
tp1199
tp1200
a(g2
(g6
S'\x06\x00\x00\x00'
p1201
tp1202
Rp1203
(I55
I79
tp1204
tp1205
a(g2
(g6
S'\x02\x00\x00\x00'
p1206
tp1207
Rp1208
(I79
I114
tp1209
tp1210
a(g2
(g6
S'\x05\x00\x00\x00'
p1211
tp1212
Rp1213
(I114
I129
tp1214
tp1215
aa(lp1216
(g2
(g6
S'\x01\x00\x00\x00'
p1217
tp1218
Rp1219
(I0
I54
tp1220
tp1221
a(g2
(g6
S'\x06\x00\x00\x00'
p1222
tp1223
Rp1224
(I54
I79
tp1225
tp1226
a(g2
(g6
S'\x02\x00\x00\x00'
p1227
tp1228
Rp1229
(I79
I114
tp1230
tp1231
a(g2
(g6
S'\x05\x00\x00\x00'
p1232
tp1233
Rp1234
(I114
I129
tp1235
tp1236
aa(lp1237
(g2
(g6
S'\x01\x00\x00\x00'
p1238
tp1239
Rp1240
(I0
I54
tp1241
tp1242
a(g2
(g6
S'\x06\x00\x00\x00'
p1243
tp1244
Rp1245
(I54
I79
tp1246
tp1247
a(g2
(g6
S'\x02\x00\x00\x00'
p1248
tp1249
Rp1250
(I79
I114
tp1251
tp1252
a(g2
(g6
S'\x05\x00\x00\x00'
p1253
tp1254
Rp1255
(I114
I129
tp1256
tp1257
aa(lp1258
(g2
(g6
S'\x01\x00\x00\x00'
p1259
tp1260
Rp1261
(I0
I55
tp1262
tp1263
a(g2
(g6
S'\x06\x00\x00\x00'
p1264
tp1265
Rp1266
(I55
I79
tp1267
tp1268
a(g2
(g6
S'\x02\x00\x00\x00'
p1269
tp1270
Rp1271
(I79
I114
tp1272
tp1273
a(g2
(g6
S'\x05\x00\x00\x00'
p1274
tp1275
Rp1276
(I114
I129
tp1277
tp1278
aa(lp1279
(g2
(g6
S'\x01\x00\x00\x00'
p1280
tp1281
Rp1282
(I0
I55
tp1283
tp1284
a(g2
(g6
S'\x06\x00\x00\x00'
p1285
tp1286
Rp1287
(I55
I79
tp1288
tp1289
a(g2
(g6
S'\x02\x00\x00\x00'
p1290
tp1291
Rp1292
(I79
I114
tp1293
tp1294
a(g2
(g6
S'\x05\x00\x00\x00'
p1295
tp1296
Rp1297
(I114
I129
tp1298
tp1299
aa(lp1300
(g2
(g6
S'\x01\x00\x00\x00'
p1301
tp1302
Rp1303
(I0
I55
tp1304
tp1305
a(g2
(g6
S'\x06\x00\x00\x00'
p1306
tp1307
Rp1308
(I55
I79
tp1309
tp1310
a(g2
(g6
S'\x02\x00\x00\x00'
p1311
tp1312
Rp1313
(I79
I114
tp1314
tp1315
a(g2
(g6
S'\x05\x00\x00\x00'
p1316
tp1317
Rp1318
(I114
I129
tp1319
tp1320
aa(lp1321
(g2
(g6
S'\x01\x00\x00\x00'
p1322
tp1323
Rp1324
(I0
I55
tp1325
tp1326
a(g2
(g6
S'\x06\x00\x00\x00'
p1327
tp1328
Rp1329
(I55
I79
tp1330
tp1331
a(g2
(g6
S'\x02\x00\x00\x00'
p1332
tp1333
Rp1334
(I79
I114
tp1335
tp1336
a(g2
(g6
S'\x05\x00\x00\x00'
p1337
tp1338
Rp1339
(I114
I129
tp1340
tp1341
aa(lp1342
(g2
(g6
S'\x01\x00\x00\x00'
p1343
tp1344
Rp1345
(I0
I55
tp1346
tp1347
a(g2
(g6
S'\x06\x00\x00\x00'
p1348
tp1349
Rp1350
(I55
I79
tp1351
tp1352
a(g2
(g6
S'\x02\x00\x00\x00'
p1353
tp1354
Rp1355
(I79
I114
tp1356
tp1357
a(g2
(g6
S'\x05\x00\x00\x00'
p1358
tp1359
Rp1360
(I114
I129
tp1361
tp1362
aa(lp1363
(g2
(g6
S'\x01\x00\x00\x00'
p1364
tp1365
Rp1366
(I0
I55
tp1367
tp1368
a(g2
(g6
S'\x06\x00\x00\x00'
p1369
tp1370
Rp1371
(I55
I79
tp1372
tp1373
a(g2
(g6
S'\x02\x00\x00\x00'
p1374
tp1375
Rp1376
(I79
I114
tp1377
tp1378
a(g2
(g6
S'\x05\x00\x00\x00'
p1379
tp1380
Rp1381
(I114
I129
tp1382
tp1383
aa(lp1384
(g2
(g6
S'\x01\x00\x00\x00'
p1385
tp1386
Rp1387
(I0
I55
tp1388
tp1389
a(g2
(g6
S'\x06\x00\x00\x00'
p1390
tp1391
Rp1392
(I55
I79
tp1393
tp1394
a(g2
(g6
S'\x02\x00\x00\x00'
p1395
tp1396
Rp1397
(I79
I114
tp1398
tp1399
a(g2
(g6
S'\x05\x00\x00\x00'
p1400
tp1401
Rp1402
(I114
I129
tp1403
tp1404
aa(lp1405
(g2
(g6
S'\x01\x00\x00\x00'
p1406
tp1407
Rp1408
(I0
I55
tp1409
tp1410
a(g2
(g6
S'\x06\x00\x00\x00'
p1411
tp1412
Rp1413
(I55
I79
tp1414
tp1415
a(g2
(g6
S'\x02\x00\x00\x00'
p1416
tp1417
Rp1418
(I79
I114
tp1419
tp1420
a(g2
(g6
S'\x05\x00\x00\x00'
p1421
tp1422
Rp1423
(I114
I129
tp1424
tp1425
aa(lp1426
(g2
(g6
S'\x01\x00\x00\x00'
p1427
tp1428
Rp1429
(I0
I54
tp1430
tp1431
a(g2
(g6
S'\x06\x00\x00\x00'
p1432
tp1433
Rp1434
(I54
I79
tp1435
tp1436
a(g2
(g6
S'\x02\x00\x00\x00'
p1437
tp1438
Rp1439
(I79
I114
tp1440
tp1441
a(g2
(g6
S'\x05\x00\x00\x00'
p1442
tp1443
Rp1444
(I114
I129
tp1445
tp1446
aa(lp1447
(g2
(g6
S'\x01\x00\x00\x00'
p1448
tp1449
Rp1450
(I0
I53
tp1451
tp1452
a(g2
(g6
S'\x06\x00\x00\x00'
p1453
tp1454
Rp1455
(I53
I79
tp1456
tp1457
a(g2
(g6
S'\x02\x00\x00\x00'
p1458
tp1459
Rp1460
(I79
I114
tp1461
tp1462
a(g2
(g6
S'\x05\x00\x00\x00'
p1463
tp1464
Rp1465
(I114
I129
tp1466
tp1467
aa(lp1468
(g2
(g6
S'\x01\x00\x00\x00'
p1469
tp1470
Rp1471
(I0
I54
tp1472
tp1473
a(g2
(g6
S'\x06\x00\x00\x00'
p1474
tp1475
Rp1476
(I54
I79
tp1477
tp1478
a(g2
(g6
S'\x02\x00\x00\x00'
p1479
tp1480
Rp1481
(I79
I113
tp1482
tp1483
a(g2
(g6
S'\x05\x00\x00\x00'
p1484
tp1485
Rp1486
(I113
I129
tp1487
tp1488
aa(lp1489
(g2
(g6
S'\x01\x00\x00\x00'
p1490
tp1491
Rp1492
(I0
I55
tp1493
tp1494
a(g2
(g6
S'\x06\x00\x00\x00'
p1495
tp1496
Rp1497
(I55
I79
tp1498
tp1499
a(g2
(g6
S'\x02\x00\x00\x00'
p1500
tp1501
Rp1502
(I79
I114
tp1503
tp1504
a(g2
(g6
S'\x05\x00\x00\x00'
p1505
tp1506
Rp1507
(I114
I129
tp1508
tp1509
aa(lp1510
(g2
(g6
S'\x01\x00\x00\x00'
p1511
tp1512
Rp1513
(I0
I55
tp1514
tp1515
a(g2
(g6
S'\x06\x00\x00\x00'
p1516
tp1517
Rp1518
(I55
I79
tp1519
tp1520
a(g2
(g6
S'\x02\x00\x00\x00'
p1521
tp1522
Rp1523
(I79
I113
tp1524
tp1525
a(g2
(g6
S'\x05\x00\x00\x00'
p1526
tp1527
Rp1528
(I113
I129
tp1529
tp1530
aa(lp1531
(g2
(g6
S'\x01\x00\x00\x00'
p1532
tp1533
Rp1534
(I0
I55
tp1535
tp1536
a(g2
(g6
S'\x06\x00\x00\x00'
p1537
tp1538
Rp1539
(I55
I79
tp1540
tp1541
a(g2
(g6
S'\x02\x00\x00\x00'
p1542
tp1543
Rp1544
(I79
I113
tp1545
tp1546
a(g2
(g6
S'\x05\x00\x00\x00'
p1547
tp1548
Rp1549
(I113
I129
tp1550
tp1551
aa(lp1552
(g2
(g6
S'\x01\x00\x00\x00'
p1553
tp1554
Rp1555
(I0
I55
tp1556
tp1557
a(g2
(g6
S'\x06\x00\x00\x00'
p1558
tp1559
Rp1560
(I55
I79
tp1561
tp1562
a(g2
(g6
S'\x02\x00\x00\x00'
p1563
tp1564
Rp1565
(I79
I114
tp1566
tp1567
a(g2
(g6
S'\x05\x00\x00\x00'
p1568
tp1569
Rp1570
(I114
I129
tp1571
tp1572
aa(lp1573
(g2
(g6
S'\x01\x00\x00\x00'
p1574
tp1575
Rp1576
(I0
I54
tp1577
tp1578
a(g2
(g6
S'\x06\x00\x00\x00'
p1579
tp1580
Rp1581
(I54
I79
tp1582
tp1583
a(g2
(g6
S'\x02\x00\x00\x00'
p1584
tp1585
Rp1586
(I79
I114
tp1587
tp1588
a(g2
(g6
S'\x05\x00\x00\x00'
p1589
tp1590
Rp1591
(I114
I129
tp1592
tp1593
aa(lp1594
(g2
(g6
S'\x01\x00\x00\x00'
p1595
tp1596
Rp1597
(I0
I55
tp1598
tp1599
a(g2
(g6
S'\x06\x00\x00\x00'
p1600
tp1601
Rp1602
(I55
I79
tp1603
tp1604
a(g2
(g6
S'\x02\x00\x00\x00'
p1605
tp1606
Rp1607
(I79
I114
tp1608
tp1609
a(g2
(g6
S'\x05\x00\x00\x00'
p1610
tp1611
Rp1612
(I114
I129
tp1613
tp1614
aa(lp1615
(g2
(g6
S'\x01\x00\x00\x00'
p1616
tp1617
Rp1618
(I0
I54
tp1619
tp1620
a(g2
(g6
S'\x06\x00\x00\x00'
p1621
tp1622
Rp1623
(I54
I79
tp1624
tp1625
a(g2
(g6
S'\x02\x00\x00\x00'
p1626
tp1627
Rp1628
(I79
I114
tp1629
tp1630
a(g2
(g6
S'\x05\x00\x00\x00'
p1631
tp1632
Rp1633
(I114
I129
tp1634
tp1635
aa(lp1636
(g2
(g6
S'\x01\x00\x00\x00'
p1637
tp1638
Rp1639
(I0
I54
tp1640
tp1641
a(g2
(g6
S'\x06\x00\x00\x00'
p1642
tp1643
Rp1644
(I54
I79
tp1645
tp1646
a(g2
(g6
S'\x02\x00\x00\x00'
p1647
tp1648
Rp1649
(I79
I114
tp1650
tp1651
a(g2
(g6
S'\x05\x00\x00\x00'
p1652
tp1653
Rp1654
(I114
I129
tp1655
tp1656
aa(lp1657
(g2
(g6
S'\x01\x00\x00\x00'
p1658
tp1659
Rp1660
(I0
I54
tp1661
tp1662
a(g2
(g6
S'\x06\x00\x00\x00'
p1663
tp1664
Rp1665
(I54
I79
tp1666
tp1667
a(g2
(g6
S'\x02\x00\x00\x00'
p1668
tp1669
Rp1670
(I79
I114
tp1671
tp1672
a(g2
(g6
S'\x05\x00\x00\x00'
p1673
tp1674
Rp1675
(I114
I129
tp1676
tp1677
aa(lp1678
(g2
(g6
S'\x01\x00\x00\x00'
p1679
tp1680
Rp1681
(I0
I55
tp1682
tp1683
a(g2
(g6
S'\x06\x00\x00\x00'
p1684
tp1685
Rp1686
(I55
I79
tp1687
tp1688
a(g2
(g6
S'\x02\x00\x00\x00'
p1689
tp1690
Rp1691
(I79
I114
tp1692
tp1693
a(g2
(g6
S'\x05\x00\x00\x00'
p1694
tp1695
Rp1696
(I114
I129
tp1697
tp1698
aa(lp1699
(g2
(g6
S'\x01\x00\x00\x00'
p1700
tp1701
Rp1702
(I0
I55
tp1703
tp1704
a(g2
(g6
S'\x06\x00\x00\x00'
p1705
tp1706
Rp1707
(I55
I79
tp1708
tp1709
a(g2
(g6
S'\x02\x00\x00\x00'
p1710
tp1711
Rp1712
(I79
I113
tp1713
tp1714
a(g2
(g6
S'\x05\x00\x00\x00'
p1715
tp1716
Rp1717
(I113
I129
tp1718
tp1719
aa(lp1720
(g2
(g6
S'\x01\x00\x00\x00'
p1721
tp1722
Rp1723
(I0
I54
tp1724
tp1725
a(g2
(g6
S'\x06\x00\x00\x00'
p1726
tp1727
Rp1728
(I54
I79
tp1729
tp1730
a(g2
(g6
S'\x02\x00\x00\x00'
p1731
tp1732
Rp1733
(I79
I114
tp1734
tp1735
a(g2
(g6
S'\x05\x00\x00\x00'
p1736
tp1737
Rp1738
(I114
I129
tp1739
tp1740
aa(lp1741
(g2
(g6
S'\x01\x00\x00\x00'
p1742
tp1743
Rp1744
(I0
I54
tp1745
tp1746
a(g2
(g6
S'\x06\x00\x00\x00'
p1747
tp1748
Rp1749
(I54
I79
tp1750
tp1751
a(g2
(g6
S'\x02\x00\x00\x00'
p1752
tp1753
Rp1754
(I79
I113
tp1755
tp1756
a(g2
(g6
S'\x05\x00\x00\x00'
p1757
tp1758
Rp1759
(I113
I129
tp1760
tp1761
aa(lp1762
(g2
(g6
S'\x01\x00\x00\x00'
p1763
tp1764
Rp1765
(I0
I55
tp1766
tp1767
a(g2
(g6
S'\x06\x00\x00\x00'
p1768
tp1769
Rp1770
(I55
I79
tp1771
tp1772
a(g2
(g6
S'\x02\x00\x00\x00'
p1773
tp1774
Rp1775
(I79
I114
tp1776
tp1777
a(g2
(g6
S'\x05\x00\x00\x00'
p1778
tp1779
Rp1780
(I114
I129
tp1781
tp1782
aa(lp1783
(g2
(g6
S'\x01\x00\x00\x00'
p1784
tp1785
Rp1786
(I0
I54
tp1787
tp1788
a(g2
(g6
S'\x06\x00\x00\x00'
p1789
tp1790
Rp1791
(I54
I79
tp1792
tp1793
a(g2
(g6
S'\x05\x00\x00\x00'
p1794
tp1795
Rp1796
(I79
I94
tp1797
tp1798
a(g2
(g6
S'\x00\x00\x00\x00'
p1799
tp1800
Rp1801
(I94
I129
tp1802
tp1803
aa(lp1804
(g2
(g6
S'\x01\x00\x00\x00'
p1805
tp1806
Rp1807
(I0
I54
tp1808
tp1809
a(g2
(g6
S'\x06\x00\x00\x00'
p1810
tp1811
Rp1812
(I54
I79
tp1813
tp1814
a(g2
(g6
S'\x05\x00\x00\x00'
p1815
tp1816
Rp1817
(I79
I94
tp1818
tp1819
a(g2
(g6
S'\x00\x00\x00\x00'
p1820
tp1821
Rp1822
(I94
I129
tp1823
tp1824
aa(lp1825
(g2
(g6
S'\x01\x00\x00\x00'
p1826
tp1827
Rp1828
(I0
I55
tp1829
tp1830
a(g2
(g6
S'\x06\x00\x00\x00'
p1831
tp1832
Rp1833
(I55
I79
tp1834
tp1835
a(g2
(g6
S'\x05\x00\x00\x00'
p1836
tp1837
Rp1838
(I79
I94
tp1839
tp1840
a(g2
(g6
S'\x00\x00\x00\x00'
p1841
tp1842
Rp1843
(I94
I129
tp1844
tp1845
aa(lp1846
(g2
(g6
S'\x01\x00\x00\x00'
p1847
tp1848
Rp1849
(I0
I54
tp1850
tp1851
a(g2
(g6
S'\x06\x00\x00\x00'
p1852
tp1853
Rp1854
(I54
I79
tp1855
tp1856
a(g2
(g6
S'\x05\x00\x00\x00'
p1857
tp1858
Rp1859
(I79
I94
tp1860
tp1861
a(g2
(g6
S'\x00\x00\x00\x00'
p1862
tp1863
Rp1864
(I94
I129
tp1865
tp1866
aa(lp1867
(g2
(g6
S'\x01\x00\x00\x00'
p1868
tp1869
Rp1870
(I0
I55
tp1871
tp1872
a(g2
(g6
S'\x06\x00\x00\x00'
p1873
tp1874
Rp1875
(I55
I79
tp1876
tp1877
a(g2
(g6
S'\x05\x00\x00\x00'
p1878
tp1879
Rp1880
(I79
I94
tp1881
tp1882
a(g2
(g6
S'\x00\x00\x00\x00'
p1883
tp1884
Rp1885
(I94
I129
tp1886
tp1887
aa(lp1888
(g2
(g6
S'\x01\x00\x00\x00'
p1889
tp1890
Rp1891
(I0
I55
tp1892
tp1893
a(g2
(g6
S'\x06\x00\x00\x00'
p1894
tp1895
Rp1896
(I55
I79
tp1897
tp1898
a(g2
(g6
S'\x05\x00\x00\x00'
p1899
tp1900
Rp1901
(I79
I95
tp1902
tp1903
a(g2
(g6
S'\x00\x00\x00\x00'
p1904
tp1905
Rp1906
(I95
I129
tp1907
tp1908
aa(lp1909
(g2
(g6
S'\x01\x00\x00\x00'
p1910
tp1911
Rp1912
(I0
I54
tp1913
tp1914
a(g2
(g6
S'\x06\x00\x00\x00'
p1915
tp1916
Rp1917
(I54
I79
tp1918
tp1919
a(g2
(g6
S'\x05\x00\x00\x00'
p1920
tp1921
Rp1922
(I79
I95
tp1923
tp1924
a(g2
(g6
S'\x00\x00\x00\x00'
p1925
tp1926
Rp1927
(I95
I129
tp1928
tp1929
aa(lp1930
(g2
(g6
S'\x01\x00\x00\x00'
p1931
tp1932
Rp1933
(I0
I54
tp1934
tp1935
a(g2
(g6
S'\x06\x00\x00\x00'
p1936
tp1937
Rp1938
(I54
I79
tp1939
tp1940
a(g2
(g6
S'\x05\x00\x00\x00'
p1941
tp1942
Rp1943
(I79
I94
tp1944
tp1945
a(g2
(g6
S'\x00\x00\x00\x00'
p1946
tp1947
Rp1948
(I94
I129
tp1949
tp1950
aa(lp1951
(g2
(g6
S'\x01\x00\x00\x00'
p1952
tp1953
Rp1954
(I0
I55
tp1955
tp1956
a(g2
(g6
S'\x06\x00\x00\x00'
p1957
tp1958
Rp1959
(I55
I79
tp1960
tp1961
a(g2
(g6
S'\x05\x00\x00\x00'
p1962
tp1963
Rp1964
(I79
I94
tp1965
tp1966
a(g2
(g6
S'\x00\x00\x00\x00'
p1967
tp1968
Rp1969
(I94
I129
tp1970
tp1971
aa(lp1972
(g2
(g6
S'\x01\x00\x00\x00'
p1973
tp1974
Rp1975
(I0
I55
tp1976
tp1977
a(g2
(g6
S'\x06\x00\x00\x00'
p1978
tp1979
Rp1980
(I55
I79
tp1981
tp1982
a(g2
(g6
S'\x05\x00\x00\x00'
p1983
tp1984
Rp1985
(I79
I93
tp1986
tp1987
a(g2
(g6
S'\x00\x00\x00\x00'
p1988
tp1989
Rp1990
(I93
I129
tp1991
tp1992
aa(lp1993
(g2
(g6
S'\x01\x00\x00\x00'
p1994
tp1995
Rp1996
(I0
I55
tp1997
tp1998
a(g2
(g6
S'\x06\x00\x00\x00'
p1999
tp2000
Rp2001
(I55
I79
tp2002
tp2003
a(g2
(g6
S'\x05\x00\x00\x00'
p2004
tp2005
Rp2006
(I79
I94
tp2007
tp2008
a(g2
(g6
S'\x00\x00\x00\x00'
p2009
tp2010
Rp2011
(I94
I129
tp2012
tp2013
aa(lp2014
(g2
(g6
S'\x01\x00\x00\x00'
p2015
tp2016
Rp2017
(I0
I55
tp2018
tp2019
a(g2
(g6
S'\x06\x00\x00\x00'
p2020
tp2021
Rp2022
(I55
I79
tp2023
tp2024
a(g2
(g6
S'\x05\x00\x00\x00'
p2025
tp2026
Rp2027
(I79
I94
tp2028
tp2029
a(g2
(g6
S'\x00\x00\x00\x00'
p2030
tp2031
Rp2032
(I94
I129
tp2033
tp2034
aa(lp2035
(g2
(g6
S'\x01\x00\x00\x00'
p2036
tp2037
Rp2038
(I0
I55
tp2039
tp2040
a(g2
(g6
S'\x06\x00\x00\x00'
p2041
tp2042
Rp2043
(I55
I79
tp2044
tp2045
a(g2
(g6
S'\x05\x00\x00\x00'
p2046
tp2047
Rp2048
(I79
I95
tp2049
tp2050
a(g2
(g6
S'\x00\x00\x00\x00'
p2051
tp2052
Rp2053
(I95
I129
tp2054
tp2055
aa(lp2056
(g2
(g6
S'\x01\x00\x00\x00'
p2057
tp2058
Rp2059
(I0
I55
tp2060
tp2061
a(g2
(g6
S'\x06\x00\x00\x00'
p2062
tp2063
Rp2064
(I55
I79
tp2065
tp2066
a(g2
(g6
S'\x05\x00\x00\x00'
p2067
tp2068
Rp2069
(I79
I94
tp2070
tp2071
a(g2
(g6
S'\x00\x00\x00\x00'
p2072
tp2073
Rp2074
(I94
I129
tp2075
tp2076
aa(lp2077
(g2
(g6
S'\x01\x00\x00\x00'
p2078
tp2079
Rp2080
(I0
I55
tp2081
tp2082
a(g2
(g6
S'\x06\x00\x00\x00'
p2083
tp2084
Rp2085
(I55
I79
tp2086
tp2087
a(g2
(g6
S'\x05\x00\x00\x00'
p2088
tp2089
Rp2090
(I79
I94
tp2091
tp2092
a(g2
(g6
S'\x00\x00\x00\x00'
p2093
tp2094
Rp2095
(I94
I129
tp2096
tp2097
aa.