(lp0
(lp1
(cnumpy.core.multiarray
scalar
p2
(cnumpy
dtype
p3
(S'i4'
p4
I0
I1
tp5
Rp6
(I3
S'<'
p7
NNNI-1
I-1
I0
tp8
bS'\x01\x00\x00\x00'
p9
tp10
Rp11
(I0
I54
tp12
tp13
a(g2
(g6
S'\x01\x00\x00\x00'
p14
tp15
Rp16
(I54
I114
tp17
tp18
aa(lp19
(g2
(g6
S'\x01\x00\x00\x00'
p20
tp21
Rp22
(I0
I53
tp23
tp24
a(g2
(g6
S'\x01\x00\x00\x00'
p25
tp26
Rp27
(I53
I109
tp28
tp29
a(g2
(g6
S'\x04\x00\x00\x00'
p30
tp31
Rp32
(I109
I114
tp33
tp34
aa(lp35
(g2
(g6
S'\x01\x00\x00\x00'
p36
tp37
Rp38
(I0
I51
tp39
tp40
a(g2
(g6
S'\x01\x00\x00\x00'
p41
tp42
Rp43
(I51
I110
tp44
tp45
a(g2
(g6
S'\x06\x00\x00\x00'
p46
tp47
Rp48
(I110
I114
tp49
tp50
aa(lp51
(g2
(g6
S'\x01\x00\x00\x00'
p52
tp53
Rp54
(I0
I54
tp55
tp56
a(g2
(g6
S'\x03\x00\x00\x00'
p57
tp58
Rp59
(I54
I114
tp60
tp61
aa(lp62
(g2
(g6
S'\x01\x00\x00\x00'
p63
tp64
Rp65
(I0
I54
tp66
tp67
a(g2
(g6
S'\x03\x00\x00\x00'
p68
tp69
Rp70
(I54
I114
tp71
tp72
aa(lp73
(g2
(g6
S'\x01\x00\x00\x00'
p74
tp75
Rp76
(I0
I54
tp77
tp78
a(g2
(g6
S'\x03\x00\x00\x00'
p79
tp80
Rp81
(I54
I114
tp82
tp83
aa(lp84
(g2
(g6
S'\x01\x00\x00\x00'
p85
tp86
Rp87
(I0
I54
tp88
tp89
a(g2
(g6
S'\x03\x00\x00\x00'
p90
tp91
Rp92
(I54
I114
tp93
tp94
aa(lp95
(g2
(g6
S'\x01\x00\x00\x00'
p96
tp97
Rp98
(I0
I54
tp99
tp100
a(g2
(g6
S'\x03\x00\x00\x00'
p101
tp102
Rp103
(I54
I114
tp104
tp105
aa(lp106
(g2
(g6
S'\x01\x00\x00\x00'
p107
tp108
Rp109
(I0
I54
tp110
tp111
a(g2
(g6
S'\x03\x00\x00\x00'
p112
tp113
Rp114
(I54
I114
tp115
tp116
aa(lp117
(g2
(g6
S'\x01\x00\x00\x00'
p118
tp119
Rp120
(I0
I54
tp121
tp122
a(g2
(g6
S'\x03\x00\x00\x00'
p123
tp124
Rp125
(I54
I114
tp126
tp127
aa(lp128
(g2
(g6
S'\x01\x00\x00\x00'
p129
tp130
Rp131
(I0
I54
tp132
tp133
a(g2
(g6
S'\x03\x00\x00\x00'
p134
tp135
Rp136
(I54
I114
tp137
tp138
aa(lp139
(g2
(g6
S'\x01\x00\x00\x00'
p140
tp141
Rp142
(I0
I54
tp143
tp144
a(g2
(g6
S'\x03\x00\x00\x00'
p145
tp146
Rp147
(I54
I114
tp148
tp149
aa(lp150
(g2
(g6
S'\x01\x00\x00\x00'
p151
tp152
Rp153
(I0
I54
tp154
tp155
a(g2
(g6
S'\x03\x00\x00\x00'
p156
tp157
Rp158
(I54
I114
tp159
tp160
aa(lp161
(g2
(g6
S'\x01\x00\x00\x00'
p162
tp163
Rp164
(I0
I54
tp165
tp166
a(g2
(g6
S'\x03\x00\x00\x00'
p167
tp168
Rp169
(I54
I114
tp170
tp171
aa(lp172
(g2
(g6
S'\x01\x00\x00\x00'
p173
tp174
Rp175
(I0
I54
tp176
tp177
a(g2
(g6
S'\x03\x00\x00\x00'
p178
tp179
Rp180
(I54
I114
tp181
tp182
aa(lp183
(g2
(g6
S'\x01\x00\x00\x00'
p184
tp185
Rp186
(I0
I54
tp187
tp188
a(g2
(g6
S'\x03\x00\x00\x00'
p189
tp190
Rp191
(I54
I114
tp192
tp193
aa(lp194
(g2
(g6
S'\x01\x00\x00\x00'
p195
tp196
Rp197
(I0
I54
tp198
tp199
a(g2
(g6
S'\x03\x00\x00\x00'
p200
tp201
Rp202
(I54
I114
tp203
tp204
aa(lp205
(g2
(g6
S'\x01\x00\x00\x00'
p206
tp207
Rp208
(I0
I54
tp209
tp210
a(g2
(g6
S'\x03\x00\x00\x00'
p211
tp212
Rp213
(I54
I114
tp214
tp215
aa(lp216
(g2
(g6
S'\x01\x00\x00\x00'
p217
tp218
Rp219
(I0
I54
tp220
tp221
a(g2
(g6
S'\x03\x00\x00\x00'
p222
tp223
Rp224
(I54
I114
tp225
tp226
aa(lp227
(g2
(g6
S'\x01\x00\x00\x00'
p228
tp229
Rp230
(I0
I54
tp231
tp232
a(g2
(g6
S'\x03\x00\x00\x00'
p233
tp234
Rp235
(I54
I114
tp236
tp237
aa(lp238
(g2
(g6
S'\x01\x00\x00\x00'
p239
tp240
Rp241
(I0
I54
tp242
tp243
a(g2
(g6
S'\x03\x00\x00\x00'
p244
tp245
Rp246
(I54
I114
tp247
tp248
aa(lp249
(g2
(g6
S'\x01\x00\x00\x00'
p250
tp251
Rp252
(I0
I54
tp253
tp254
a(g2
(g6
S'\x03\x00\x00\x00'
p255
tp256
Rp257
(I54
I114
tp258
tp259
aa(lp260
(g2
(g6
S'\x01\x00\x00\x00'
p261
tp262
Rp263
(I0
I54
tp264
tp265
a(g2
(g6
S'\x03\x00\x00\x00'
p266
tp267
Rp268
(I54
I114
tp269
tp270
aa(lp271
(g2
(g6
S'\x01\x00\x00\x00'
p272
tp273
Rp274
(I0
I54
tp275
tp276
a(g2
(g6
S'\x03\x00\x00\x00'
p277
tp278
Rp279
(I54
I114
tp280
tp281
aa(lp282
(g2
(g6
S'\x01\x00\x00\x00'
p283
tp284
Rp285
(I0
I53
tp286
tp287
a(g2
(g6
S'\x06\x00\x00\x00'
p288
tp289
Rp290
(I53
I66
tp291
tp292
a(g2
(g6
S'\x03\x00\x00\x00'
p293
tp294
Rp295
(I66
I114
tp296
tp297
aa(lp298
(g2
(g6
S'\x01\x00\x00\x00'
p299
tp300
Rp301
(I0
I54
tp302
tp303
a(g2
(g6
S'\x03\x00\x00\x00'
p304
tp305
Rp306
(I54
I114
tp307
tp308
aa(lp309
(g2
(g6
S'\x01\x00\x00\x00'
p310
tp311
Rp312
(I0
I54
tp313
tp314
a(g2
(g6
S'\x03\x00\x00\x00'
p315
tp316
Rp317
(I54
I114
tp318
tp319
aa(lp320
(g2
(g6
S'\x01\x00\x00\x00'
p321
tp322
Rp323
(I0
I54
tp324
tp325
a(g2
(g6
S'\x03\x00\x00\x00'
p326
tp327
Rp328
(I54
I114
tp329
tp330
aa(lp331
(g2
(g6
S'\x01\x00\x00\x00'
p332
tp333
Rp334
(I0
I54
tp335
tp336
a(g2
(g6
S'\x03\x00\x00\x00'
p337
tp338
Rp339
(I54
I114
tp340
tp341
aa(lp342
(g2
(g6
S'\x01\x00\x00\x00'
p343
tp344
Rp345
(I0
I54
tp346
tp347
a(g2
(g6
S'\x03\x00\x00\x00'
p348
tp349
Rp350
(I54
I114
tp351
tp352
aa(lp353
(g2
(g6
S'\x01\x00\x00\x00'
p354
tp355
Rp356
(I0
I54
tp357
tp358
a(g2
(g6
S'\x03\x00\x00\x00'
p359
tp360
Rp361
(I54
I114
tp362
tp363
aa(lp364
(g2
(g6
S'\x01\x00\x00\x00'
p365
tp366
Rp367
(I0
I54
tp368
tp369
a(g2
(g6
S'\x03\x00\x00\x00'
p370
tp371
Rp372
(I54
I114
tp373
tp374
aa(lp375
(g2
(g6
S'\x01\x00\x00\x00'
p376
tp377
Rp378
(I0
I54
tp379
tp380
a(g2
(g6
S'\x03\x00\x00\x00'
p381
tp382
Rp383
(I54
I114
tp384
tp385
aa(lp386
(g2
(g6
S'\x01\x00\x00\x00'
p387
tp388
Rp389
(I0
I54
tp390
tp391
a(g2
(g6
S'\x03\x00\x00\x00'
p392
tp393
Rp394
(I54
I114
tp395
tp396
aa(lp397
(g2
(g6
S'\x01\x00\x00\x00'
p398
tp399
Rp400
(I0
I53
tp401
tp402
a(g2
(g6
S'\x06\x00\x00\x00'
p403
tp404
Rp405
(I53
I66
tp406
tp407
a(g2
(g6
S'\x03\x00\x00\x00'
p408
tp409
Rp410
(I66
I114
tp411
tp412
aa(lp413
(g2
(g6
S'\x01\x00\x00\x00'
p414
tp415
Rp416
(I0
I54
tp417
tp418
a(g2
(g6
S'\x03\x00\x00\x00'
p419
tp420
Rp421
(I54
I114
tp422
tp423
aa(lp424
(g2
(g6
S'\x01\x00\x00\x00'
p425
tp426
Rp427
(I0
I54
tp428
tp429
a(g2
(g6
S'\x03\x00\x00\x00'
p430
tp431
Rp432
(I54
I114
tp433
tp434
aa(lp435
(g2
(g6
S'\x01\x00\x00\x00'
p436
tp437
Rp438
(I0
I54
tp439
tp440
a(g2
(g6
S'\x03\x00\x00\x00'
p441
tp442
Rp443
(I54
I114
tp444
tp445
aa(lp446
(g2
(g6
S'\x01\x00\x00\x00'
p447
tp448
Rp449
(I0
I54
tp450
tp451
a(g2
(g6
S'\x03\x00\x00\x00'
p452
tp453
Rp454
(I54
I114
tp455
tp456
aa(lp457
(g2
(g6
S'\x01\x00\x00\x00'
p458
tp459
Rp460
(I0
I54
tp461
tp462
a(g2
(g6
S'\x03\x00\x00\x00'
p463
tp464
Rp465
(I54
I114
tp466
tp467
aa(lp468
(g2
(g6
S'\x01\x00\x00\x00'
p469
tp470
Rp471
(I0
I54
tp472
tp473
a(g2
(g6
S'\x03\x00\x00\x00'
p474
tp475
Rp476
(I54
I114
tp477
tp478
aa(lp479
(g2
(g6
S'\x01\x00\x00\x00'
p480
tp481
Rp482
(I0
I54
tp483
tp484
a(g2
(g6
S'\x03\x00\x00\x00'
p485
tp486
Rp487
(I54
I114
tp488
tp489
aa(lp490
(g2
(g6
S'\x01\x00\x00\x00'
p491
tp492
Rp493
(I0
I54
tp494
tp495
a(g2
(g6
S'\x03\x00\x00\x00'
p496
tp497
Rp498
(I54
I114
tp499
tp500
aa(lp501
(g2
(g6
S'\x01\x00\x00\x00'
p502
tp503
Rp504
(I0
I54
tp505
tp506
a(g2
(g6
S'\x03\x00\x00\x00'
p507
tp508
Rp509
(I54
I114
tp510
tp511
aa(lp512
(g2
(g6
S'\x01\x00\x00\x00'
p513
tp514
Rp515
(I0
I54
tp516
tp517
a(g2
(g6
S'\x03\x00\x00\x00'
p518
tp519
Rp520
(I54
I114
tp521
tp522
aa(lp523
(g2
(g6
S'\x01\x00\x00\x00'
p524
tp525
Rp526
(I0
I54
tp527
tp528
a(g2
(g6
S'\x03\x00\x00\x00'
p529
tp530
Rp531
(I54
I114
tp532
tp533
aa(lp534
(g2
(g6
S'\x01\x00\x00\x00'
p535
tp536
Rp537
(I0
I54
tp538
tp539
a(g2
(g6
S'\x03\x00\x00\x00'
p540
tp541
Rp542
(I54
I114
tp543
tp544
aa(lp545
(g2
(g6
S'\x01\x00\x00\x00'
p546
tp547
Rp548
(I0
I54
tp549
tp550
a(g2
(g6
S'\x03\x00\x00\x00'
p551
tp552
Rp553
(I54
I114
tp554
tp555
aa(lp556
(g2
(g6
S'\x01\x00\x00\x00'
p557
tp558
Rp559
(I0
I53
tp560
tp561
a(g2
(g6
S'\x06\x00\x00\x00'
p562
tp563
Rp564
(I53
I70
tp565
tp566
a(g2
(g6
S'\x03\x00\x00\x00'
p567
tp568
Rp569
(I70
I114
tp570
tp571
aa(lp572
(g2
(g6
S'\x01\x00\x00\x00'
p573
tp574
Rp575
(I0
I52
tp576
tp577
a(g2
(g6
S'\x06\x00\x00\x00'
p578
tp579
Rp580
(I52
I66
tp581
tp582
a(g2
(g6
S'\x03\x00\x00\x00'
p583
tp584
Rp585
(I66
I114
tp586
tp587
aa(lp588
(g2
(g6
S'\x01\x00\x00\x00'
p589
tp590
Rp591
(I0
I52
tp592
tp593
a(g2
(g6
S'\x06\x00\x00\x00'
p594
tp595
Rp596
(I52
I66
tp597
tp598
a(g2
(g6
S'\x03\x00\x00\x00'
p599
tp600
Rp601
(I66
I114
tp602
tp603
aa(lp604
(g2
(g6
S'\x01\x00\x00\x00'
p605
tp606
Rp607
(I0
I54
tp608
tp609
a(g2
(g6
S'\x03\x00\x00\x00'
p610
tp611
Rp612
(I54
I114
tp613
tp614
aa(lp615
(g2
(g6
S'\x01\x00\x00\x00'
p616
tp617
Rp618
(I0
I53
tp619
tp620
a(g2
(g6
S'\x06\x00\x00\x00'
p621
tp622
Rp623
(I53
I68
tp624
tp625
a(g2
(g6
S'\x03\x00\x00\x00'
p626
tp627
Rp628
(I68
I114
tp629
tp630
aa(lp631
(g2
(g6
S'\x01\x00\x00\x00'
p632
tp633
Rp634
(I0
I54
tp635
tp636
a(g2
(g6
S'\x03\x00\x00\x00'
p637
tp638
Rp639
(I54
I114
tp640
tp641
aa(lp642
(g2
(g6
S'\x01\x00\x00\x00'
p643
tp644
Rp645
(I0
I54
tp646
tp647
a(g2
(g6
S'\x03\x00\x00\x00'
p648
tp649
Rp650
(I54
I114
tp651
tp652
aa(lp653
(g2
(g6
S'\x01\x00\x00\x00'
p654
tp655
Rp656
(I0
I52
tp657
tp658
a(g2
(g6
S'\x06\x00\x00\x00'
p659
tp660
Rp661
(I52
I69
tp662
tp663
a(g2
(g6
S'\x03\x00\x00\x00'
p664
tp665
Rp666
(I69
I114
tp667
tp668
aa(lp669
(g2
(g6
S'\x01\x00\x00\x00'
p670
tp671
Rp672
(I0
I52
tp673
tp674
a(g2
(g6
S'\x06\x00\x00\x00'
p675
tp676
Rp677
(I52
I67
tp678
tp679
a(g2
(g6
S'\x03\x00\x00\x00'
p680
tp681
Rp682
(I67
I114
tp683
tp684
aa(lp685
(g2
(g6
S'\x01\x00\x00\x00'
p686
tp687
Rp688
(I0
I54
tp689
tp690
a(g2
(g6
S'\x03\x00\x00\x00'
p691
tp692
Rp693
(I54
I114
tp694
tp695
aa(lp696
(g2
(g6
S'\x01\x00\x00\x00'
p697
tp698
Rp699
(I0
I54
tp700
tp701
a(g2
(g6
S'\x03\x00\x00\x00'
p702
tp703
Rp704
(I54
I114
tp705
tp706
aa(lp707
(g2
(g6
S'\x01\x00\x00\x00'
p708
tp709
Rp710
(I0
I54
tp711
tp712
a(g2
(g6
S'\x03\x00\x00\x00'
p713
tp714
Rp715
(I54
I114
tp716
tp717
aa(lp718
(g2
(g6
S'\x01\x00\x00\x00'
p719
tp720
Rp721
(I0
I53
tp722
tp723
a(g2
(g6
S'\x06\x00\x00\x00'
p724
tp725
Rp726
(I53
I67
tp727
tp728
a(g2
(g6
S'\x03\x00\x00\x00'
p729
tp730
Rp731
(I67
I114
tp732
tp733
aa(lp734
(g2
(g6
S'\x01\x00\x00\x00'
p735
tp736
Rp737
(I0
I54
tp738
tp739
a(g2
(g6
S'\x03\x00\x00\x00'
p740
tp741
Rp742
(I54
I114
tp743
tp744
aa(lp745
(g2
(g6
S'\x01\x00\x00\x00'
p746
tp747
Rp748
(I0
I54
tp749
tp750
a(g2
(g6
S'\x03\x00\x00\x00'
p751
tp752
Rp753
(I54
I114
tp754
tp755
aa(lp756
(g2
(g6
S'\x01\x00\x00\x00'
p757
tp758
Rp759
(I0
I54
tp760
tp761
a(g2
(g6
S'\x03\x00\x00\x00'
p762
tp763
Rp764
(I54
I114
tp765
tp766
aa(lp767
(g2
(g6
S'\x01\x00\x00\x00'
p768
tp769
Rp770
(I0
I54
tp771
tp772
a(g2
(g6
S'\x03\x00\x00\x00'
p773
tp774
Rp775
(I54
I114
tp776
tp777
aa(lp778
(g2
(g6
S'\x01\x00\x00\x00'
p779
tp780
Rp781
(I0
I54
tp782
tp783
a(g2
(g6
S'\x03\x00\x00\x00'
p784
tp785
Rp786
(I54
I114
tp787
tp788
aa(lp789
(g2
(g6
S'\x01\x00\x00\x00'
p790
tp791
Rp792
(I0
I54
tp793
tp794
a(g2
(g6
S'\x03\x00\x00\x00'
p795
tp796
Rp797
(I54
I114
tp798
tp799
aa(lp800
(g2
(g6
S'\x01\x00\x00\x00'
p801
tp802
Rp803
(I0
I54
tp804
tp805
a(g2
(g6
S'\x03\x00\x00\x00'
p806
tp807
Rp808
(I54
I114
tp809
tp810
aa(lp811
(g2
(g6
S'\x01\x00\x00\x00'
p812
tp813
Rp814
(I0
I54
tp815
tp816
a(g2
(g6
S'\x03\x00\x00\x00'
p817
tp818
Rp819
(I54
I114
tp820
tp821
aa(lp822
(g2
(g6
S'\x01\x00\x00\x00'
p823
tp824
Rp825
(I0
I54
tp826
tp827
a(g2
(g6
S'\x03\x00\x00\x00'
p828
tp829
Rp830
(I54
I114
tp831
tp832
aa(lp833
(g2
(g6
S'\x01\x00\x00\x00'
p834
tp835
Rp836
(I0
I54
tp837
tp838
a(g2
(g6
S'\x03\x00\x00\x00'
p839
tp840
Rp841
(I54
I114
tp842
tp843
aa(lp844
(g2
(g6
S'\x01\x00\x00\x00'
p845
tp846
Rp847
(I0
I54
tp848
tp849
a(g2
(g6
S'\x03\x00\x00\x00'
p850
tp851
Rp852
(I54
I114
tp853
tp854
aa(lp855
(g2
(g6
S'\x01\x00\x00\x00'
p856
tp857
Rp858
(I0
I54
tp859
tp860
a(g2
(g6
S'\x03\x00\x00\x00'
p861
tp862
Rp863
(I54
I114
tp864
tp865
aa(lp866
(g2
(g6
S'\x01\x00\x00\x00'
p867
tp868
Rp869
(I0
I54
tp870
tp871
a(g2
(g6
S'\x03\x00\x00\x00'
p872
tp873
Rp874
(I54
I114
tp875
tp876
aa(lp877
(g2
(g6
S'\x01\x00\x00\x00'
p878
tp879
Rp880
(I0
I54
tp881
tp882
a(g2
(g6
S'\x03\x00\x00\x00'
p883
tp884
Rp885
(I54
I114
tp886
tp887
aa(lp888
(g2
(g6
S'\x01\x00\x00\x00'
p889
tp890
Rp891
(I0
I54
tp892
tp893
a(g2
(g6
S'\x03\x00\x00\x00'
p894
tp895
Rp896
(I54
I114
tp897
tp898
aa(lp899
(g2
(g6
S'\x01\x00\x00\x00'
p900
tp901
Rp902
(I0
I54
tp903
tp904
a(g2
(g6
S'\x03\x00\x00\x00'
p905
tp906
Rp907
(I54
I114
tp908
tp909
aa(lp910
(g2
(g6
S'\x01\x00\x00\x00'
p911
tp912
Rp913
(I0
I54
tp914
tp915
a(g2
(g6
S'\x03\x00\x00\x00'
p916
tp917
Rp918
(I54
I114
tp919
tp920
aa(lp921
(g2
(g6
S'\x01\x00\x00\x00'
p922
tp923
Rp924
(I0
I54
tp925
tp926
a(g2
(g6
S'\x03\x00\x00\x00'
p927
tp928
Rp929
(I54
I114
tp930
tp931
aa(lp932
(g2
(g6
S'\x01\x00\x00\x00'
p933
tp934
Rp935
(I0
I53
tp936
tp937
a(g2
(g6
S'\x06\x00\x00\x00'
p938
tp939
Rp940
(I53
I64
tp941
tp942
a(g2
(g6
S'\x03\x00\x00\x00'
p943
tp944
Rp945
(I64
I114
tp946
tp947
aa(lp948
(g2
(g6
S'\x01\x00\x00\x00'
p949
tp950
Rp951
(I0
I52
tp952
tp953
a(g2
(g6
S'\x06\x00\x00\x00'
p954
tp955
Rp956
(I52
I69
tp957
tp958
a(g2
(g6
S'\x03\x00\x00\x00'
p959
tp960
Rp961
(I69
I114
tp962
tp963
aa(lp964
(g2
(g6
S'\x01\x00\x00\x00'
p965
tp966
Rp967
(I0
I52
tp968
tp969
a(g2
(g6
S'\x06\x00\x00\x00'
p970
tp971
Rp972
(I52
I65
tp973
tp974
a(g2
(g6
S'\x03\x00\x00\x00'
p975
tp976
Rp977
(I65
I114
tp978
tp979
aa(lp980
(g2
(g6
S'\x01\x00\x00\x00'
p981
tp982
Rp983
(I0
I53
tp984
tp985
a(g2
(g6
S'\x06\x00\x00\x00'
p986
tp987
Rp988
(I53
I69
tp989
tp990
a(g2
(g6
S'\x03\x00\x00\x00'
p991
tp992
Rp993
(I69
I114
tp994
tp995
aa(lp996
(g2
(g6
S'\x01\x00\x00\x00'
p997
tp998
Rp999
(I0
I52
tp1000
tp1001
a(g2
(g6
S'\x06\x00\x00\x00'
p1002
tp1003
Rp1004
(I52
I69
tp1005
tp1006
a(g2
(g6
S'\x03\x00\x00\x00'
p1007
tp1008
Rp1009
(I69
I114
tp1010
tp1011
aa(lp1012
(g2
(g6
S'\x01\x00\x00\x00'
p1013
tp1014
Rp1015
(I0
I53
tp1016
tp1017
a(g2
(g6
S'\x06\x00\x00\x00'
p1018
tp1019
Rp1020
(I53
I69
tp1021
tp1022
a(g2
(g6
S'\x03\x00\x00\x00'
p1023
tp1024
Rp1025
(I69
I114
tp1026
tp1027
aa(lp1028
(g2
(g6
S'\x01\x00\x00\x00'
p1029
tp1030
Rp1031
(I0
I53
tp1032
tp1033
a(g2
(g6
S'\x06\x00\x00\x00'
p1034
tp1035
Rp1036
(I53
I66
tp1037
tp1038
a(g2
(g6
S'\x03\x00\x00\x00'
p1039
tp1040
Rp1041
(I66
I114
tp1042
tp1043
aa(lp1044
(g2
(g6
S'\x01\x00\x00\x00'
p1045
tp1046
Rp1047
(I0
I53
tp1048
tp1049
a(g2
(g6
S'\x06\x00\x00\x00'
p1050
tp1051
Rp1052
(I53
I68
tp1053
tp1054
a(g2
(g6
S'\x03\x00\x00\x00'
p1055
tp1056
Rp1057
(I68
I114
tp1058
tp1059
aa(lp1060
(g2
(g6
S'\x01\x00\x00\x00'
p1061
tp1062
Rp1063
(I0
I53
tp1064
tp1065
a(g2
(g6
S'\x06\x00\x00\x00'
p1066
tp1067
Rp1068
(I53
I70
tp1069
tp1070
a(g2
(g6
S'\x03\x00\x00\x00'
p1071
tp1072
Rp1073
(I70
I114
tp1074
tp1075
aa(lp1076
(g2
(g6
S'\x01\x00\x00\x00'
p1077
tp1078
Rp1079
(I0
I53
tp1080
tp1081
a(g2
(g6
S'\x06\x00\x00\x00'
p1082
tp1083
Rp1084
(I53
I71
tp1085
tp1086
a(g2
(g6
S'\x03\x00\x00\x00'
p1087
tp1088
Rp1089
(I71
I114
tp1090
tp1091
aa(lp1092
(g2
(g6
S'\x01\x00\x00\x00'
p1093
tp1094
Rp1095
(I0
I53
tp1096
tp1097
a(g2
(g6
S'\x06\x00\x00\x00'
p1098
tp1099
Rp1100
(I53
I68
tp1101
tp1102
a(g2
(g6
S'\x03\x00\x00\x00'
p1103
tp1104
Rp1105
(I68
I114
tp1106
tp1107
aa(lp1108
(g2
(g6
S'\x01\x00\x00\x00'
p1109
tp1110
Rp1111
(I0
I53
tp1112
tp1113
a(g2
(g6
S'\x06\x00\x00\x00'
p1114
tp1115
Rp1116
(I53
I65
tp1117
tp1118
a(g2
(g6
S'\x03\x00\x00\x00'
p1119
tp1120
Rp1121
(I65
I114
tp1122
tp1123
aa(lp1124
(g2
(g6
S'\x01\x00\x00\x00'
p1125
tp1126
Rp1127
(I0
I53
tp1128
tp1129
a(g2
(g6
S'\x06\x00\x00\x00'
p1130
tp1131
Rp1132
(I53
I68
tp1133
tp1134
a(g2
(g6
S'\x03\x00\x00\x00'
p1135
tp1136
Rp1137
(I68
I114
tp1138
tp1139
aa(lp1140
(g2
(g6
S'\x01\x00\x00\x00'
p1141
tp1142
Rp1143
(I0
I54
tp1144
tp1145
a(g2
(g6
S'\x03\x00\x00\x00'
p1146
tp1147
Rp1148
(I54
I114
tp1149
tp1150
aa(lp1151
(g2
(g6
S'\x01\x00\x00\x00'
p1152
tp1153
Rp1154
(I0
I54
tp1155
tp1156
a(g2
(g6
S'\x03\x00\x00\x00'
p1157
tp1158
Rp1159
(I54
I114
tp1160
tp1161
aa(lp1162
(g2
(g6
S'\x01\x00\x00\x00'
p1163
tp1164
Rp1165
(I0
I54
tp1166
tp1167
a(g2
(g6
S'\x03\x00\x00\x00'
p1168
tp1169
Rp1170
(I54
I114
tp1171
tp1172
aa(lp1173
(g2
(g6
S'\x01\x00\x00\x00'
p1174
tp1175
Rp1176
(I0
I54
tp1177
tp1178
a(g2
(g6
S'\x03\x00\x00\x00'
p1179
tp1180
Rp1181
(I54
I114
tp1182
tp1183
aa(lp1184
(g2
(g6
S'\x01\x00\x00\x00'
p1185
tp1186
Rp1187
(I0
I54
tp1188
tp1189
a(g2
(g6
S'\x03\x00\x00\x00'
p1190
tp1191
Rp1192
(I54
I114
tp1193
tp1194
aa(lp1195
(g2
(g6
S'\x01\x00\x00\x00'
p1196
tp1197
Rp1198
(I0
I53
tp1199
tp1200
a(g2
(g6
S'\x06\x00\x00\x00'
p1201
tp1202
Rp1203
(I53
I69
tp1204
tp1205
a(g2
(g6
S'\x03\x00\x00\x00'
p1206
tp1207
Rp1208
(I69
I114
tp1209
tp1210
aa(lp1211
(g2
(g6
S'\x01\x00\x00\x00'
p1212
tp1213
Rp1214
(I0
I52
tp1215
tp1216
a(g2
(g6
S'\x06\x00\x00\x00'
p1217
tp1218
Rp1219
(I52
I81
tp1220
tp1221
a(g2
(g6
S'\x03\x00\x00\x00'
p1222
tp1223
Rp1224
(I81
I114
tp1225
tp1226
aa(lp1227
(g2
(g6
S'\x01\x00\x00\x00'
p1228
tp1229
Rp1230
(I0
I53
tp1231
tp1232
a(g2
(g6
S'\x06\x00\x00\x00'
p1233
tp1234
Rp1235
(I53
I81
tp1236
tp1237
a(g2
(g6
S'\x03\x00\x00\x00'
p1238
tp1239
Rp1240
(I81
I114
tp1241
tp1242
aa.