(lp0
(lp1
(cnumpy.core.multiarray
scalar
p2
(cnumpy
dtype
p3
(S'i4'
p4
I0
I1
tp5
Rp6
(I3
S'<'
p7
NNNI-1
I-1
I0
tp8
bS'\x01\x00\x00\x00'
p9
tp10
Rp11
(I0
I59
tp12
tp13
a(g2
(g6
S'\x01\x00\x00\x00'
p14
tp15
Rp16
(I59
I118
tp17
tp18
a(g2
(g6
S'\x01\x00\x00\x00'
p19
tp20
Rp21
(I118
I161
tp22
tp23
aa(lp24
(g2
(g6
S'\x01\x00\x00\x00'
p25
tp26
Rp27
(I0
I60
tp28
tp29
a(g2
(g6
S'\x01\x00\x00\x00'
p30
tp31
Rp32
(I60
I120
tp33
tp34
a(g2
(g6
S'\x04\x00\x00\x00'
p35
tp36
Rp37
(I120
I161
tp38
tp39
aa(lp40
(g2
(g6
S'\x01\x00\x00\x00'
p41
tp42
Rp43
(I0
I58
tp44
tp45
a(g2
(g6
S'\x04\x00\x00\x00'
p46
tp47
Rp48
(I58
I93
tp49
tp50
a(g2
(g6
S'\x02\x00\x00\x00'
p51
tp52
Rp53
(I93
I125
tp54
tp55
a(g2
(g6
S'\x04\x00\x00\x00'
p56
tp57
Rp58
(I125
I161
tp59
tp60
aa(lp61
(g2
(g6
S'\x01\x00\x00\x00'
p62
tp63
Rp64
(I0
I59
tp65
tp66
a(g2
(g6
S'\x01\x00\x00\x00'
p67
tp68
Rp69
(I59
I114
tp70
tp71
a(g2
(g6
S'\x00\x00\x00\x00'
p72
tp73
Rp74
(I114
I161
tp75
tp76
aa(lp77
(g2
(g6
S'\x01\x00\x00\x00'
p78
tp79
Rp80
(I0
I59
tp81
tp82
a(g2
(g6
S'\x04\x00\x00\x00'
p83
tp84
Rp85
(I59
I80
tp86
tp87
a(g2
(g6
S'\x03\x00\x00\x00'
p88
tp89
Rp90
(I80
I129
tp91
tp92
a(g2
(g6
S'\x04\x00\x00\x00'
p93
tp94
Rp95
(I129
I161
tp96
tp97
aa(lp98
(g2
(g6
S'\x01\x00\x00\x00'
p99
tp100
Rp101
(I0
I58
tp102
tp103
a(g2
(g6
S'\x04\x00\x00\x00'
p104
tp105
Rp106
(I58
I85
tp107
tp108
a(g2
(g6
S'\x03\x00\x00\x00'
p109
tp110
Rp111
(I85
I130
tp112
tp113
a(g2
(g6
S'\x04\x00\x00\x00'
p114
tp115
Rp116
(I130
I161
tp117
tp118
aa(lp119
(g2
(g6
S'\x01\x00\x00\x00'
p120
tp121
Rp122
(I0
I59
tp123
tp124
a(g2
(g6
S'\x01\x00\x00\x00'
p125
tp126
Rp127
(I59
I113
tp128
tp129
a(g2
(g6
S'\x00\x00\x00\x00'
p130
tp131
Rp132
(I113
I161
tp133
tp134
aa(lp135
(g2
(g6
S'\x01\x00\x00\x00'
p136
tp137
Rp138
(I0
I59
tp139
tp140
a(g2
(g6
S'\x01\x00\x00\x00'
p141
tp142
Rp143
(I59
I110
tp144
tp145
a(g2
(g6
S'\x00\x00\x00\x00'
p146
tp147
Rp148
(I110
I161
tp149
tp150
aa(lp151
(g2
(g6
S'\x01\x00\x00\x00'
p152
tp153
Rp154
(I0
I58
tp155
tp156
a(g2
(g6
S'\x06\x00\x00\x00'
p157
tp158
Rp159
(I58
I83
tp160
tp161
a(g2
(g6
S'\x03\x00\x00\x00'
p162
tp163
Rp164
(I83
I129
tp165
tp166
a(g2
(g6
S'\x04\x00\x00\x00'
p167
tp168
Rp169
(I129
I161
tp170
tp171
aa(lp172
(g2
(g6
S'\x01\x00\x00\x00'
p173
tp174
Rp175
(I0
I58
tp176
tp177
a(g2
(g6
S'\x06\x00\x00\x00'
p178
tp179
Rp180
(I58
I75
tp181
tp182
a(g2
(g6
S'\x03\x00\x00\x00'
p183
tp184
Rp185
(I75
I129
tp186
tp187
a(g2
(g6
S'\x04\x00\x00\x00'
p188
tp189
Rp190
(I129
I161
tp191
tp192
aa(lp193
(g2
(g6
S'\x01\x00\x00\x00'
p194
tp195
Rp196
(I0
I58
tp197
tp198
a(g2
(g6
S'\x06\x00\x00\x00'
p199
tp200
Rp201
(I58
I96
tp202
tp203
a(g2
(g6
S'\x00\x00\x00\x00'
p204
tp205
Rp206
(I96
I152
tp207
tp208
a(g2
(g6
S'\x05\x00\x00\x00'
p209
tp210
Rp211
(I152
I161
tp212
tp213
aa(lp214
(g2
(g6
S'\x01\x00\x00\x00'
p215
tp216
Rp217
(I0
I59
tp218
tp219
a(g2
(g6
S'\x06\x00\x00\x00'
p220
tp221
Rp222
(I59
I96
tp223
tp224
a(g2
(g6
S'\x00\x00\x00\x00'
p225
tp226
Rp227
(I96
I154
tp228
tp229
a(g2
(g6
S'\x05\x00\x00\x00'
p230
tp231
Rp232
(I154
I161
tp233
tp234
aa(lp235
(g2
(g6
S'\x01\x00\x00\x00'
p236
tp237
Rp238
(I0
I58
tp239
tp240
a(g2
(g6
S'\x06\x00\x00\x00'
p241
tp242
Rp243
(I58
I96
tp244
tp245
a(g2
(g6
S'\x00\x00\x00\x00'
p246
tp247
Rp248
(I96
I153
tp249
tp250
a(g2
(g6
S'\x05\x00\x00\x00'
p251
tp252
Rp253
(I153
I161
tp254
tp255
aa(lp256
(g2
(g6
S'\x01\x00\x00\x00'
p257
tp258
Rp259
(I0
I58
tp260
tp261
a(g2
(g6
S'\x06\x00\x00\x00'
p262
tp263
Rp264
(I58
I95
tp265
tp266
a(g2
(g6
S'\x00\x00\x00\x00'
p267
tp268
Rp269
(I95
I155
tp270
tp271
a(g2
(g6
S'\x05\x00\x00\x00'
p272
tp273
Rp274
(I155
I161
tp275
tp276
aa(lp277
(g2
(g6
S'\x01\x00\x00\x00'
p278
tp279
Rp280
(I0
I59
tp281
tp282
a(g2
(g6
S'\x06\x00\x00\x00'
p283
tp284
Rp285
(I59
I95
tp286
tp287
a(g2
(g6
S'\x00\x00\x00\x00'
p288
tp289
Rp290
(I95
I154
tp291
tp292
a(g2
(g6
S'\x05\x00\x00\x00'
p293
tp294
Rp295
(I154
I161
tp296
tp297
aa(lp298
(g2
(g6
S'\x01\x00\x00\x00'
p299
tp300
Rp301
(I0
I58
tp302
tp303
a(g2
(g6
S'\x06\x00\x00\x00'
p304
tp305
Rp306
(I58
I95
tp307
tp308
a(g2
(g6
S'\x00\x00\x00\x00'
p309
tp310
Rp311
(I95
I152
tp312
tp313
a(g2
(g6
S'\x05\x00\x00\x00'
p314
tp315
Rp316
(I152
I161
tp317
tp318
aa(lp319
(g2
(g6
S'\x01\x00\x00\x00'
p320
tp321
Rp322
(I0
I59
tp323
tp324
a(g2
(g6
S'\x06\x00\x00\x00'
p325
tp326
Rp327
(I59
I78
tp328
tp329
a(g2
(g6
S'\x06\x00\x00\x00'
p330
tp331
Rp332
(I78
I96
tp333
tp334
a(g2
(g6
S'\x00\x00\x00\x00'
p335
tp336
Rp337
(I96
I151
tp338
tp339
a(g2
(g6
S'\x05\x00\x00\x00'
p340
tp341
Rp342
(I151
I161
tp343
tp344
aa(lp345
(g2
(g6
S'\x01\x00\x00\x00'
p346
tp347
Rp348
(I0
I59
tp349
tp350
a(g2
(g6
S'\x06\x00\x00\x00'
p351
tp352
Rp353
(I59
I76
tp354
tp355
a(g2
(g6
S'\x06\x00\x00\x00'
p356
tp357
Rp358
(I76
I96
tp359
tp360
a(g2
(g6
S'\x00\x00\x00\x00'
p361
tp362
Rp363
(I96
I152
tp364
tp365
a(g2
(g6
S'\x05\x00\x00\x00'
p366
tp367
Rp368
(I152
I161
tp369
tp370
aa(lp371
(g2
(g6
S'\x01\x00\x00\x00'
p372
tp373
Rp374
(I0
I59
tp375
tp376
a(g2
(g6
S'\x06\x00\x00\x00'
p377
tp378
Rp379
(I59
I77
tp380
tp381
a(g2
(g6
S'\x06\x00\x00\x00'
p382
tp383
Rp384
(I77
I96
tp385
tp386
a(g2
(g6
S'\x00\x00\x00\x00'
p387
tp388
Rp389
(I96
I152
tp390
tp391
a(g2
(g6
S'\x05\x00\x00\x00'
p392
tp393
Rp394
(I152
I161
tp395
tp396
aa(lp397
(g2
(g6
S'\x01\x00\x00\x00'
p398
tp399
Rp400
(I0
I59
tp401
tp402
a(g2
(g6
S'\x06\x00\x00\x00'
p403
tp404
Rp405
(I59
I75
tp406
tp407
a(g2
(g6
S'\x06\x00\x00\x00'
p408
tp409
Rp410
(I75
I95
tp411
tp412
a(g2
(g6
S'\x00\x00\x00\x00'
p413
tp414
Rp415
(I95
I152
tp416
tp417
a(g2
(g6
S'\x05\x00\x00\x00'
p418
tp419
Rp420
(I152
I161
tp421
tp422
aa(lp423
(g2
(g6
S'\x01\x00\x00\x00'
p424
tp425
Rp426
(I0
I57
tp427
tp428
a(g2
(g6
S'\x06\x00\x00\x00'
p429
tp430
Rp431
(I57
I73
tp432
tp433
a(g2
(g6
S'\x03\x00\x00\x00'
p434
tp435
Rp436
(I73
I129
tp437
tp438
a(g2
(g6
S'\x04\x00\x00\x00'
p439
tp440
Rp441
(I129
I161
tp442
tp443
aa(lp444
(g2
(g6
S'\x01\x00\x00\x00'
p445
tp446
Rp447
(I0
I58
tp448
tp449
a(g2
(g6
S'\x06\x00\x00\x00'
p450
tp451
Rp452
(I58
I77
tp453
tp454
a(g2
(g6
S'\x06\x00\x00\x00'
p455
tp456
Rp457
(I77
I95
tp458
tp459
a(g2
(g6
S'\x00\x00\x00\x00'
p460
tp461
Rp462
(I95
I151
tp463
tp464
a(g2
(g6
S'\x05\x00\x00\x00'
p465
tp466
Rp467
(I151
I161
tp468
tp469
aa(lp470
(g2
(g6
S'\x01\x00\x00\x00'
p471
tp472
Rp473
(I0
I59
tp474
tp475
a(g2
(g6
S'\x06\x00\x00\x00'
p476
tp477
Rp478
(I59
I78
tp479
tp480
a(g2
(g6
S'\x06\x00\x00\x00'
p481
tp482
Rp483
(I78
I95
tp484
tp485
a(g2
(g6
S'\x00\x00\x00\x00'
p486
tp487
Rp488
(I95
I154
tp489
tp490
a(g2
(g6
S'\x05\x00\x00\x00'
p491
tp492
Rp493
(I154
I161
tp494
tp495
aa(lp496
(g2
(g6
S'\x01\x00\x00\x00'
p497
tp498
Rp499
(I0
I58
tp500
tp501
a(g2
(g6
S'\x06\x00\x00\x00'
p502
tp503
Rp504
(I58
I77
tp505
tp506
a(g2
(g6
S'\x06\x00\x00\x00'
p507
tp508
Rp509
(I77
I96
tp510
tp511
a(g2
(g6
S'\x00\x00\x00\x00'
p512
tp513
Rp514
(I96
I151
tp515
tp516
a(g2
(g6
S'\x05\x00\x00\x00'
p517
tp518
Rp519
(I151
I161
tp520
tp521
aa(lp522
(g2
(g6
S'\x01\x00\x00\x00'
p523
tp524
Rp525
(I0
I59
tp526
tp527
a(g2
(g6
S'\x06\x00\x00\x00'
p528
tp529
Rp530
(I59
I78
tp531
tp532
a(g2
(g6
S'\x06\x00\x00\x00'
p533
tp534
Rp535
(I78
I96
tp536
tp537
a(g2
(g6
S'\x00\x00\x00\x00'
p538
tp539
Rp540
(I96
I153
tp541
tp542
a(g2
(g6
S'\x05\x00\x00\x00'
p543
tp544
Rp545
(I153
I161
tp546
tp547
aa(lp548
(g2
(g6
S'\x01\x00\x00\x00'
p549
tp550
Rp551
(I0
I58
tp552
tp553
a(g2
(g6
S'\x06\x00\x00\x00'
p554
tp555
Rp556
(I58
I75
tp557
tp558
a(g2
(g6
S'\x06\x00\x00\x00'
p559
tp560
Rp561
(I75
I96
tp562
tp563
a(g2
(g6
S'\x00\x00\x00\x00'
p564
tp565
Rp566
(I96
I152
tp567
tp568
a(g2
(g6
S'\x05\x00\x00\x00'
p569
tp570
Rp571
(I152
I161
tp572
tp573
aa(lp574
(g2
(g6
S'\x01\x00\x00\x00'
p575
tp576
Rp577
(I0
I59
tp578
tp579
a(g2
(g6
S'\x06\x00\x00\x00'
p580
tp581
Rp582
(I59
I78
tp583
tp584
a(g2
(g6
S'\x06\x00\x00\x00'
p585
tp586
Rp587
(I78
I96
tp588
tp589
a(g2
(g6
S'\x00\x00\x00\x00'
p590
tp591
Rp592
(I96
I152
tp593
tp594
a(g2
(g6
S'\x05\x00\x00\x00'
p595
tp596
Rp597
(I152
I161
tp598
tp599
aa(lp600
(g2
(g6
S'\x01\x00\x00\x00'
p601
tp602
Rp603
(I0
I58
tp604
tp605
a(g2
(g6
S'\x06\x00\x00\x00'
p606
tp607
Rp608
(I58
I79
tp609
tp610
a(g2
(g6
S'\x06\x00\x00\x00'
p611
tp612
Rp613
(I79
I97
tp614
tp615
a(g2
(g6
S'\x00\x00\x00\x00'
p616
tp617
Rp618
(I97
I150
tp619
tp620
a(g2
(g6
S'\x05\x00\x00\x00'
p621
tp622
Rp623
(I150
I161
tp624
tp625
aa(lp626
(g2
(g6
S'\x01\x00\x00\x00'
p627
tp628
Rp629
(I0
I58
tp630
tp631
a(g2
(g6
S'\x06\x00\x00\x00'
p632
tp633
Rp634
(I58
I75
tp635
tp636
a(g2
(g6
S'\x03\x00\x00\x00'
p637
tp638
Rp639
(I75
I129
tp640
tp641
a(g2
(g6
S'\x04\x00\x00\x00'
p642
tp643
Rp644
(I129
I161
tp645
tp646
aa(lp647
(g2
(g6
S'\x01\x00\x00\x00'
p648
tp649
Rp650
(I0
I59
tp651
tp652
a(g2
(g6
S'\x06\x00\x00\x00'
p653
tp654
Rp655
(I59
I75
tp656
tp657
a(g2
(g6
S'\x03\x00\x00\x00'
p658
tp659
Rp660
(I75
I128
tp661
tp662
a(g2
(g6
S'\x04\x00\x00\x00'
p663
tp664
Rp665
(I128
I161
tp666
tp667
aa(lp668
(g2
(g6
S'\x01\x00\x00\x00'
p669
tp670
Rp671
(I0
I58
tp672
tp673
a(g2
(g6
S'\x06\x00\x00\x00'
p674
tp675
Rp676
(I58
I72
tp677
tp678
a(g2
(g6
S'\x03\x00\x00\x00'
p679
tp680
Rp681
(I72
I128
tp682
tp683
a(g2
(g6
S'\x04\x00\x00\x00'
p684
tp685
Rp686
(I128
I161
tp687
tp688
aa(lp689
(g2
(g6
S'\x01\x00\x00\x00'
p690
tp691
Rp692
(I0
I59
tp693
tp694
a(g2
(g6
S'\x06\x00\x00\x00'
p695
tp696
Rp697
(I59
I74
tp698
tp699
a(g2
(g6
S'\x06\x00\x00\x00'
p700
tp701
Rp702
(I74
I95
tp703
tp704
a(g2
(g6
S'\x00\x00\x00\x00'
p705
tp706
Rp707
(I95
I151
tp708
tp709
a(g2
(g6
S'\x05\x00\x00\x00'
p710
tp711
Rp712
(I151
I161
tp713
tp714
aa(lp715
(g2
(g6
S'\x01\x00\x00\x00'
p716
tp717
Rp718
(I0
I59
tp719
tp720
a(g2
(g6
S'\x06\x00\x00\x00'
p721
tp722
Rp723
(I59
I76
tp724
tp725
a(g2
(g6
S'\x06\x00\x00\x00'
p726
tp727
Rp728
(I76
I96
tp729
tp730
a(g2
(g6
S'\x00\x00\x00\x00'
p731
tp732
Rp733
(I96
I152
tp734
tp735
a(g2
(g6
S'\x05\x00\x00\x00'
p736
tp737
Rp738
(I152
I161
tp739
tp740
aa(lp741
(g2
(g6
S'\x01\x00\x00\x00'
p742
tp743
Rp744
(I0
I58
tp745
tp746
a(g2
(g6
S'\x06\x00\x00\x00'
p747
tp748
Rp749
(I58
I76
tp750
tp751
a(g2
(g6
S'\x06\x00\x00\x00'
p752
tp753
Rp754
(I76
I96
tp755
tp756
a(g2
(g6
S'\x00\x00\x00\x00'
p757
tp758
Rp759
(I96
I151
tp760
tp761
a(g2
(g6
S'\x05\x00\x00\x00'
p762
tp763
Rp764
(I151
I161
tp765
tp766
aa(lp767
(g2
(g6
S'\x01\x00\x00\x00'
p768
tp769
Rp770
(I0
I58
tp771
tp772
a(g2
(g6
S'\x06\x00\x00\x00'
p773
tp774
Rp775
(I58
I79
tp776
tp777
a(g2
(g6
S'\x03\x00\x00\x00'
p778
tp779
Rp780
(I79
I129
tp781
tp782
a(g2
(g6
S'\x04\x00\x00\x00'
p783
tp784
Rp785
(I129
I161
tp786
tp787
aa(lp788
(g2
(g6
S'\x01\x00\x00\x00'
p789
tp790
Rp791
(I0
I58
tp792
tp793
a(g2
(g6
S'\x06\x00\x00\x00'
p794
tp795
Rp796
(I58
I77
tp797
tp798
a(g2
(g6
S'\x03\x00\x00\x00'
p799
tp800
Rp801
(I77
I129
tp802
tp803
a(g2
(g6
S'\x04\x00\x00\x00'
p804
tp805
Rp806
(I129
I161
tp807
tp808
aa(lp809
(g2
(g6
S'\x01\x00\x00\x00'
p810
tp811
Rp812
(I0
I59
tp813
tp814
a(g2
(g6
S'\x06\x00\x00\x00'
p815
tp816
Rp817
(I59
I77
tp818
tp819
a(g2
(g6
S'\x03\x00\x00\x00'
p820
tp821
Rp822
(I77
I128
tp823
tp824
a(g2
(g6
S'\x04\x00\x00\x00'
p825
tp826
Rp827
(I128
I161
tp828
tp829
aa(lp830
(g2
(g6
S'\x01\x00\x00\x00'
p831
tp832
Rp833
(I0
I59
tp834
tp835
a(g2
(g6
S'\x06\x00\x00\x00'
p836
tp837
Rp838
(I59
I76
tp839
tp840
a(g2
(g6
S'\x06\x00\x00\x00'
p841
tp842
Rp843
(I76
I96
tp844
tp845
a(g2
(g6
S'\x00\x00\x00\x00'
p846
tp847
Rp848
(I96
I154
tp849
tp850
a(g2
(g6
S'\x05\x00\x00\x00'
p851
tp852
Rp853
(I154
I161
tp854
tp855
aa(lp856
(g2
(g6
S'\x01\x00\x00\x00'
p857
tp858
Rp859
(I0
I58
tp860
tp861
a(g2
(g6
S'\x06\x00\x00\x00'
p862
tp863
Rp864
(I58
I77
tp865
tp866
a(g2
(g6
S'\x03\x00\x00\x00'
p867
tp868
Rp869
(I77
I129
tp870
tp871
a(g2
(g6
S'\x04\x00\x00\x00'
p872
tp873
Rp874
(I129
I161
tp875
tp876
aa(lp877
(g2
(g6
S'\x01\x00\x00\x00'
p878
tp879
Rp880
(I0
I59
tp881
tp882
a(g2
(g6
S'\x06\x00\x00\x00'
p883
tp884
Rp885
(I59
I75
tp886
tp887
a(g2
(g6
S'\x03\x00\x00\x00'
p888
tp889
Rp890
(I75
I129
tp891
tp892
a(g2
(g6
S'\x04\x00\x00\x00'
p893
tp894
Rp895
(I129
I161
tp896
tp897
aa(lp898
(g2
(g6
S'\x01\x00\x00\x00'
p899
tp900
Rp901
(I0
I59
tp902
tp903
a(g2
(g6
S'\x06\x00\x00\x00'
p904
tp905
Rp906
(I59
I76
tp907
tp908
a(g2
(g6
S'\x03\x00\x00\x00'
p909
tp910
Rp911
(I76
I129
tp912
tp913
a(g2
(g6
S'\x04\x00\x00\x00'
p914
tp915
Rp916
(I129
I161
tp917
tp918
aa(lp919
(g2
(g6
S'\x01\x00\x00\x00'
p920
tp921
Rp922
(I0
I58
tp923
tp924
a(g2
(g6
S'\x06\x00\x00\x00'
p925
tp926
Rp927
(I58
I78
tp928
tp929
a(g2
(g6
S'\x03\x00\x00\x00'
p930
tp931
Rp932
(I78
I128
tp933
tp934
a(g2
(g6
S'\x04\x00\x00\x00'
p935
tp936
Rp937
(I128
I161
tp938
tp939
aa(lp940
(g2
(g6
S'\x01\x00\x00\x00'
p941
tp942
Rp943
(I0
I58
tp944
tp945
a(g2
(g6
S'\x06\x00\x00\x00'
p946
tp947
Rp948
(I58
I78
tp949
tp950
a(g2
(g6
S'\x03\x00\x00\x00'
p951
tp952
Rp953
(I78
I129
tp954
tp955
a(g2
(g6
S'\x04\x00\x00\x00'
p956
tp957
Rp958
(I129
I161
tp959
tp960
aa(lp961
(g2
(g6
S'\x01\x00\x00\x00'
p962
tp963
Rp964
(I0
I58
tp965
tp966
a(g2
(g6
S'\x06\x00\x00\x00'
p967
tp968
Rp969
(I58
I75
tp970
tp971
a(g2
(g6
S'\x06\x00\x00\x00'
p972
tp973
Rp974
(I75
I96
tp975
tp976
a(g2
(g6
S'\x00\x00\x00\x00'
p977
tp978
Rp979
(I96
I154
tp980
tp981
a(g2
(g6
S'\x05\x00\x00\x00'
p982
tp983
Rp984
(I154
I161
tp985
tp986
aa(lp987
(g2
(g6
S'\x01\x00\x00\x00'
p988
tp989
Rp990
(I0
I58
tp991
tp992
a(g2
(g6
S'\x06\x00\x00\x00'
p993
tp994
Rp995
(I58
I77
tp996
tp997
a(g2
(g6
S'\x06\x00\x00\x00'
p998
tp999
Rp1000
(I77
I95
tp1001
tp1002
a(g2
(g6
S'\x00\x00\x00\x00'
p1003
tp1004
Rp1005
(I95
I154
tp1006
tp1007
a(g2
(g6
S'\x05\x00\x00\x00'
p1008
tp1009
Rp1010
(I154
I161
tp1011
tp1012
aa(lp1013
(g2
(g6
S'\x01\x00\x00\x00'
p1014
tp1015
Rp1016
(I0
I58
tp1017
tp1018
a(g2
(g6
S'\x06\x00\x00\x00'
p1019
tp1020
Rp1021
(I58
I76
tp1022
tp1023
a(g2
(g6
S'\x03\x00\x00\x00'
p1024
tp1025
Rp1026
(I76
I129
tp1027
tp1028
a(g2
(g6
S'\x04\x00\x00\x00'
p1029
tp1030
Rp1031
(I129
I161
tp1032
tp1033
aa(lp1034
(g2
(g6
S'\x01\x00\x00\x00'
p1035
tp1036
Rp1037
(I0
I59
tp1038
tp1039
a(g2
(g6
S'\x06\x00\x00\x00'
p1040
tp1041
Rp1042
(I59
I78
tp1043
tp1044
a(g2
(g6
S'\x03\x00\x00\x00'
p1045
tp1046
Rp1047
(I78
I129
tp1048
tp1049
a(g2
(g6
S'\x04\x00\x00\x00'
p1050
tp1051
Rp1052
(I129
I161
tp1053
tp1054
aa(lp1055
(g2
(g6
S'\x01\x00\x00\x00'
p1056
tp1057
Rp1058
(I0
I58
tp1059
tp1060
a(g2
(g6
S'\x06\x00\x00\x00'
p1061
tp1062
Rp1063
(I58
I77
tp1064
tp1065
a(g2
(g6
S'\x03\x00\x00\x00'
p1066
tp1067
Rp1068
(I77
I129
tp1069
tp1070
a(g2
(g6
S'\x04\x00\x00\x00'
p1071
tp1072
Rp1073
(I129
I161
tp1074
tp1075
aa(lp1076
(g2
(g6
S'\x01\x00\x00\x00'
p1077
tp1078
Rp1079
(I0
I58
tp1080
tp1081
a(g2
(g6
S'\x06\x00\x00\x00'
p1082
tp1083
Rp1084
(I58
I76
tp1085
tp1086
a(g2
(g6
S'\x06\x00\x00\x00'
p1087
tp1088
Rp1089
(I76
I96
tp1090
tp1091
a(g2
(g6
S'\x00\x00\x00\x00'
p1092
tp1093
Rp1094
(I96
I154
tp1095
tp1096
a(g2
(g6
S'\x05\x00\x00\x00'
p1097
tp1098
Rp1099
(I154
I161
tp1100
tp1101
aa(lp1102
(g2
(g6
S'\x01\x00\x00\x00'
p1103
tp1104
Rp1105
(I0
I58
tp1106
tp1107
a(g2
(g6
S'\x06\x00\x00\x00'
p1108
tp1109
Rp1110
(I58
I73
tp1111
tp1112
a(g2
(g6
S'\x06\x00\x00\x00'
p1113
tp1114
Rp1115
(I73
I95
tp1116
tp1117
a(g2
(g6
S'\x00\x00\x00\x00'
p1118
tp1119
Rp1120
(I95
I155
tp1121
tp1122
a(g2
(g6
S'\x05\x00\x00\x00'
p1123
tp1124
Rp1125
(I155
I161
tp1126
tp1127
aa(lp1128
(g2
(g6
S'\x01\x00\x00\x00'
p1129
tp1130
Rp1131
(I0
I59
tp1132
tp1133
a(g2
(g6
S'\x06\x00\x00\x00'
p1134
tp1135
Rp1136
(I59
I80
tp1137
tp1138
a(g2
(g6
S'\x06\x00\x00\x00'
p1139
tp1140
Rp1141
(I80
I96
tp1142
tp1143
a(g2
(g6
S'\x00\x00\x00\x00'
p1144
tp1145
Rp1146
(I96
I154
tp1147
tp1148
a(g2
(g6
S'\x05\x00\x00\x00'
p1149
tp1150
Rp1151
(I154
I161
tp1152
tp1153
aa(lp1154
(g2
(g6
S'\x01\x00\x00\x00'
p1155
tp1156
Rp1157
(I0
I58
tp1158
tp1159
a(g2
(g6
S'\x06\x00\x00\x00'
p1160
tp1161
Rp1162
(I58
I75
tp1163
tp1164
a(g2
(g6
S'\x03\x00\x00\x00'
p1165
tp1166
Rp1167
(I75
I128
tp1168
tp1169
a(g2
(g6
S'\x04\x00\x00\x00'
p1170
tp1171
Rp1172
(I128
I161
tp1173
tp1174
aa(lp1175
(g2
(g6
S'\x01\x00\x00\x00'
p1176
tp1177
Rp1178
(I0
I59
tp1179
tp1180
a(g2
(g6
S'\x06\x00\x00\x00'
p1181
tp1182
Rp1183
(I59
I79
tp1184
tp1185
a(g2
(g6
S'\x03\x00\x00\x00'
p1186
tp1187
Rp1188
(I79
I129
tp1189
tp1190
a(g2
(g6
S'\x04\x00\x00\x00'
p1191
tp1192
Rp1193
(I129
I161
tp1194
tp1195
aa(lp1196
(g2
(g6
S'\x01\x00\x00\x00'
p1197
tp1198
Rp1199
(I0
I58
tp1200
tp1201
a(g2
(g6
S'\x06\x00\x00\x00'
p1202
tp1203
Rp1204
(I58
I74
tp1205
tp1206
a(g2
(g6
S'\x06\x00\x00\x00'
p1207
tp1208
Rp1209
(I74
I96
tp1210
tp1211
a(g2
(g6
S'\x00\x00\x00\x00'
p1212
tp1213
Rp1214
(I96
I154
tp1215
tp1216
a(g2
(g6
S'\x05\x00\x00\x00'
p1217
tp1218
Rp1219
(I154
I161
tp1220
tp1221
aa(lp1222
(g2
(g6
S'\x01\x00\x00\x00'
p1223
tp1224
Rp1225
(I0
I58
tp1226
tp1227
a(g2
(g6
S'\x06\x00\x00\x00'
p1228
tp1229
Rp1230
(I58
I77
tp1231
tp1232
a(g2
(g6
S'\x06\x00\x00\x00'
p1233
tp1234
Rp1235
(I77
I95
tp1236
tp1237
a(g2
(g6
S'\x00\x00\x00\x00'
p1238
tp1239
Rp1240
(I95
I154
tp1241
tp1242
a(g2
(g6
S'\x05\x00\x00\x00'
p1243
tp1244
Rp1245
(I154
I161
tp1246
tp1247
aa(lp1248
(g2
(g6
S'\x01\x00\x00\x00'
p1249
tp1250
Rp1251
(I0
I58
tp1252
tp1253
a(g2
(g6
S'\x06\x00\x00\x00'
p1254
tp1255
Rp1256
(I58
I79
tp1257
tp1258
a(g2
(g6
S'\x03\x00\x00\x00'
p1259
tp1260
Rp1261
(I79
I129
tp1262
tp1263
a(g2
(g6
S'\x04\x00\x00\x00'
p1264
tp1265
Rp1266
(I129
I161
tp1267
tp1268
aa(lp1269
(g2
(g6
S'\x01\x00\x00\x00'
p1270
tp1271
Rp1272
(I0
I58
tp1273
tp1274
a(g2
(g6
S'\x06\x00\x00\x00'
p1275
tp1276
Rp1277
(I58
I77
tp1278
tp1279
a(g2
(g6
S'\x03\x00\x00\x00'
p1280
tp1281
Rp1282
(I77
I128
tp1283
tp1284
a(g2
(g6
S'\x04\x00\x00\x00'
p1285
tp1286
Rp1287
(I128
I161
tp1288
tp1289
aa(lp1290
(g2
(g6
S'\x01\x00\x00\x00'
p1291
tp1292
Rp1293
(I0
I59
tp1294
tp1295
a(g2
(g6
S'\x06\x00\x00\x00'
p1296
tp1297
Rp1298
(I59
I75
tp1299
tp1300
a(g2
(g6
S'\x03\x00\x00\x00'
p1301
tp1302
Rp1303
(I75
I129
tp1304
tp1305
a(g2
(g6
S'\x04\x00\x00\x00'
p1306
tp1307
Rp1308
(I129
I161
tp1309
tp1310
aa(lp1311
(g2
(g6
S'\x01\x00\x00\x00'
p1312
tp1313
Rp1314
(I0
I58
tp1315
tp1316
a(g2
(g6
S'\x06\x00\x00\x00'
p1317
tp1318
Rp1319
(I58
I76
tp1320
tp1321
a(g2
(g6
S'\x03\x00\x00\x00'
p1322
tp1323
Rp1324
(I76
I129
tp1325
tp1326
a(g2
(g6
S'\x04\x00\x00\x00'
p1327
tp1328
Rp1329
(I129
I161
tp1330
tp1331
aa(lp1332
(g2
(g6
S'\x01\x00\x00\x00'
p1333
tp1334
Rp1335
(I0
I59
tp1336
tp1337
a(g2
(g6
S'\x06\x00\x00\x00'
p1338
tp1339
Rp1340
(I59
I79
tp1341
tp1342
a(g2
(g6
S'\x03\x00\x00\x00'
p1343
tp1344
Rp1345
(I79
I128
tp1346
tp1347
a(g2
(g6
S'\x04\x00\x00\x00'
p1348
tp1349
Rp1350
(I128
I161
tp1351
tp1352
aa(lp1353
(g2
(g6
S'\x01\x00\x00\x00'
p1354
tp1355
Rp1356
(I0
I59
tp1357
tp1358
a(g2
(g6
S'\x06\x00\x00\x00'
p1359
tp1360
Rp1361
(I59
I78
tp1362
tp1363
a(g2
(g6
S'\x03\x00\x00\x00'
p1364
tp1365
Rp1366
(I78
I129
tp1367
tp1368
a(g2
(g6
S'\x04\x00\x00\x00'
p1369
tp1370
Rp1371
(I129
I161
tp1372
tp1373
aa(lp1374
(g2
(g6
S'\x01\x00\x00\x00'
p1375
tp1376
Rp1377
(I0
I59
tp1378
tp1379
a(g2
(g6
S'\x06\x00\x00\x00'
p1380
tp1381
Rp1382
(I59
I78
tp1383
tp1384
a(g2
(g6
S'\x06\x00\x00\x00'
p1385
tp1386
Rp1387
(I78
I96
tp1388
tp1389
a(g2
(g6
S'\x00\x00\x00\x00'
p1390
tp1391
Rp1392
(I96
I152
tp1393
tp1394
a(g2
(g6
S'\x05\x00\x00\x00'
p1395
tp1396
Rp1397
(I152
I161
tp1398
tp1399
aa(lp1400
(g2
(g6
S'\x01\x00\x00\x00'
p1401
tp1402
Rp1403
(I0
I59
tp1404
tp1405
a(g2
(g6
S'\x06\x00\x00\x00'
p1406
tp1407
Rp1408
(I59
I75
tp1409
tp1410
a(g2
(g6
S'\x06\x00\x00\x00'
p1411
tp1412
Rp1413
(I75
I96
tp1414
tp1415
a(g2
(g6
S'\x00\x00\x00\x00'
p1416
tp1417
Rp1418
(I96
I154
tp1419
tp1420
a(g2
(g6
S'\x05\x00\x00\x00'
p1421
tp1422
Rp1423
(I154
I161
tp1424
tp1425
aa(lp1426
(g2
(g6
S'\x01\x00\x00\x00'
p1427
tp1428
Rp1429
(I0
I58
tp1430
tp1431
a(g2
(g6
S'\x06\x00\x00\x00'
p1432
tp1433
Rp1434
(I58
I79
tp1435
tp1436
a(g2
(g6
S'\x06\x00\x00\x00'
p1437
tp1438
Rp1439
(I79
I96
tp1440
tp1441
a(g2
(g6
S'\x00\x00\x00\x00'
p1442
tp1443
Rp1444
(I96
I154
tp1445
tp1446
a(g2
(g6
S'\x05\x00\x00\x00'
p1447
tp1448
Rp1449
(I154
I161
tp1450
tp1451
aa(lp1452
(g2
(g6
S'\x01\x00\x00\x00'
p1453
tp1454
Rp1455
(I0
I58
tp1456
tp1457
a(g2
(g6
S'\x06\x00\x00\x00'
p1458
tp1459
Rp1460
(I58
I78
tp1461
tp1462
a(g2
(g6
S'\x06\x00\x00\x00'
p1463
tp1464
Rp1465
(I78
I95
tp1466
tp1467
a(g2
(g6
S'\x00\x00\x00\x00'
p1468
tp1469
Rp1470
(I95
I153
tp1471
tp1472
a(g2
(g6
S'\x05\x00\x00\x00'
p1473
tp1474
Rp1475
(I153
I161
tp1476
tp1477
aa(lp1478
(g2
(g6
S'\x01\x00\x00\x00'
p1479
tp1480
Rp1481
(I0
I58
tp1482
tp1483
a(g2
(g6
S'\x06\x00\x00\x00'
p1484
tp1485
Rp1486
(I58
I75
tp1487
tp1488
a(g2
(g6
S'\x03\x00\x00\x00'
p1489
tp1490
Rp1491
(I75
I128
tp1492
tp1493
a(g2
(g6
S'\x04\x00\x00\x00'
p1494
tp1495
Rp1496
(I128
I161
tp1497
tp1498
aa(lp1499
(g2
(g6
S'\x01\x00\x00\x00'
p1500
tp1501
Rp1502
(I0
I59
tp1503
tp1504
a(g2
(g6
S'\x06\x00\x00\x00'
p1505
tp1506
Rp1507
(I59
I77
tp1508
tp1509
a(g2
(g6
S'\x03\x00\x00\x00'
p1510
tp1511
Rp1512
(I77
I128
tp1513
tp1514
a(g2
(g6
S'\x04\x00\x00\x00'
p1515
tp1516
Rp1517
(I128
I161
tp1518
tp1519
aa(lp1520
(g2
(g6
S'\x01\x00\x00\x00'
p1521
tp1522
Rp1523
(I0
I59
tp1524
tp1525
a(g2
(g6
S'\x06\x00\x00\x00'
p1526
tp1527
Rp1528
(I59
I79
tp1529
tp1530
a(g2
(g6
S'\x06\x00\x00\x00'
p1531
tp1532
Rp1533
(I79
I96
tp1534
tp1535
a(g2
(g6
S'\x00\x00\x00\x00'
p1536
tp1537
Rp1538
(I96
I152
tp1539
tp1540
a(g2
(g6
S'\x05\x00\x00\x00'
p1541
tp1542
Rp1543
(I152
I161
tp1544
tp1545
aa(lp1546
(g2
(g6
S'\x01\x00\x00\x00'
p1547
tp1548
Rp1549
(I0
I59
tp1550
tp1551
a(g2
(g6
S'\x06\x00\x00\x00'
p1552
tp1553
Rp1554
(I59
I78
tp1555
tp1556
a(g2
(g6
S'\x06\x00\x00\x00'
p1557
tp1558
Rp1559
(I78
I95
tp1560
tp1561
a(g2
(g6
S'\x00\x00\x00\x00'
p1562
tp1563
Rp1564
(I95
I154
tp1565
tp1566
a(g2
(g6
S'\x05\x00\x00\x00'
p1567
tp1568
Rp1569
(I154
I161
tp1570
tp1571
aa(lp1572
(g2
(g6
S'\x01\x00\x00\x00'
p1573
tp1574
Rp1575
(I0
I59
tp1576
tp1577
a(g2
(g6
S'\x06\x00\x00\x00'
p1578
tp1579
Rp1580
(I59
I76
tp1581
tp1582
a(g2
(g6
S'\x06\x00\x00\x00'
p1583
tp1584
Rp1585
(I76
I95
tp1586
tp1587
a(g2
(g6
S'\x00\x00\x00\x00'
p1588
tp1589
Rp1590
(I95
I154
tp1591
tp1592
a(g2
(g6
S'\x05\x00\x00\x00'
p1593
tp1594
Rp1595
(I154
I161
tp1596
tp1597
aa(lp1598
(g2
(g6
S'\x01\x00\x00\x00'
p1599
tp1600
Rp1601
(I0
I58
tp1602
tp1603
a(g2
(g6
S'\x06\x00\x00\x00'
p1604
tp1605
Rp1606
(I58
I78
tp1607
tp1608
a(g2
(g6
S'\x03\x00\x00\x00'
p1609
tp1610
Rp1611
(I78
I129
tp1612
tp1613
a(g2
(g6
S'\x04\x00\x00\x00'
p1614
tp1615
Rp1616
(I129
I161
tp1617
tp1618
aa(lp1619
(g2
(g6
S'\x01\x00\x00\x00'
p1620
tp1621
Rp1622
(I0
I58
tp1623
tp1624
a(g2
(g6
S'\x06\x00\x00\x00'
p1625
tp1626
Rp1627
(I58
I76
tp1628
tp1629
a(g2
(g6
S'\x03\x00\x00\x00'
p1630
tp1631
Rp1632
(I76
I129
tp1633
tp1634
a(g2
(g6
S'\x04\x00\x00\x00'
p1635
tp1636
Rp1637
(I129
I161
tp1638
tp1639
aa(lp1640
(g2
(g6
S'\x01\x00\x00\x00'
p1641
tp1642
Rp1643
(I0
I59
tp1644
tp1645
a(g2
(g6
S'\x06\x00\x00\x00'
p1646
tp1647
Rp1648
(I59
I74
tp1649
tp1650
a(g2
(g6
S'\x03\x00\x00\x00'
p1651
tp1652
Rp1653
(I74
I128
tp1654
tp1655
a(g2
(g6
S'\x04\x00\x00\x00'
p1656
tp1657
Rp1658
(I128
I161
tp1659
tp1660
aa(lp1661
(g2
(g6
S'\x01\x00\x00\x00'
p1662
tp1663
Rp1664
(I0
I59
tp1665
tp1666
a(g2
(g6
S'\x06\x00\x00\x00'
p1667
tp1668
Rp1669
(I59
I81
tp1670
tp1671
a(g2
(g6
S'\x03\x00\x00\x00'
p1672
tp1673
Rp1674
(I81
I129
tp1675
tp1676
a(g2
(g6
S'\x04\x00\x00\x00'
p1677
tp1678
Rp1679
(I129
I161
tp1680
tp1681
aa(lp1682
(g2
(g6
S'\x01\x00\x00\x00'
p1683
tp1684
Rp1685
(I0
I58
tp1686
tp1687
a(g2
(g6
S'\x06\x00\x00\x00'
p1688
tp1689
Rp1690
(I58
I75
tp1691
tp1692
a(g2
(g6
S'\x03\x00\x00\x00'
p1693
tp1694
Rp1695
(I75
I130
tp1696
tp1697
a(g2
(g6
S'\x04\x00\x00\x00'
p1698
tp1699
Rp1700
(I130
I161
tp1701
tp1702
aa(lp1703
(g2
(g6
S'\x01\x00\x00\x00'
p1704
tp1705
Rp1706
(I0
I59
tp1707
tp1708
a(g2
(g6
S'\x06\x00\x00\x00'
p1709
tp1710
Rp1711
(I59
I75
tp1712
tp1713
a(g2
(g6
S'\x03\x00\x00\x00'
p1714
tp1715
Rp1716
(I75
I129
tp1717
tp1718
a(g2
(g6
S'\x04\x00\x00\x00'
p1719
tp1720
Rp1721
(I129
I161
tp1722
tp1723
aa(lp1724
(g2
(g6
S'\x01\x00\x00\x00'
p1725
tp1726
Rp1727
(I0
I59
tp1728
tp1729
a(g2
(g6
S'\x06\x00\x00\x00'
p1730
tp1731
Rp1732
(I59
I76
tp1733
tp1734
a(g2
(g6
S'\x03\x00\x00\x00'
p1735
tp1736
Rp1737
(I76
I128
tp1738
tp1739
a(g2
(g6
S'\x04\x00\x00\x00'
p1740
tp1741
Rp1742
(I128
I161
tp1743
tp1744
aa(lp1745
(g2
(g6
S'\x01\x00\x00\x00'
p1746
tp1747
Rp1748
(I0
I58
tp1749
tp1750
a(g2
(g6
S'\x06\x00\x00\x00'
p1751
tp1752
Rp1753
(I58
I74
tp1754
tp1755
a(g2
(g6
S'\x06\x00\x00\x00'
p1756
tp1757
Rp1758
(I74
I96
tp1759
tp1760
a(g2
(g6
S'\x00\x00\x00\x00'
p1761
tp1762
Rp1763
(I96
I155
tp1764
tp1765
a(g2
(g6
S'\x05\x00\x00\x00'
p1766
tp1767
Rp1768
(I155
I161
tp1769
tp1770
aa(lp1771
(g2
(g6
S'\x01\x00\x00\x00'
p1772
tp1773
Rp1774
(I0
I58
tp1775
tp1776
a(g2
(g6
S'\x06\x00\x00\x00'
p1777
tp1778
Rp1779
(I58
I80
tp1780
tp1781
a(g2
(g6
S'\x06\x00\x00\x00'
p1782
tp1783
Rp1784
(I80
I96
tp1785
tp1786
a(g2
(g6
S'\x00\x00\x00\x00'
p1787
tp1788
Rp1789
(I96
I152
tp1790
tp1791
a(g2
(g6
S'\x05\x00\x00\x00'
p1792
tp1793
Rp1794
(I152
I161
tp1795
tp1796
aa(lp1797
(g2
(g6
S'\x01\x00\x00\x00'
p1798
tp1799
Rp1800
(I0
I58
tp1801
tp1802
a(g2
(g6
S'\x06\x00\x00\x00'
p1803
tp1804
Rp1805
(I58
I75
tp1806
tp1807
a(g2
(g6
S'\x06\x00\x00\x00'
p1808
tp1809
Rp1810
(I75
I96
tp1811
tp1812
a(g2
(g6
S'\x00\x00\x00\x00'
p1813
tp1814
Rp1815
(I96
I152
tp1816
tp1817
a(g2
(g6
S'\x05\x00\x00\x00'
p1818
tp1819
Rp1820
(I152
I161
tp1821
tp1822
aa(lp1823
(g2
(g6
S'\x01\x00\x00\x00'
p1824
tp1825
Rp1826
(I0
I59
tp1827
tp1828
a(g2
(g6
S'\x06\x00\x00\x00'
p1829
tp1830
Rp1831
(I59
I73
tp1832
tp1833
a(g2
(g6
S'\x03\x00\x00\x00'
p1834
tp1835
Rp1836
(I73
I128
tp1837
tp1838
a(g2
(g6
S'\x04\x00\x00\x00'
p1839
tp1840
Rp1841
(I128
I161
tp1842
tp1843
aa(lp1844
(g2
(g6
S'\x01\x00\x00\x00'
p1845
tp1846
Rp1847
(I0
I59
tp1848
tp1849
a(g2
(g6
S'\x06\x00\x00\x00'
p1850
tp1851
Rp1852
(I59
I77
tp1853
tp1854
a(g2
(g6
S'\x03\x00\x00\x00'
p1855
tp1856
Rp1857
(I77
I128
tp1858
tp1859
a(g2
(g6
S'\x04\x00\x00\x00'
p1860
tp1861
Rp1862
(I128
I161
tp1863
tp1864
aa(lp1865
(g2
(g6
S'\x01\x00\x00\x00'
p1866
tp1867
Rp1868
(I0
I58
tp1869
tp1870
a(g2
(g6
S'\x06\x00\x00\x00'
p1871
tp1872
Rp1873
(I58
I74
tp1874
tp1875
a(g2
(g6
S'\x03\x00\x00\x00'
p1876
tp1877
Rp1878
(I74
I130
tp1879
tp1880
a(g2
(g6
S'\x04\x00\x00\x00'
p1881
tp1882
Rp1883
(I130
I161
tp1884
tp1885
aa(lp1886
(g2
(g6
S'\x01\x00\x00\x00'
p1887
tp1888
Rp1889
(I0
I59
tp1890
tp1891
a(g2
(g6
S'\x06\x00\x00\x00'
p1892
tp1893
Rp1894
(I59
I68
tp1895
tp1896
a(g2
(g6
S'\x03\x00\x00\x00'
p1897
tp1898
Rp1899
(I68
I125
tp1900
tp1901
a(g2
(g6
S'\x04\x00\x00\x00'
p1902
tp1903
Rp1904
(I125
I161
tp1905
tp1906
aa(lp1907
(g2
(g6
S'\x01\x00\x00\x00'
p1908
tp1909
Rp1910
(I0
I57
tp1911
tp1912
a(g2
(g6
S'\x06\x00\x00\x00'
p1913
tp1914
Rp1915
(I57
I78
tp1916
tp1917
a(g2
(g6
S'\x03\x00\x00\x00'
p1918
tp1919
Rp1920
(I78
I128
tp1921
tp1922
a(g2
(g6
S'\x04\x00\x00\x00'
p1923
tp1924
Rp1925
(I128
I161
tp1926
tp1927
aa(lp1928
(g2
(g6
S'\x01\x00\x00\x00'
p1929
tp1930
Rp1931
(I0
I58
tp1932
tp1933
a(g2
(g6
S'\x06\x00\x00\x00'
p1934
tp1935
Rp1936
(I58
I79
tp1937
tp1938
a(g2
(g6
S'\x06\x00\x00\x00'
p1939
tp1940
Rp1941
(I79
I101
tp1942
tp1943
a(g2
(g6
S'\x00\x00\x00\x00'
p1944
tp1945
Rp1946
(I101
I161
tp1947
tp1948
aa(lp1949
(g2
(g6
S'\x01\x00\x00\x00'
p1950
tp1951
Rp1952
(I0
I58
tp1953
tp1954
a(g2
(g6
S'\x06\x00\x00\x00'
p1955
tp1956
Rp1957
(I58
I79
tp1958
tp1959
a(g2
(g6
S'\x06\x00\x00\x00'
p1960
tp1961
Rp1962
(I79
I101
tp1963
tp1964
a(g2
(g6
S'\x00\x00\x00\x00'
p1965
tp1966
Rp1967
(I101
I161
tp1968
tp1969
aa(lp1970
(g2
(g6
S'\x01\x00\x00\x00'
p1971
tp1972
Rp1973
(I0
I59
tp1974
tp1975
a(g2
(g6
S'\x06\x00\x00\x00'
p1976
tp1977
Rp1978
(I59
I79
tp1979
tp1980
a(g2
(g6
S'\x06\x00\x00\x00'
p1981
tp1982
Rp1983
(I79
I101
tp1984
tp1985
a(g2
(g6
S'\x00\x00\x00\x00'
p1986
tp1987
Rp1988
(I101
I161
tp1989
tp1990
aa(lp1991
(g2
(g6
S'\x01\x00\x00\x00'
p1992
tp1993
Rp1994
(I0
I59
tp1995
tp1996
a(g2
(g6
S'\x06\x00\x00\x00'
p1997
tp1998
Rp1999
(I59
I79
tp2000
tp2001
a(g2
(g6
S'\x06\x00\x00\x00'
p2002
tp2003
Rp2004
(I79
I101
tp2005
tp2006
a(g2
(g6
S'\x00\x00\x00\x00'
p2007
tp2008
Rp2009
(I101
I161
tp2010
tp2011
aa(lp2012
(g2
(g6
S'\x01\x00\x00\x00'
p2013
tp2014
Rp2015
(I0
I59
tp2016
tp2017
a(g2
(g6
S'\x06\x00\x00\x00'
p2018
tp2019
Rp2020
(I59
I81
tp2021
tp2022
a(g2
(g6
S'\x06\x00\x00\x00'
p2023
tp2024
Rp2025
(I81
I101
tp2026
tp2027
a(g2
(g6
S'\x00\x00\x00\x00'
p2028
tp2029
Rp2030
(I101
I161
tp2031
tp2032
aa(lp2033
(g2
(g6
S'\x01\x00\x00\x00'
p2034
tp2035
Rp2036
(I0
I58
tp2037
tp2038
a(g2
(g6
S'\x06\x00\x00\x00'
p2039
tp2040
Rp2041
(I58
I79
tp2042
tp2043
a(g2
(g6
S'\x06\x00\x00\x00'
p2044
tp2045
Rp2046
(I79
I101
tp2047
tp2048
a(g2
(g6
S'\x00\x00\x00\x00'
p2049
tp2050
Rp2051
(I101
I161
tp2052
tp2053
aa(lp2054
(g2
(g6
S'\x01\x00\x00\x00'
p2055
tp2056
Rp2057
(I0
I58
tp2058
tp2059
a(g2
(g6
S'\x06\x00\x00\x00'
p2060
tp2061
Rp2062
(I58
I80
tp2063
tp2064
a(g2
(g6
S'\x06\x00\x00\x00'
p2065
tp2066
Rp2067
(I80
I101
tp2068
tp2069
a(g2
(g6
S'\x00\x00\x00\x00'
p2070
tp2071
Rp2072
(I101
I161
tp2073
tp2074
aa(lp2075
(g2
(g6
S'\x01\x00\x00\x00'
p2076
tp2077
Rp2078
(I0
I59
tp2079
tp2080
a(g2
(g6
S'\x06\x00\x00\x00'
p2081
tp2082
Rp2083
(I59
I79
tp2084
tp2085
a(g2
(g6
S'\x06\x00\x00\x00'
p2086
tp2087
Rp2088
(I79
I101
tp2089
tp2090
a(g2
(g6
S'\x00\x00\x00\x00'
p2091
tp2092
Rp2093
(I101
I161
tp2094
tp2095
aa(lp2096
(g2
(g6
S'\x01\x00\x00\x00'
p2097
tp2098
Rp2099
(I0
I58
tp2100
tp2101
a(g2
(g6
S'\x06\x00\x00\x00'
p2102
tp2103
Rp2104
(I58
I78
tp2105
tp2106
a(g2
(g6
S'\x06\x00\x00\x00'
p2107
tp2108
Rp2109
(I78
I101
tp2110
tp2111
a(g2
(g6
S'\x00\x00\x00\x00'
p2112
tp2113
Rp2114
(I101
I161
tp2115
tp2116
aa(lp2117
(g2
(g6
S'\x01\x00\x00\x00'
p2118
tp2119
Rp2120
(I0
I59
tp2121
tp2122
a(g2
(g6
S'\x06\x00\x00\x00'
p2123
tp2124
Rp2125
(I59
I81
tp2126
tp2127
a(g2
(g6
S'\x06\x00\x00\x00'
p2128
tp2129
Rp2130
(I81
I101
tp2131
tp2132
a(g2
(g6
S'\x00\x00\x00\x00'
p2133
tp2134
Rp2135
(I101
I161
tp2136
tp2137
aa(lp2138
(g2
(g6
S'\x01\x00\x00\x00'
p2139
tp2140
Rp2141
(I0
I59
tp2142
tp2143
a(g2
(g6
S'\x06\x00\x00\x00'
p2144
tp2145
Rp2146
(I59
I81
tp2147
tp2148
a(g2
(g6
S'\x06\x00\x00\x00'
p2149
tp2150
Rp2151
(I81
I101
tp2152
tp2153
a(g2
(g6
S'\x00\x00\x00\x00'
p2154
tp2155
Rp2156
(I101
I161
tp2157
tp2158
aa(lp2159
(g2
(g6
S'\x01\x00\x00\x00'
p2160
tp2161
Rp2162
(I0
I59
tp2163
tp2164
a(g2
(g6
S'\x06\x00\x00\x00'
p2165
tp2166
Rp2167
(I59
I78
tp2168
tp2169
a(g2
(g6
S'\x06\x00\x00\x00'
p2170
tp2171
Rp2172
(I78
I101
tp2173
tp2174
a(g2
(g6
S'\x00\x00\x00\x00'
p2175
tp2176
Rp2177
(I101
I161
tp2178
tp2179
aa(lp2180
(g2
(g6
S'\x01\x00\x00\x00'
p2181
tp2182
Rp2183
(I0
I59
tp2184
tp2185
a(g2
(g6
S'\x06\x00\x00\x00'
p2186
tp2187
Rp2188
(I59
I82
tp2189
tp2190
a(g2
(g6
S'\x06\x00\x00\x00'
p2191
tp2192
Rp2193
(I82
I101
tp2194
tp2195
a(g2
(g6
S'\x00\x00\x00\x00'
p2196
tp2197
Rp2198
(I101
I161
tp2199
tp2200
aa(lp2201
(g2
(g6
S'\x01\x00\x00\x00'
p2202
tp2203
Rp2204
(I0
I59
tp2205
tp2206
a(g2
(g6
S'\x06\x00\x00\x00'
p2207
tp2208
Rp2209
(I59
I77
tp2210
tp2211
a(g2
(g6
S'\x06\x00\x00\x00'
p2212
tp2213
Rp2214
(I77
I101
tp2215
tp2216
a(g2
(g6
S'\x00\x00\x00\x00'
p2217
tp2218
Rp2219
(I101
I161
tp2220
tp2221
aa(lp2222
(g2
(g6
S'\x01\x00\x00\x00'
p2223
tp2224
Rp2225
(I0
I59
tp2226
tp2227
a(g2
(g6
S'\x06\x00\x00\x00'
p2228
tp2229
Rp2230
(I59
I80
tp2231
tp2232
a(g2
(g6
S'\x06\x00\x00\x00'
p2233
tp2234
Rp2235
(I80
I101
tp2236
tp2237
a(g2
(g6
S'\x00\x00\x00\x00'
p2238
tp2239
Rp2240
(I101
I161
tp2241
tp2242
aa.