(lp0
(lp1
(cnumpy.core.multiarray
scalar
p2
(cnumpy
dtype
p3
(S'i4'
p4
I0
I1
tp5
Rp6
(I3
S'<'
p7
NNNI-1
I-1
I0
tp8
bS'\x01\x00\x00\x00'
p9
tp10
Rp11
(I0
I40
tp12
tp13
a(g2
(g6
S'\x01\x00\x00\x00'
p14
tp15
Rp16
(I40
I100
tp17
tp18
a(g2
(g6
S'\x01\x00\x00\x00'
p19
tp20
Rp21
(I100
I129
tp22
tp23
aa(lp24
(g2
(g6
S'\x01\x00\x00\x00'
p25
tp26
Rp27
(I0
I38
tp28
tp29
a(g2
(g6
S'\x04\x00\x00\x00'
p30
tp31
Rp32
(I38
I62
tp33
tp34
a(g2
(g6
S'\x01\x00\x00\x00'
p35
tp36
Rp37
(I62
I109
tp38
tp39
a(g2
(g6
S'\x04\x00\x00\x00'
p40
tp41
Rp42
(I109
I129
tp43
tp44
aa(lp45
(g2
(g6
S'\x02\x00\x00\x00'
p46
tp47
Rp48
(I0
I38
tp49
tp50
a(g2
(g6
S'\x05\x00\x00\x00'
p51
tp52
Rp53
(I38
I57
tp54
tp55
a(g2
(g6
S'\x01\x00\x00\x00'
p56
tp57
Rp58
(I57
I109
tp59
tp60
a(g2
(g6
S'\x06\x00\x00\x00'
p61
tp62
Rp63
(I109
I129
tp64
tp65
aa(lp66
(g2
(g6
S'\x02\x00\x00\x00'
p67
tp68
Rp69
(I0
I38
tp70
tp71
a(g2
(g6
S'\x05\x00\x00\x00'
p72
tp73
Rp74
(I38
I63
tp75
tp76
a(g2
(g6
S'\x06\x00\x00\x00'
p77
tp78
Rp79
(I63
I94
tp80
tp81
a(g2
(g6
S'\x06\x00\x00\x00'
p82
tp83
Rp84
(I94
I129
tp85
tp86
aa(lp87
(g2
(g6
S'\x02\x00\x00\x00'
p88
tp89
Rp90
(I0
I38
tp91
tp92
a(g2
(g6
S'\x05\x00\x00\x00'
p93
tp94
Rp95
(I38
I59
tp96
tp97
a(g2
(g6
S'\x06\x00\x00\x00'
p98
tp99
Rp100
(I59
I95
tp101
tp102
a(g2
(g6
S'\x06\x00\x00\x00'
p103
tp104
Rp105
(I95
I129
tp106
tp107
aa(lp108
(g2
(g6
S'\x02\x00\x00\x00'
p109
tp110
Rp111
(I0
I38
tp112
tp113
a(g2
(g6
S'\x05\x00\x00\x00'
p114
tp115
Rp116
(I38
I56
tp117
tp118
a(g2
(g6
S'\x01\x00\x00\x00'
p119
tp120
Rp121
(I56
I109
tp122
tp123
a(g2
(g6
S'\x06\x00\x00\x00'
p124
tp125
Rp126
(I109
I129
tp127
tp128
aa(lp129
(g2
(g6
S'\x02\x00\x00\x00'
p130
tp131
Rp132
(I0
I39
tp133
tp134
a(g2
(g6
S'\x05\x00\x00\x00'
p135
tp136
Rp137
(I39
I52
tp138
tp139
a(g2
(g6
S'\x01\x00\x00\x00'
p140
tp141
Rp142
(I52
I110
tp143
tp144
a(g2
(g6
S'\x06\x00\x00\x00'
p145
tp146
Rp147
(I110
I129
tp148
tp149
aa(lp150
(g2
(g6
S'\x02\x00\x00\x00'
p151
tp152
Rp153
(I0
I38
tp154
tp155
a(g2
(g6
S'\x05\x00\x00\x00'
p156
tp157
Rp158
(I38
I55
tp159
tp160
a(g2
(g6
S'\x01\x00\x00\x00'
p161
tp162
Rp163
(I55
I109
tp164
tp165
a(g2
(g6
S'\x06\x00\x00\x00'
p166
tp167
Rp168
(I109
I129
tp169
tp170
aa(lp171
(g2
(g6
S'\x02\x00\x00\x00'
p172
tp173
Rp174
(I0
I38
tp175
tp176
a(g2
(g6
S'\x05\x00\x00\x00'
p177
tp178
Rp179
(I38
I56
tp180
tp181
a(g2
(g6
S'\x01\x00\x00\x00'
p182
tp183
Rp184
(I56
I109
tp185
tp186
a(g2
(g6
S'\x06\x00\x00\x00'
p187
tp188
Rp189
(I109
I129
tp190
tp191
aa(lp192
(g2
(g6
S'\x02\x00\x00\x00'
p193
tp194
Rp195
(I0
I38
tp196
tp197
a(g2
(g6
S'\x05\x00\x00\x00'
p198
tp199
Rp200
(I38
I53
tp201
tp202
a(g2
(g6
S'\x01\x00\x00\x00'
p203
tp204
Rp205
(I53
I109
tp206
tp207
a(g2
(g6
S'\x06\x00\x00\x00'
p208
tp209
Rp210
(I109
I129
tp211
tp212
aa(lp213
(g2
(g6
S'\x02\x00\x00\x00'
p214
tp215
Rp216
(I0
I38
tp217
tp218
a(g2
(g6
S'\x05\x00\x00\x00'
p219
tp220
Rp221
(I38
I54
tp222
tp223
a(g2
(g6
S'\x01\x00\x00\x00'
p224
tp225
Rp226
(I54
I110
tp227
tp228
a(g2
(g6
S'\x06\x00\x00\x00'
p229
tp230
Rp231
(I110
I129
tp232
tp233
aa(lp234
(g2
(g6
S'\x02\x00\x00\x00'
p235
tp236
Rp237
(I0
I39
tp238
tp239
a(g2
(g6
S'\x05\x00\x00\x00'
p240
tp241
Rp242
(I39
I51
tp243
tp244
a(g2
(g6
S'\x01\x00\x00\x00'
p245
tp246
Rp247
(I51
I109
tp248
tp249
a(g2
(g6
S'\x06\x00\x00\x00'
p250
tp251
Rp252
(I109
I129
tp253
tp254
aa(lp255
(g2
(g6
S'\x02\x00\x00\x00'
p256
tp257
Rp258
(I0
I38
tp259
tp260
a(g2
(g6
S'\x05\x00\x00\x00'
p261
tp262
Rp263
(I38
I53
tp264
tp265
a(g2
(g6
S'\x01\x00\x00\x00'
p266
tp267
Rp268
(I53
I109
tp269
tp270
a(g2
(g6
S'\x06\x00\x00\x00'
p271
tp272
Rp273
(I109
I129
tp274
tp275
aa(lp276
(g2
(g6
S'\x02\x00\x00\x00'
p277
tp278
Rp279
(I0
I38
tp280
tp281
a(g2
(g6
S'\x05\x00\x00\x00'
p282
tp283
Rp284
(I38
I56
tp285
tp286
a(g2
(g6
S'\x01\x00\x00\x00'
p287
tp288
Rp289
(I56
I109
tp290
tp291
a(g2
(g6
S'\x06\x00\x00\x00'
p292
tp293
Rp294
(I109
I129
tp295
tp296
aa(lp297
(g2
(g6
S'\x02\x00\x00\x00'
p298
tp299
Rp300
(I0
I39
tp301
tp302
a(g2
(g6
S'\x05\x00\x00\x00'
p303
tp304
Rp305
(I39
I58
tp306
tp307
a(g2
(g6
S'\x01\x00\x00\x00'
p308
tp309
Rp310
(I58
I109
tp311
tp312
a(g2
(g6
S'\x06\x00\x00\x00'
p313
tp314
Rp315
(I109
I129
tp316
tp317
aa(lp318
(g2
(g6
S'\x02\x00\x00\x00'
p319
tp320
Rp321
(I0
I39
tp322
tp323
a(g2
(g6
S'\x05\x00\x00\x00'
p324
tp325
Rp326
(I39
I57
tp327
tp328
a(g2
(g6
S'\x01\x00\x00\x00'
p329
tp330
Rp331
(I57
I110
tp332
tp333
a(g2
(g6
S'\x06\x00\x00\x00'
p334
tp335
Rp336
(I110
I129
tp337
tp338
aa(lp339
(g2
(g6
S'\x02\x00\x00\x00'
p340
tp341
Rp342
(I0
I39
tp343
tp344
a(g2
(g6
S'\x05\x00\x00\x00'
p345
tp346
Rp347
(I39
I56
tp348
tp349
a(g2
(g6
S'\x01\x00\x00\x00'
p350
tp351
Rp352
(I56
I110
tp353
tp354
a(g2
(g6
S'\x06\x00\x00\x00'
p355
tp356
Rp357
(I110
I129
tp358
tp359
aa(lp360
(g2
(g6
S'\x02\x00\x00\x00'
p361
tp362
Rp363
(I0
I38
tp364
tp365
a(g2
(g6
S'\x05\x00\x00\x00'
p366
tp367
Rp368
(I38
I54
tp369
tp370
a(g2
(g6
S'\x01\x00\x00\x00'
p371
tp372
Rp373
(I54
I110
tp374
tp375
a(g2
(g6
S'\x06\x00\x00\x00'
p376
tp377
Rp378
(I110
I129
tp379
tp380
aa(lp381
(g2
(g6
S'\x02\x00\x00\x00'
p382
tp383
Rp384
(I0
I39
tp385
tp386
a(g2
(g6
S'\x05\x00\x00\x00'
p387
tp388
Rp389
(I39
I59
tp390
tp391
a(g2
(g6
S'\x01\x00\x00\x00'
p392
tp393
Rp394
(I59
I110
tp395
tp396
a(g2
(g6
S'\x06\x00\x00\x00'
p397
tp398
Rp399
(I110
I129
tp400
tp401
aa(lp402
(g2
(g6
S'\x02\x00\x00\x00'
p403
tp404
Rp405
(I0
I38
tp406
tp407
a(g2
(g6
S'\x05\x00\x00\x00'
p408
tp409
Rp410
(I38
I52
tp411
tp412
a(g2
(g6
S'\x01\x00\x00\x00'
p413
tp414
Rp415
(I52
I110
tp416
tp417
a(g2
(g6
S'\x06\x00\x00\x00'
p418
tp419
Rp420
(I110
I129
tp421
tp422
aa(lp423
(g2
(g6
S'\x02\x00\x00\x00'
p424
tp425
Rp426
(I0
I38
tp427
tp428
a(g2
(g6
S'\x05\x00\x00\x00'
p429
tp430
Rp431
(I38
I55
tp432
tp433
a(g2
(g6
S'\x01\x00\x00\x00'
p434
tp435
Rp436
(I55
I110
tp437
tp438
a(g2
(g6
S'\x06\x00\x00\x00'
p439
tp440
Rp441
(I110
I129
tp442
tp443
aa(lp444
(g2
(g6
S'\x02\x00\x00\x00'
p445
tp446
Rp447
(I0
I39
tp448
tp449
a(g2
(g6
S'\x05\x00\x00\x00'
p450
tp451
Rp452
(I39
I58
tp453
tp454
a(g2
(g6
S'\x01\x00\x00\x00'
p455
tp456
Rp457
(I58
I110
tp458
tp459
a(g2
(g6
S'\x06\x00\x00\x00'
p460
tp461
Rp462
(I110
I129
tp463
tp464
aa(lp465
(g2
(g6
S'\x02\x00\x00\x00'
p466
tp467
Rp468
(I0
I39
tp469
tp470
a(g2
(g6
S'\x05\x00\x00\x00'
p471
tp472
Rp473
(I39
I55
tp474
tp475
a(g2
(g6
S'\x01\x00\x00\x00'
p476
tp477
Rp478
(I55
I110
tp479
tp480
a(g2
(g6
S'\x06\x00\x00\x00'
p481
tp482
Rp483
(I110
I129
tp484
tp485
aa(lp486
(g2
(g6
S'\x02\x00\x00\x00'
p487
tp488
Rp489
(I0
I39
tp490
tp491
a(g2
(g6
S'\x05\x00\x00\x00'
p492
tp493
Rp494
(I39
I53
tp495
tp496
a(g2
(g6
S'\x01\x00\x00\x00'
p497
tp498
Rp499
(I53
I110
tp500
tp501
a(g2
(g6
S'\x06\x00\x00\x00'
p502
tp503
Rp504
(I110
I129
tp505
tp506
aa(lp507
(g2
(g6
S'\x02\x00\x00\x00'
p508
tp509
Rp510
(I0
I39
tp511
tp512
a(g2
(g6
S'\x05\x00\x00\x00'
p513
tp514
Rp515
(I39
I53
tp516
tp517
a(g2
(g6
S'\x01\x00\x00\x00'
p518
tp519
Rp520
(I53
I110
tp521
tp522
a(g2
(g6
S'\x06\x00\x00\x00'
p523
tp524
Rp525
(I110
I129
tp526
tp527
aa(lp528
(g2
(g6
S'\x02\x00\x00\x00'
p529
tp530
Rp531
(I0
I38
tp532
tp533
a(g2
(g6
S'\x05\x00\x00\x00'
p534
tp535
Rp536
(I38
I54
tp537
tp538
a(g2
(g6
S'\x01\x00\x00\x00'
p539
tp540
Rp541
(I54
I110
tp542
tp543
a(g2
(g6
S'\x06\x00\x00\x00'
p544
tp545
Rp546
(I110
I129
tp547
tp548
aa(lp549
(g2
(g6
S'\x02\x00\x00\x00'
p550
tp551
Rp552
(I0
I39
tp553
tp554
a(g2
(g6
S'\x05\x00\x00\x00'
p555
tp556
Rp557
(I39
I58
tp558
tp559
a(g2
(g6
S'\x01\x00\x00\x00'
p560
tp561
Rp562
(I58
I110
tp563
tp564
a(g2
(g6
S'\x06\x00\x00\x00'
p565
tp566
Rp567
(I110
I129
tp568
tp569
aa(lp570
(g2
(g6
S'\x02\x00\x00\x00'
p571
tp572
Rp573
(I0
I38
tp574
tp575
a(g2
(g6
S'\x05\x00\x00\x00'
p576
tp577
Rp578
(I38
I60
tp579
tp580
a(g2
(g6
S'\x01\x00\x00\x00'
p581
tp582
Rp583
(I60
I110
tp584
tp585
a(g2
(g6
S'\x06\x00\x00\x00'
p586
tp587
Rp588
(I110
I129
tp589
tp590
aa(lp591
(g2
(g6
S'\x02\x00\x00\x00'
p592
tp593
Rp594
(I0
I38
tp595
tp596
a(g2
(g6
S'\x05\x00\x00\x00'
p597
tp598
Rp599
(I38
I55
tp600
tp601
a(g2
(g6
S'\x01\x00\x00\x00'
p602
tp603
Rp604
(I55
I110
tp605
tp606
a(g2
(g6
S'\x06\x00\x00\x00'
p607
tp608
Rp609
(I110
I129
tp610
tp611
aa(lp612
(g2
(g6
S'\x02\x00\x00\x00'
p613
tp614
Rp615
(I0
I39
tp616
tp617
a(g2
(g6
S'\x05\x00\x00\x00'
p618
tp619
Rp620
(I39
I57
tp621
tp622
a(g2
(g6
S'\x01\x00\x00\x00'
p623
tp624
Rp625
(I57
I110
tp626
tp627
a(g2
(g6
S'\x06\x00\x00\x00'
p628
tp629
Rp630
(I110
I129
tp631
tp632
aa(lp633
(g2
(g6
S'\x02\x00\x00\x00'
p634
tp635
Rp636
(I0
I39
tp637
tp638
a(g2
(g6
S'\x05\x00\x00\x00'
p639
tp640
Rp641
(I39
I55
tp642
tp643
a(g2
(g6
S'\x01\x00\x00\x00'
p644
tp645
Rp646
(I55
I110
tp647
tp648
a(g2
(g6
S'\x06\x00\x00\x00'
p649
tp650
Rp651
(I110
I129
tp652
tp653
aa(lp654
(g2
(g6
S'\x02\x00\x00\x00'
p655
tp656
Rp657
(I0
I39
tp658
tp659
a(g2
(g6
S'\x05\x00\x00\x00'
p660
tp661
Rp662
(I39
I56
tp663
tp664
a(g2
(g6
S'\x01\x00\x00\x00'
p665
tp666
Rp667
(I56
I110
tp668
tp669
a(g2
(g6
S'\x06\x00\x00\x00'
p670
tp671
Rp672
(I110
I129
tp673
tp674
aa(lp675
(g2
(g6
S'\x02\x00\x00\x00'
p676
tp677
Rp678
(I0
I39
tp679
tp680
a(g2
(g6
S'\x05\x00\x00\x00'
p681
tp682
Rp683
(I39
I59
tp684
tp685
a(g2
(g6
S'\x01\x00\x00\x00'
p686
tp687
Rp688
(I59
I110
tp689
tp690
a(g2
(g6
S'\x06\x00\x00\x00'
p691
tp692
Rp693
(I110
I129
tp694
tp695
aa(lp696
(g2
(g6
S'\x02\x00\x00\x00'
p697
tp698
Rp699
(I0
I39
tp700
tp701
a(g2
(g6
S'\x05\x00\x00\x00'
p702
tp703
Rp704
(I39
I56
tp705
tp706
a(g2
(g6
S'\x01\x00\x00\x00'
p707
tp708
Rp709
(I56
I110
tp710
tp711
a(g2
(g6
S'\x06\x00\x00\x00'
p712
tp713
Rp714
(I110
I129
tp715
tp716
aa(lp717
(g2
(g6
S'\x02\x00\x00\x00'
p718
tp719
Rp720
(I0
I39
tp721
tp722
a(g2
(g6
S'\x05\x00\x00\x00'
p723
tp724
Rp725
(I39
I54
tp726
tp727
a(g2
(g6
S'\x01\x00\x00\x00'
p728
tp729
Rp730
(I54
I110
tp731
tp732
a(g2
(g6
S'\x06\x00\x00\x00'
p733
tp734
Rp735
(I110
I129
tp736
tp737
aa(lp738
(g2
(g6
S'\x02\x00\x00\x00'
p739
tp740
Rp741
(I0
I39
tp742
tp743
a(g2
(g6
S'\x05\x00\x00\x00'
p744
tp745
Rp746
(I39
I53
tp747
tp748
a(g2
(g6
S'\x01\x00\x00\x00'
p749
tp750
Rp751
(I53
I110
tp752
tp753
a(g2
(g6
S'\x06\x00\x00\x00'
p754
tp755
Rp756
(I110
I129
tp757
tp758
aa(lp759
(g2
(g6
S'\x02\x00\x00\x00'
p760
tp761
Rp762
(I0
I39
tp763
tp764
a(g2
(g6
S'\x05\x00\x00\x00'
p765
tp766
Rp767
(I39
I57
tp768
tp769
a(g2
(g6
S'\x01\x00\x00\x00'
p770
tp771
Rp772
(I57
I110
tp773
tp774
a(g2
(g6
S'\x06\x00\x00\x00'
p775
tp776
Rp777
(I110
I129
tp778
tp779
aa(lp780
(g2
(g6
S'\x02\x00\x00\x00'
p781
tp782
Rp783
(I0
I39
tp784
tp785
a(g2
(g6
S'\x05\x00\x00\x00'
p786
tp787
Rp788
(I39
I60
tp789
tp790
a(g2
(g6
S'\x01\x00\x00\x00'
p791
tp792
Rp793
(I60
I110
tp794
tp795
a(g2
(g6
S'\x06\x00\x00\x00'
p796
tp797
Rp798
(I110
I129
tp799
tp800
aa(lp801
(g2
(g6
S'\x02\x00\x00\x00'
p802
tp803
Rp804
(I0
I39
tp805
tp806
a(g2
(g6
S'\x05\x00\x00\x00'
p807
tp808
Rp809
(I39
I53
tp810
tp811
a(g2
(g6
S'\x01\x00\x00\x00'
p812
tp813
Rp814
(I53
I110
tp815
tp816
a(g2
(g6
S'\x06\x00\x00\x00'
p817
tp818
Rp819
(I110
I129
tp820
tp821
aa(lp822
(g2
(g6
S'\x02\x00\x00\x00'
p823
tp824
Rp825
(I0
I39
tp826
tp827
a(g2
(g6
S'\x05\x00\x00\x00'
p828
tp829
Rp830
(I39
I55
tp831
tp832
a(g2
(g6
S'\x01\x00\x00\x00'
p833
tp834
Rp835
(I55
I110
tp836
tp837
a(g2
(g6
S'\x06\x00\x00\x00'
p838
tp839
Rp840
(I110
I129
tp841
tp842
aa(lp843
(g2
(g6
S'\x02\x00\x00\x00'
p844
tp845
Rp846
(I0
I38
tp847
tp848
a(g2
(g6
S'\x05\x00\x00\x00'
p849
tp850
Rp851
(I38
I57
tp852
tp853
a(g2
(g6
S'\x01\x00\x00\x00'
p854
tp855
Rp856
(I57
I110
tp857
tp858
a(g2
(g6
S'\x06\x00\x00\x00'
p859
tp860
Rp861
(I110
I129
tp862
tp863
aa(lp864
(g2
(g6
S'\x02\x00\x00\x00'
p865
tp866
Rp867
(I0
I38
tp868
tp869
a(g2
(g6
S'\x05\x00\x00\x00'
p870
tp871
Rp872
(I38
I53
tp873
tp874
a(g2
(g6
S'\x01\x00\x00\x00'
p875
tp876
Rp877
(I53
I110
tp878
tp879
a(g2
(g6
S'\x06\x00\x00\x00'
p880
tp881
Rp882
(I110
I129
tp883
tp884
aa(lp885
(g2
(g6
S'\x02\x00\x00\x00'
p886
tp887
Rp888
(I0
I38
tp889
tp890
a(g2
(g6
S'\x05\x00\x00\x00'
p891
tp892
Rp893
(I38
I57
tp894
tp895
a(g2
(g6
S'\x01\x00\x00\x00'
p896
tp897
Rp898
(I57
I110
tp899
tp900
a(g2
(g6
S'\x06\x00\x00\x00'
p901
tp902
Rp903
(I110
I129
tp904
tp905
aa(lp906
(g2
(g6
S'\x02\x00\x00\x00'
p907
tp908
Rp909
(I0
I38
tp910
tp911
a(g2
(g6
S'\x05\x00\x00\x00'
p912
tp913
Rp914
(I38
I54
tp915
tp916
a(g2
(g6
S'\x01\x00\x00\x00'
p917
tp918
Rp919
(I54
I110
tp920
tp921
a(g2
(g6
S'\x06\x00\x00\x00'
p922
tp923
Rp924
(I110
I129
tp925
tp926
aa(lp927
(g2
(g6
S'\x02\x00\x00\x00'
p928
tp929
Rp930
(I0
I39
tp931
tp932
a(g2
(g6
S'\x05\x00\x00\x00'
p933
tp934
Rp935
(I39
I55
tp936
tp937
a(g2
(g6
S'\x01\x00\x00\x00'
p938
tp939
Rp940
(I55
I110
tp941
tp942
a(g2
(g6
S'\x06\x00\x00\x00'
p943
tp944
Rp945
(I110
I129
tp946
tp947
aa(lp948
(g2
(g6
S'\x02\x00\x00\x00'
p949
tp950
Rp951
(I0
I38
tp952
tp953
a(g2
(g6
S'\x05\x00\x00\x00'
p954
tp955
Rp956
(I38
I57
tp957
tp958
a(g2
(g6
S'\x01\x00\x00\x00'
p959
tp960
Rp961
(I57
I110
tp962
tp963
a(g2
(g6
S'\x06\x00\x00\x00'
p964
tp965
Rp966
(I110
I129
tp967
tp968
aa(lp969
(g2
(g6
S'\x02\x00\x00\x00'
p970
tp971
Rp972
(I0
I38
tp973
tp974
a(g2
(g6
S'\x05\x00\x00\x00'
p975
tp976
Rp977
(I38
I55
tp978
tp979
a(g2
(g6
S'\x01\x00\x00\x00'
p980
tp981
Rp982
(I55
I110
tp983
tp984
a(g2
(g6
S'\x06\x00\x00\x00'
p985
tp986
Rp987
(I110
I129
tp988
tp989
aa(lp990
(g2
(g6
S'\x02\x00\x00\x00'
p991
tp992
Rp993
(I0
I39
tp994
tp995
a(g2
(g6
S'\x05\x00\x00\x00'
p996
tp997
Rp998
(I39
I52
tp999
tp1000
a(g2
(g6
S'\x01\x00\x00\x00'
p1001
tp1002
Rp1003
(I52
I110
tp1004
tp1005
a(g2
(g6
S'\x06\x00\x00\x00'
p1006
tp1007
Rp1008
(I110
I129
tp1009
tp1010
aa(lp1011
(g2
(g6
S'\x02\x00\x00\x00'
p1012
tp1013
Rp1014
(I0
I39
tp1015
tp1016
a(g2
(g6
S'\x05\x00\x00\x00'
p1017
tp1018
Rp1019
(I39
I58
tp1020
tp1021
a(g2
(g6
S'\x01\x00\x00\x00'
p1022
tp1023
Rp1024
(I58
I110
tp1025
tp1026
a(g2
(g6
S'\x06\x00\x00\x00'
p1027
tp1028
Rp1029
(I110
I129
tp1030
tp1031
aa(lp1032
(g2
(g6
S'\x02\x00\x00\x00'
p1033
tp1034
Rp1035
(I0
I39
tp1036
tp1037
a(g2
(g6
S'\x05\x00\x00\x00'
p1038
tp1039
Rp1040
(I39
I50
tp1041
tp1042
a(g2
(g6
S'\x01\x00\x00\x00'
p1043
tp1044
Rp1045
(I50
I110
tp1046
tp1047
a(g2
(g6
S'\x06\x00\x00\x00'
p1048
tp1049
Rp1050
(I110
I129
tp1051
tp1052
aa(lp1053
(g2
(g6
S'\x02\x00\x00\x00'
p1054
tp1055
Rp1056
(I0
I38
tp1057
tp1058
a(g2
(g6
S'\x05\x00\x00\x00'
p1059
tp1060
Rp1061
(I38
I56
tp1062
tp1063
a(g2
(g6
S'\x01\x00\x00\x00'
p1064
tp1065
Rp1066
(I56
I110
tp1067
tp1068
a(g2
(g6
S'\x06\x00\x00\x00'
p1069
tp1070
Rp1071
(I110
I129
tp1072
tp1073
aa(lp1074
(g2
(g6
S'\x02\x00\x00\x00'
p1075
tp1076
Rp1077
(I0
I39
tp1078
tp1079
a(g2
(g6
S'\x05\x00\x00\x00'
p1080
tp1081
Rp1082
(I39
I56
tp1083
tp1084
a(g2
(g6
S'\x01\x00\x00\x00'
p1085
tp1086
Rp1087
(I56
I110
tp1088
tp1089
a(g2
(g6
S'\x06\x00\x00\x00'
p1090
tp1091
Rp1092
(I110
I129
tp1093
tp1094
aa(lp1095
(g2
(g6
S'\x02\x00\x00\x00'
p1096
tp1097
Rp1098
(I0
I38
tp1099
tp1100
a(g2
(g6
S'\x05\x00\x00\x00'
p1101
tp1102
Rp1103
(I38
I57
tp1104
tp1105
a(g2
(g6
S'\x01\x00\x00\x00'
p1106
tp1107
Rp1108
(I57
I110
tp1109
tp1110
a(g2
(g6
S'\x06\x00\x00\x00'
p1111
tp1112
Rp1113
(I110
I129
tp1114
tp1115
aa(lp1116
(g2
(g6
S'\x02\x00\x00\x00'
p1117
tp1118
Rp1119
(I0
I39
tp1120
tp1121
a(g2
(g6
S'\x05\x00\x00\x00'
p1122
tp1123
Rp1124
(I39
I52
tp1125
tp1126
a(g2
(g6
S'\x01\x00\x00\x00'
p1127
tp1128
Rp1129
(I52
I110
tp1130
tp1131
a(g2
(g6
S'\x06\x00\x00\x00'
p1132
tp1133
Rp1134
(I110
I129
tp1135
tp1136
aa(lp1137
(g2
(g6
S'\x02\x00\x00\x00'
p1138
tp1139
Rp1140
(I0
I38
tp1141
tp1142
a(g2
(g6
S'\x05\x00\x00\x00'
p1143
tp1144
Rp1145
(I38
I51
tp1146
tp1147
a(g2
(g6
S'\x01\x00\x00\x00'
p1148
tp1149
Rp1150
(I51
I110
tp1151
tp1152
a(g2
(g6
S'\x06\x00\x00\x00'
p1153
tp1154
Rp1155
(I110
I129
tp1156
tp1157
aa(lp1158
(g2
(g6
S'\x02\x00\x00\x00'
p1159
tp1160
Rp1161
(I0
I38
tp1162
tp1163
a(g2
(g6
S'\x05\x00\x00\x00'
p1164
tp1165
Rp1166
(I38
I55
tp1167
tp1168
a(g2
(g6
S'\x01\x00\x00\x00'
p1169
tp1170
Rp1171
(I55
I110
tp1172
tp1173
a(g2
(g6
S'\x06\x00\x00\x00'
p1174
tp1175
Rp1176
(I110
I129
tp1177
tp1178
aa(lp1179
(g2
(g6
S'\x02\x00\x00\x00'
p1180
tp1181
Rp1182
(I0
I38
tp1183
tp1184
a(g2
(g6
S'\x05\x00\x00\x00'
p1185
tp1186
Rp1187
(I38
I53
tp1188
tp1189
a(g2
(g6
S'\x01\x00\x00\x00'
p1190
tp1191
Rp1192
(I53
I110
tp1193
tp1194
a(g2
(g6
S'\x06\x00\x00\x00'
p1195
tp1196
Rp1197
(I110
I129
tp1198
tp1199
aa(lp1200
(g2
(g6
S'\x02\x00\x00\x00'
p1201
tp1202
Rp1203
(I0
I39
tp1204
tp1205
a(g2
(g6
S'\x05\x00\x00\x00'
p1206
tp1207
Rp1208
(I39
I55
tp1209
tp1210
a(g2
(g6
S'\x01\x00\x00\x00'
p1211
tp1212
Rp1213
(I55
I110
tp1214
tp1215
a(g2
(g6
S'\x06\x00\x00\x00'
p1216
tp1217
Rp1218
(I110
I129
tp1219
tp1220
aa(lp1221
(g2
(g6
S'\x02\x00\x00\x00'
p1222
tp1223
Rp1224
(I0
I39
tp1225
tp1226
a(g2
(g6
S'\x05\x00\x00\x00'
p1227
tp1228
Rp1229
(I39
I54
tp1230
tp1231
a(g2
(g6
S'\x01\x00\x00\x00'
p1232
tp1233
Rp1234
(I54
I110
tp1235
tp1236
a(g2
(g6
S'\x06\x00\x00\x00'
p1237
tp1238
Rp1239
(I110
I129
tp1240
tp1241
aa(lp1242
(g2
(g6
S'\x02\x00\x00\x00'
p1243
tp1244
Rp1245
(I0
I38
tp1246
tp1247
a(g2
(g6
S'\x05\x00\x00\x00'
p1248
tp1249
Rp1250
(I38
I55
tp1251
tp1252
a(g2
(g6
S'\x01\x00\x00\x00'
p1253
tp1254
Rp1255
(I55
I110
tp1256
tp1257
a(g2
(g6
S'\x06\x00\x00\x00'
p1258
tp1259
Rp1260
(I110
I129
tp1261
tp1262
aa(lp1263
(g2
(g6
S'\x02\x00\x00\x00'
p1264
tp1265
Rp1266
(I0
I38
tp1267
tp1268
a(g2
(g6
S'\x05\x00\x00\x00'
p1269
tp1270
Rp1271
(I38
I60
tp1272
tp1273
a(g2
(g6
S'\x01\x00\x00\x00'
p1274
tp1275
Rp1276
(I60
I110
tp1277
tp1278
a(g2
(g6
S'\x06\x00\x00\x00'
p1279
tp1280
Rp1281
(I110
I129
tp1282
tp1283
aa(lp1284
(g2
(g6
S'\x02\x00\x00\x00'
p1285
tp1286
Rp1287
(I0
I38
tp1288
tp1289
a(g2
(g6
S'\x05\x00\x00\x00'
p1290
tp1291
Rp1292
(I38
I54
tp1293
tp1294
a(g2
(g6
S'\x01\x00\x00\x00'
p1295
tp1296
Rp1297
(I54
I110
tp1298
tp1299
a(g2
(g6
S'\x06\x00\x00\x00'
p1300
tp1301
Rp1302
(I110
I129
tp1303
tp1304
aa(lp1305
(g2
(g6
S'\x02\x00\x00\x00'
p1306
tp1307
Rp1308
(I0
I39
tp1309
tp1310
a(g2
(g6
S'\x05\x00\x00\x00'
p1311
tp1312
Rp1313
(I39
I55
tp1314
tp1315
a(g2
(g6
S'\x01\x00\x00\x00'
p1316
tp1317
Rp1318
(I55
I110
tp1319
tp1320
a(g2
(g6
S'\x06\x00\x00\x00'
p1321
tp1322
Rp1323
(I110
I129
tp1324
tp1325
aa(lp1326
(g2
(g6
S'\x02\x00\x00\x00'
p1327
tp1328
Rp1329
(I0
I39
tp1330
tp1331
a(g2
(g6
S'\x05\x00\x00\x00'
p1332
tp1333
Rp1334
(I39
I53
tp1335
tp1336
a(g2
(g6
S'\x01\x00\x00\x00'
p1337
tp1338
Rp1339
(I53
I110
tp1340
tp1341
a(g2
(g6
S'\x06\x00\x00\x00'
p1342
tp1343
Rp1344
(I110
I129
tp1345
tp1346
aa(lp1347
(g2
(g6
S'\x02\x00\x00\x00'
p1348
tp1349
Rp1350
(I0
I38
tp1351
tp1352
a(g2
(g6
S'\x05\x00\x00\x00'
p1353
tp1354
Rp1355
(I38
I53
tp1356
tp1357
a(g2
(g6
S'\x01\x00\x00\x00'
p1358
tp1359
Rp1360
(I53
I110
tp1361
tp1362
a(g2
(g6
S'\x06\x00\x00\x00'
p1363
tp1364
Rp1365
(I110
I129
tp1366
tp1367
aa(lp1368
(g2
(g6
S'\x02\x00\x00\x00'
p1369
tp1370
Rp1371
(I0
I39
tp1372
tp1373
a(g2
(g6
S'\x05\x00\x00\x00'
p1374
tp1375
Rp1376
(I39
I54
tp1377
tp1378
a(g2
(g6
S'\x01\x00\x00\x00'
p1379
tp1380
Rp1381
(I54
I110
tp1382
tp1383
a(g2
(g6
S'\x06\x00\x00\x00'
p1384
tp1385
Rp1386
(I110
I129
tp1387
tp1388
aa(lp1389
(g2
(g6
S'\x02\x00\x00\x00'
p1390
tp1391
Rp1392
(I0
I39
tp1393
tp1394
a(g2
(g6
S'\x05\x00\x00\x00'
p1395
tp1396
Rp1397
(I39
I58
tp1398
tp1399
a(g2
(g6
S'\x01\x00\x00\x00'
p1400
tp1401
Rp1402
(I58
I110
tp1403
tp1404
a(g2
(g6
S'\x06\x00\x00\x00'
p1405
tp1406
Rp1407
(I110
I129
tp1408
tp1409
aa(lp1410
(g2
(g6
S'\x02\x00\x00\x00'
p1411
tp1412
Rp1413
(I0
I38
tp1414
tp1415
a(g2
(g6
S'\x05\x00\x00\x00'
p1416
tp1417
Rp1418
(I38
I57
tp1419
tp1420
a(g2
(g6
S'\x01\x00\x00\x00'
p1421
tp1422
Rp1423
(I57
I110
tp1424
tp1425
a(g2
(g6
S'\x06\x00\x00\x00'
p1426
tp1427
Rp1428
(I110
I129
tp1429
tp1430
aa(lp1431
(g2
(g6
S'\x02\x00\x00\x00'
p1432
tp1433
Rp1434
(I0
I38
tp1435
tp1436
a(g2
(g6
S'\x05\x00\x00\x00'
p1437
tp1438
Rp1439
(I38
I52
tp1440
tp1441
a(g2
(g6
S'\x01\x00\x00\x00'
p1442
tp1443
Rp1444
(I52
I110
tp1445
tp1446
a(g2
(g6
S'\x06\x00\x00\x00'
p1447
tp1448
Rp1449
(I110
I129
tp1450
tp1451
aa(lp1452
(g2
(g6
S'\x02\x00\x00\x00'
p1453
tp1454
Rp1455
(I0
I39
tp1456
tp1457
a(g2
(g6
S'\x05\x00\x00\x00'
p1458
tp1459
Rp1460
(I39
I54
tp1461
tp1462
a(g2
(g6
S'\x01\x00\x00\x00'
p1463
tp1464
Rp1465
(I54
I110
tp1466
tp1467
a(g2
(g6
S'\x06\x00\x00\x00'
p1468
tp1469
Rp1470
(I110
I129
tp1471
tp1472
aa(lp1473
(g2
(g6
S'\x02\x00\x00\x00'
p1474
tp1475
Rp1476
(I0
I39
tp1477
tp1478
a(g2
(g6
S'\x05\x00\x00\x00'
p1479
tp1480
Rp1481
(I39
I54
tp1482
tp1483
a(g2
(g6
S'\x01\x00\x00\x00'
p1484
tp1485
Rp1486
(I54
I110
tp1487
tp1488
a(g2
(g6
S'\x06\x00\x00\x00'
p1489
tp1490
Rp1491
(I110
I129
tp1492
tp1493
aa(lp1494
(g2
(g6
S'\x02\x00\x00\x00'
p1495
tp1496
Rp1497
(I0
I39
tp1498
tp1499
a(g2
(g6
S'\x05\x00\x00\x00'
p1500
tp1501
Rp1502
(I39
I57
tp1503
tp1504
a(g2
(g6
S'\x01\x00\x00\x00'
p1505
tp1506
Rp1507
(I57
I110
tp1508
tp1509
a(g2
(g6
S'\x06\x00\x00\x00'
p1510
tp1511
Rp1512
(I110
I129
tp1513
tp1514
aa(lp1515
(g2
(g6
S'\x02\x00\x00\x00'
p1516
tp1517
Rp1518
(I0
I38
tp1519
tp1520
a(g2
(g6
S'\x05\x00\x00\x00'
p1521
tp1522
Rp1523
(I38
I57
tp1524
tp1525
a(g2
(g6
S'\x01\x00\x00\x00'
p1526
tp1527
Rp1528
(I57
I110
tp1529
tp1530
a(g2
(g6
S'\x06\x00\x00\x00'
p1531
tp1532
Rp1533
(I110
I129
tp1534
tp1535
aa(lp1536
(g2
(g6
S'\x02\x00\x00\x00'
p1537
tp1538
Rp1539
(I0
I39
tp1540
tp1541
a(g2
(g6
S'\x05\x00\x00\x00'
p1542
tp1543
Rp1544
(I39
I56
tp1545
tp1546
a(g2
(g6
S'\x01\x00\x00\x00'
p1547
tp1548
Rp1549
(I56
I110
tp1550
tp1551
a(g2
(g6
S'\x06\x00\x00\x00'
p1552
tp1553
Rp1554
(I110
I129
tp1555
tp1556
aa(lp1557
(g2
(g6
S'\x02\x00\x00\x00'
p1558
tp1559
Rp1560
(I0
I38
tp1561
tp1562
a(g2
(g6
S'\x05\x00\x00\x00'
p1563
tp1564
Rp1565
(I38
I56
tp1566
tp1567
a(g2
(g6
S'\x01\x00\x00\x00'
p1568
tp1569
Rp1570
(I56
I110
tp1571
tp1572
a(g2
(g6
S'\x06\x00\x00\x00'
p1573
tp1574
Rp1575
(I110
I129
tp1576
tp1577
aa(lp1578
(g2
(g6
S'\x02\x00\x00\x00'
p1579
tp1580
Rp1581
(I0
I38
tp1582
tp1583
a(g2
(g6
S'\x05\x00\x00\x00'
p1584
tp1585
Rp1586
(I38
I55
tp1587
tp1588
a(g2
(g6
S'\x01\x00\x00\x00'
p1589
tp1590
Rp1591
(I55
I111
tp1592
tp1593
a(g2
(g6
S'\x06\x00\x00\x00'
p1594
tp1595
Rp1596
(I111
I129
tp1597
tp1598
aa(lp1599
(g2
(g6
S'\x02\x00\x00\x00'
p1600
tp1601
Rp1602
(I0
I39
tp1603
tp1604
a(g2
(g6
S'\x05\x00\x00\x00'
p1605
tp1606
Rp1607
(I39
I58
tp1608
tp1609
a(g2
(g6
S'\x01\x00\x00\x00'
p1610
tp1611
Rp1612
(I58
I110
tp1613
tp1614
a(g2
(g6
S'\x06\x00\x00\x00'
p1615
tp1616
Rp1617
(I110
I129
tp1618
tp1619
aa(lp1620
(g2
(g6
S'\x02\x00\x00\x00'
p1621
tp1622
Rp1623
(I0
I39
tp1624
tp1625
a(g2
(g6
S'\x05\x00\x00\x00'
p1626
tp1627
Rp1628
(I39
I58
tp1629
tp1630
a(g2
(g6
S'\x01\x00\x00\x00'
p1631
tp1632
Rp1633
(I58
I110
tp1634
tp1635
a(g2
(g6
S'\x06\x00\x00\x00'
p1636
tp1637
Rp1638
(I110
I129
tp1639
tp1640
aa(lp1641
(g2
(g6
S'\x02\x00\x00\x00'
p1642
tp1643
Rp1644
(I0
I39
tp1645
tp1646
a(g2
(g6
S'\x05\x00\x00\x00'
p1647
tp1648
Rp1649
(I39
I58
tp1650
tp1651
a(g2
(g6
S'\x01\x00\x00\x00'
p1652
tp1653
Rp1654
(I58
I111
tp1655
tp1656
a(g2
(g6
S'\x06\x00\x00\x00'
p1657
tp1658
Rp1659
(I111
I129
tp1660
tp1661
aa(lp1662
(g2
(g6
S'\x02\x00\x00\x00'
p1663
tp1664
Rp1665
(I0
I39
tp1666
tp1667
a(g2
(g6
S'\x05\x00\x00\x00'
p1668
tp1669
Rp1670
(I39
I55
tp1671
tp1672
a(g2
(g6
S'\x01\x00\x00\x00'
p1673
tp1674
Rp1675
(I55
I110
tp1676
tp1677
a(g2
(g6
S'\x06\x00\x00\x00'
p1678
tp1679
Rp1680
(I110
I129
tp1681
tp1682
aa(lp1683
(g2
(g6
S'\x02\x00\x00\x00'
p1684
tp1685
Rp1686
(I0
I39
tp1687
tp1688
a(g2
(g6
S'\x05\x00\x00\x00'
p1689
tp1690
Rp1691
(I39
I54
tp1692
tp1693
a(g2
(g6
S'\x01\x00\x00\x00'
p1694
tp1695
Rp1696
(I54
I110
tp1697
tp1698
a(g2
(g6
S'\x06\x00\x00\x00'
p1699
tp1700
Rp1701
(I110
I129
tp1702
tp1703
aa(lp1704
(g2
(g6
S'\x02\x00\x00\x00'
p1705
tp1706
Rp1707
(I0
I39
tp1708
tp1709
a(g2
(g6
S'\x05\x00\x00\x00'
p1710
tp1711
Rp1712
(I39
I56
tp1713
tp1714
a(g2
(g6
S'\x01\x00\x00\x00'
p1715
tp1716
Rp1717
(I56
I110
tp1718
tp1719
a(g2
(g6
S'\x06\x00\x00\x00'
p1720
tp1721
Rp1722
(I110
I129
tp1723
tp1724
aa(lp1725
(g2
(g6
S'\x02\x00\x00\x00'
p1726
tp1727
Rp1728
(I0
I39
tp1729
tp1730
a(g2
(g6
S'\x05\x00\x00\x00'
p1731
tp1732
Rp1733
(I39
I61
tp1734
tp1735
a(g2
(g6
S'\x01\x00\x00\x00'
p1736
tp1737
Rp1738
(I61
I110
tp1739
tp1740
a(g2
(g6
S'\x06\x00\x00\x00'
p1741
tp1742
Rp1743
(I110
I129
tp1744
tp1745
aa(lp1746
(g2
(g6
S'\x02\x00\x00\x00'
p1747
tp1748
Rp1749
(I0
I38
tp1750
tp1751
a(g2
(g6
S'\x04\x00\x00\x00'
p1752
tp1753
Rp1754
(I38
I76
tp1755
tp1756
a(g2
(g6
S'\x03\x00\x00\x00'
p1757
tp1758
Rp1759
(I76
I114
tp1760
tp1761
a(g2
(g6
S'\x06\x00\x00\x00'
p1762
tp1763
Rp1764
(I114
I129
tp1765
tp1766
aa(lp1767
(g2
(g6
S'\x02\x00\x00\x00'
p1768
tp1769
Rp1770
(I0
I38
tp1771
tp1772
a(g2
(g6
S'\x04\x00\x00\x00'
p1773
tp1774
Rp1775
(I38
I63
tp1776
tp1777
a(g2
(g6
S'\x01\x00\x00\x00'
p1778
tp1779
Rp1780
(I63
I110
tp1781
tp1782
a(g2
(g6
S'\x06\x00\x00\x00'
p1783
tp1784
Rp1785
(I110
I129
tp1786
tp1787
aa(lp1788
(g2
(g6
S'\x05\x00\x00\x00'
p1789
tp1790
Rp1791
(I0
I16
tp1792
tp1793
a(g2
(g6
S'\x00\x00\x00\x00'
p1794
tp1795
Rp1796
(I16
I58
tp1797
tp1798
a(g2
(g6
S'\x01\x00\x00\x00'
p1799
tp1800
Rp1801
(I58
I110
tp1802
tp1803
a(g2
(g6
S'\x06\x00\x00\x00'
p1804
tp1805
Rp1806
(I110
I129
tp1807
tp1808
aa(lp1809
(g2
(g6
S'\x05\x00\x00\x00'
p1810
tp1811
Rp1812
(I0
I13
tp1813
tp1814
a(g2
(g6
S'\x00\x00\x00\x00'
p1815
tp1816
Rp1817
(I13
I58
tp1818
tp1819
a(g2
(g6
S'\x01\x00\x00\x00'
p1820
tp1821
Rp1822
(I58
I110
tp1823
tp1824
a(g2
(g6
S'\x06\x00\x00\x00'
p1825
tp1826
Rp1827
(I110
I129
tp1828
tp1829
aa(lp1830
(g2
(g6
S'\x05\x00\x00\x00'
p1831
tp1832
Rp1833
(I0
I12
tp1834
tp1835
a(g2
(g6
S'\x00\x00\x00\x00'
p1836
tp1837
Rp1838
(I12
I58
tp1839
tp1840
a(g2
(g6
S'\x01\x00\x00\x00'
p1841
tp1842
Rp1843
(I58
I110
tp1844
tp1845
a(g2
(g6
S'\x06\x00\x00\x00'
p1846
tp1847
Rp1848
(I110
I129
tp1849
tp1850
aa(lp1851
(g2
(g6
S'\x05\x00\x00\x00'
p1852
tp1853
Rp1854
(I0
I16
tp1855
tp1856
a(g2
(g6
S'\x00\x00\x00\x00'
p1857
tp1858
Rp1859
(I16
I58
tp1860
tp1861
a(g2
(g6
S'\x01\x00\x00\x00'
p1862
tp1863
Rp1864
(I58
I110
tp1865
tp1866
a(g2
(g6
S'\x06\x00\x00\x00'
p1867
tp1868
Rp1869
(I110
I129
tp1870
tp1871
aa(lp1872
(g2
(g6
S'\x05\x00\x00\x00'
p1873
tp1874
Rp1875
(I0
I15
tp1876
tp1877
a(g2
(g6
S'\x00\x00\x00\x00'
p1878
tp1879
Rp1880
(I15
I58
tp1881
tp1882
a(g2
(g6
S'\x01\x00\x00\x00'
p1883
tp1884
Rp1885
(I58
I110
tp1886
tp1887
a(g2
(g6
S'\x06\x00\x00\x00'
p1888
tp1889
Rp1890
(I110
I129
tp1891
tp1892
aa(lp1893
(g2
(g6
S'\x05\x00\x00\x00'
p1894
tp1895
Rp1896
(I0
I16
tp1897
tp1898
a(g2
(g6
S'\x00\x00\x00\x00'
p1899
tp1900
Rp1901
(I16
I58
tp1902
tp1903
a(g2
(g6
S'\x01\x00\x00\x00'
p1904
tp1905
Rp1906
(I58
I111
tp1907
tp1908
a(g2
(g6
S'\x06\x00\x00\x00'
p1909
tp1910
Rp1911
(I111
I129
tp1912
tp1913
aa(lp1914
(g2
(g6
S'\x05\x00\x00\x00'
p1915
tp1916
Rp1917
(I0
I15
tp1918
tp1919
a(g2
(g6
S'\x00\x00\x00\x00'
p1920
tp1921
Rp1922
(I15
I58
tp1923
tp1924
a(g2
(g6
S'\x01\x00\x00\x00'
p1925
tp1926
Rp1927
(I58
I110
tp1928
tp1929
a(g2
(g6
S'\x06\x00\x00\x00'
p1930
tp1931
Rp1932
(I110
I129
tp1933
tp1934
aa(lp1935
(g2
(g6
S'\x05\x00\x00\x00'
p1936
tp1937
Rp1938
(I0
I15
tp1939
tp1940
a(g2
(g6
S'\x00\x00\x00\x00'
p1941
tp1942
Rp1943
(I15
I59
tp1944
tp1945
a(g2
(g6
S'\x01\x00\x00\x00'
p1946
tp1947
Rp1948
(I59
I110
tp1949
tp1950
a(g2
(g6
S'\x06\x00\x00\x00'
p1951
tp1952
Rp1953
(I110
I129
tp1954
tp1955
aa(lp1956
(g2
(g6
S'\x05\x00\x00\x00'
p1957
tp1958
Rp1959
(I0
I14
tp1960
tp1961
a(g2
(g6
S'\x00\x00\x00\x00'
p1962
tp1963
Rp1964
(I14
I59
tp1965
tp1966
a(g2
(g6
S'\x01\x00\x00\x00'
p1967
tp1968
Rp1969
(I59
I111
tp1970
tp1971
a(g2
(g6
S'\x06\x00\x00\x00'
p1972
tp1973
Rp1974
(I111
I129
tp1975
tp1976
aa(lp1977
(g2
(g6
S'\x05\x00\x00\x00'
p1978
tp1979
Rp1980
(I0
I13
tp1981
tp1982
a(g2
(g6
S'\x00\x00\x00\x00'
p1983
tp1984
Rp1985
(I13
I59
tp1986
tp1987
a(g2
(g6
S'\x01\x00\x00\x00'
p1988
tp1989
Rp1990
(I59
I110
tp1991
tp1992
a(g2
(g6
S'\x06\x00\x00\x00'
p1993
tp1994
Rp1995
(I110
I129
tp1996
tp1997
aa(lp1998
(g2
(g6
S'\x05\x00\x00\x00'
p1999
tp2000
Rp2001
(I0
I15
tp2002
tp2003
a(g2
(g6
S'\x00\x00\x00\x00'
p2004
tp2005
Rp2006
(I15
I59
tp2007
tp2008
a(g2
(g6
S'\x01\x00\x00\x00'
p2009
tp2010
Rp2011
(I59
I111
tp2012
tp2013
a(g2
(g6
S'\x06\x00\x00\x00'
p2014
tp2015
Rp2016
(I111
I129
tp2017
tp2018
aa(lp2019
(g2
(g6
S'\x05\x00\x00\x00'
p2020
tp2021
Rp2022
(I0
I15
tp2023
tp2024
a(g2
(g6
S'\x00\x00\x00\x00'
p2025
tp2026
Rp2027
(I15
I59
tp2028
tp2029
a(g2
(g6
S'\x01\x00\x00\x00'
p2030
tp2031
Rp2032
(I59
I111
tp2033
tp2034
a(g2
(g6
S'\x06\x00\x00\x00'
p2035
tp2036
Rp2037
(I111
I129
tp2038
tp2039
aa(lp2040
(g2
(g6
S'\x05\x00\x00\x00'
p2041
tp2042
Rp2043
(I0
I13
tp2044
tp2045
a(g2
(g6
S'\x00\x00\x00\x00'
p2046
tp2047
Rp2048
(I13
I58
tp2049
tp2050
a(g2
(g6
S'\x01\x00\x00\x00'
p2051
tp2052
Rp2053
(I58
I111
tp2054
tp2055
a(g2
(g6
S'\x06\x00\x00\x00'
p2056
tp2057
Rp2058
(I111
I129
tp2059
tp2060
aa(lp2061
(g2
(g6
S'\x05\x00\x00\x00'
p2062
tp2063
Rp2064
(I0
I13
tp2065
tp2066
a(g2
(g6
S'\x00\x00\x00\x00'
p2067
tp2068
Rp2069
(I13
I59
tp2070
tp2071
a(g2
(g6
S'\x01\x00\x00\x00'
p2072
tp2073
Rp2074
(I59
I111
tp2075
tp2076
a(g2
(g6
S'\x06\x00\x00\x00'
p2077
tp2078
Rp2079
(I111
I129
tp2080
tp2081
aa(lp2082
(g2
(g6
S'\x05\x00\x00\x00'
p2083
tp2084
Rp2085
(I0
I15
tp2086
tp2087
a(g2
(g6
S'\x00\x00\x00\x00'
p2088
tp2089
Rp2090
(I15
I59
tp2091
tp2092
a(g2
(g6
S'\x01\x00\x00\x00'
p2093
tp2094
Rp2095
(I59
I111
tp2096
tp2097
a(g2
(g6
S'\x06\x00\x00\x00'
p2098
tp2099
Rp2100
(I111
I129
tp2101
tp2102
aa.