(lp0
(lp1
(cnumpy.core.multiarray
scalar
p2
(cnumpy
dtype
p3
(S'i4'
p4
I0
I1
tp5
Rp6
(I3
S'<'
p7
NNNI-1
I-1
I0
tp8
bS'\x01\x00\x00\x00'
p9
tp10
Rp11
(I0
I20
tp12
tp13
a(g2
(g6
S'\x01\x00\x00\x00'
p14
tp15
Rp16
(I20
I79
tp17
tp18
aa(lp19
(g2
(g6
S'\x04\x00\x00\x00'
p20
tp21
Rp22
(I0
I30
tp23
tp24
a(g2
(g6
S'\x04\x00\x00\x00'
p25
tp26
Rp27
(I30
I54
tp28
tp29
a(g2
(g6
S'\x04\x00\x00\x00'
p30
tp31
Rp32
(I54
I79
tp33
tp34
aa(lp35
(g2
(g6
S'\x04\x00\x00\x00'
p36
tp37
Rp38
(I0
I43
tp39
tp40
a(g2
(g6
S'\x04\x00\x00\x00'
p41
tp42
Rp43
(I43
I79
tp44
tp45
aa(lp46
(g2
(g6
S'\x04\x00\x00\x00'
p47
tp48
Rp49
(I0
I43
tp50
tp51
a(g2
(g6
S'\x04\x00\x00\x00'
p52
tp53
Rp54
(I43
I79
tp55
tp56
aa(lp57
(g2
(g6
S'\x04\x00\x00\x00'
p58
tp59
Rp60
(I0
I41
tp61
tp62
a(g2
(g6
S'\x04\x00\x00\x00'
p63
tp64
Rp65
(I41
I79
tp66
tp67
aa(lp68
(g2
(g6
S'\x04\x00\x00\x00'
p69
tp70
Rp71
(I0
I41
tp72
tp73
a(g2
(g6
S'\x04\x00\x00\x00'
p74
tp75
Rp76
(I41
I79
tp77
tp78
aa(lp79
(g2
(g6
S'\x04\x00\x00\x00'
p80
tp81
Rp82
(I0
I41
tp83
tp84
a(g2
(g6
S'\x04\x00\x00\x00'
p85
tp86
Rp87
(I41
I79
tp88
tp89
aa(lp90
(g2
(g6
S'\x04\x00\x00\x00'
p91
tp92
Rp93
(I0
I41
tp94
tp95
a(g2
(g6
S'\x04\x00\x00\x00'
p96
tp97
Rp98
(I41
I79
tp99
tp100
aa(lp101
(g2
(g6
S'\x04\x00\x00\x00'
p102
tp103
Rp104
(I0
I41
tp105
tp106
a(g2
(g6
S'\x04\x00\x00\x00'
p107
tp108
Rp109
(I41
I79
tp110
tp111
aa(lp112
(g2
(g6
S'\x04\x00\x00\x00'
p113
tp114
Rp115
(I0
I41
tp116
tp117
a(g2
(g6
S'\x04\x00\x00\x00'
p118
tp119
Rp120
(I41
I79
tp121
tp122
aa(lp123
(g2
(g6
S'\x04\x00\x00\x00'
p124
tp125
Rp126
(I0
I41
tp127
tp128
a(g2
(g6
S'\x04\x00\x00\x00'
p129
tp130
Rp131
(I41
I79
tp132
tp133
aa(lp134
(g2
(g6
S'\x04\x00\x00\x00'
p135
tp136
Rp137
(I0
I41
tp138
tp139
a(g2
(g6
S'\x04\x00\x00\x00'
p140
tp141
Rp142
(I41
I79
tp143
tp144
aa(lp145
(g2
(g6
S'\x04\x00\x00\x00'
p146
tp147
Rp148
(I0
I41
tp149
tp150
a(g2
(g6
S'\x04\x00\x00\x00'
p151
tp152
Rp153
(I41
I79
tp154
tp155
aa(lp156
(g2
(g6
S'\x04\x00\x00\x00'
p157
tp158
Rp159
(I0
I41
tp160
tp161
a(g2
(g6
S'\x04\x00\x00\x00'
p162
tp163
Rp164
(I41
I79
tp165
tp166
aa(lp167
(g2
(g6
S'\x04\x00\x00\x00'
p168
tp169
Rp170
(I0
I41
tp171
tp172
a(g2
(g6
S'\x04\x00\x00\x00'
p173
tp174
Rp175
(I41
I79
tp176
tp177
aa(lp178
(g2
(g6
S'\x04\x00\x00\x00'
p179
tp180
Rp181
(I0
I43
tp182
tp183
a(g2
(g6
S'\x04\x00\x00\x00'
p184
tp185
Rp186
(I43
I79
tp187
tp188
aa(lp189
(g2
(g6
S'\x04\x00\x00\x00'
p190
tp191
Rp192
(I0
I41
tp193
tp194
a(g2
(g6
S'\x04\x00\x00\x00'
p195
tp196
Rp197
(I41
I79
tp198
tp199
aa(lp200
(g2
(g6
S'\x04\x00\x00\x00'
p201
tp202
Rp203
(I0
I41
tp204
tp205
a(g2
(g6
S'\x04\x00\x00\x00'
p206
tp207
Rp208
(I41
I79
tp209
tp210
aa(lp211
(g2
(g6
S'\x04\x00\x00\x00'
p212
tp213
Rp214
(I0
I41
tp215
tp216
a(g2
(g6
S'\x04\x00\x00\x00'
p217
tp218
Rp219
(I41
I79
tp220
tp221
aa(lp222
(g2
(g6
S'\x04\x00\x00\x00'
p223
tp224
Rp225
(I0
I41
tp226
tp227
a(g2
(g6
S'\x04\x00\x00\x00'
p228
tp229
Rp230
(I41
I79
tp231
tp232
aa(lp233
(g2
(g6
S'\x04\x00\x00\x00'
p234
tp235
Rp236
(I0
I39
tp237
tp238
a(g2
(g6
S'\x04\x00\x00\x00'
p239
tp240
Rp241
(I39
I79
tp242
tp243
aa(lp244
(g2
(g6
S'\x04\x00\x00\x00'
p245
tp246
Rp247
(I0
I39
tp248
tp249
a(g2
(g6
S'\x04\x00\x00\x00'
p250
tp251
Rp252
(I39
I79
tp253
tp254
aa(lp255
(g2
(g6
S'\x04\x00\x00\x00'
p256
tp257
Rp258
(I0
I39
tp259
tp260
a(g2
(g6
S'\x04\x00\x00\x00'
p261
tp262
Rp263
(I39
I79
tp264
tp265
aa(lp266
(g2
(g6
S'\x04\x00\x00\x00'
p267
tp268
Rp269
(I0
I39
tp270
tp271
a(g2
(g6
S'\x04\x00\x00\x00'
p272
tp273
Rp274
(I39
I79
tp275
tp276
aa(lp277
(g2
(g6
S'\x04\x00\x00\x00'
p278
tp279
Rp280
(I0
I38
tp281
tp282
a(g2
(g6
S'\x04\x00\x00\x00'
p283
tp284
Rp285
(I38
I79
tp286
tp287
aa(lp288
(g2
(g6
S'\x04\x00\x00\x00'
p289
tp290
Rp291
(I0
I41
tp292
tp293
a(g2
(g6
S'\x04\x00\x00\x00'
p294
tp295
Rp296
(I41
I79
tp297
tp298
aa(lp299
(g2
(g6
S'\x04\x00\x00\x00'
p300
tp301
Rp302
(I0
I39
tp303
tp304
a(g2
(g6
S'\x04\x00\x00\x00'
p305
tp306
Rp307
(I39
I79
tp308
tp309
aa(lp310
(g2
(g6
S'\x04\x00\x00\x00'
p311
tp312
Rp313
(I0
I41
tp314
tp315
a(g2
(g6
S'\x04\x00\x00\x00'
p316
tp317
Rp318
(I41
I79
tp319
tp320
aa(lp321
(g2
(g6
S'\x04\x00\x00\x00'
p322
tp323
Rp324
(I0
I41
tp325
tp326
a(g2
(g6
S'\x04\x00\x00\x00'
p327
tp328
Rp329
(I41
I79
tp330
tp331
aa(lp332
(g2
(g6
S'\x04\x00\x00\x00'
p333
tp334
Rp335
(I0
I40
tp336
tp337
a(g2
(g6
S'\x04\x00\x00\x00'
p338
tp339
Rp340
(I40
I79
tp341
tp342
aa(lp343
(g2
(g6
S'\x04\x00\x00\x00'
p344
tp345
Rp346
(I0
I40
tp347
tp348
a(g2
(g6
S'\x04\x00\x00\x00'
p349
tp350
Rp351
(I40
I79
tp352
tp353
aa(lp354
(g2
(g6
S'\x04\x00\x00\x00'
p355
tp356
Rp357
(I0
I41
tp358
tp359
a(g2
(g6
S'\x04\x00\x00\x00'
p360
tp361
Rp362
(I41
I79
tp363
tp364
aa(lp365
(g2
(g6
S'\x04\x00\x00\x00'
p366
tp367
Rp368
(I0
I39
tp369
tp370
a(g2
(g6
S'\x04\x00\x00\x00'
p371
tp372
Rp373
(I39
I79
tp374
tp375
aa(lp376
(g2
(g6
S'\x04\x00\x00\x00'
p377
tp378
Rp379
(I0
I39
tp380
tp381
a(g2
(g6
S'\x04\x00\x00\x00'
p382
tp383
Rp384
(I39
I79
tp385
tp386
aa(lp387
(g2
(g6
S'\x04\x00\x00\x00'
p388
tp389
Rp390
(I0
I39
tp391
tp392
a(g2
(g6
S'\x04\x00\x00\x00'
p393
tp394
Rp395
(I39
I79
tp396
tp397
aa(lp398
(g2
(g6
S'\x04\x00\x00\x00'
p399
tp400
Rp401
(I0
I39
tp402
tp403
a(g2
(g6
S'\x04\x00\x00\x00'
p404
tp405
Rp406
(I39
I79
tp407
tp408
aa(lp409
(g2
(g6
S'\x04\x00\x00\x00'
p410
tp411
Rp412
(I0
I41
tp413
tp414
a(g2
(g6
S'\x04\x00\x00\x00'
p415
tp416
Rp417
(I41
I79
tp418
tp419
aa(lp420
(g2
(g6
S'\x04\x00\x00\x00'
p421
tp422
Rp423
(I0
I41
tp424
tp425
a(g2
(g6
S'\x04\x00\x00\x00'
p426
tp427
Rp428
(I41
I79
tp429
tp430
aa(lp431
(g2
(g6
S'\x04\x00\x00\x00'
p432
tp433
Rp434
(I0
I39
tp435
tp436
a(g2
(g6
S'\x04\x00\x00\x00'
p437
tp438
Rp439
(I39
I79
tp440
tp441
aa(lp442
(g2
(g6
S'\x04\x00\x00\x00'
p443
tp444
Rp445
(I0
I41
tp446
tp447
a(g2
(g6
S'\x04\x00\x00\x00'
p448
tp449
Rp450
(I41
I79
tp451
tp452
aa(lp453
(g2
(g6
S'\x04\x00\x00\x00'
p454
tp455
Rp456
(I0
I41
tp457
tp458
a(g2
(g6
S'\x04\x00\x00\x00'
p459
tp460
Rp461
(I41
I79
tp462
tp463
aa(lp464
(g2
(g6
S'\x04\x00\x00\x00'
p465
tp466
Rp467
(I0
I39
tp468
tp469
a(g2
(g6
S'\x04\x00\x00\x00'
p470
tp471
Rp472
(I39
I79
tp473
tp474
aa(lp475
(g2
(g6
S'\x04\x00\x00\x00'
p476
tp477
Rp478
(I0
I41
tp479
tp480
a(g2
(g6
S'\x04\x00\x00\x00'
p481
tp482
Rp483
(I41
I79
tp484
tp485
aa(lp486
(g2
(g6
S'\x04\x00\x00\x00'
p487
tp488
Rp489
(I0
I41
tp490
tp491
a(g2
(g6
S'\x04\x00\x00\x00'
p492
tp493
Rp494
(I41
I79
tp495
tp496
aa(lp497
(g2
(g6
S'\x04\x00\x00\x00'
p498
tp499
Rp500
(I0
I39
tp501
tp502
a(g2
(g6
S'\x04\x00\x00\x00'
p503
tp504
Rp505
(I39
I79
tp506
tp507
aa(lp508
(g2
(g6
S'\x04\x00\x00\x00'
p509
tp510
Rp511
(I0
I41
tp512
tp513
a(g2
(g6
S'\x04\x00\x00\x00'
p514
tp515
Rp516
(I41
I79
tp517
tp518
aa(lp519
(g2
(g6
S'\x04\x00\x00\x00'
p520
tp521
Rp522
(I0
I40
tp523
tp524
a(g2
(g6
S'\x04\x00\x00\x00'
p525
tp526
Rp527
(I40
I79
tp528
tp529
aa(lp530
(g2
(g6
S'\x04\x00\x00\x00'
p531
tp532
Rp533
(I0
I39
tp534
tp535
a(g2
(g6
S'\x04\x00\x00\x00'
p536
tp537
Rp538
(I39
I79
tp539
tp540
aa(lp541
(g2
(g6
S'\x04\x00\x00\x00'
p542
tp543
Rp544
(I0
I41
tp545
tp546
a(g2
(g6
S'\x04\x00\x00\x00'
p547
tp548
Rp549
(I41
I79
tp550
tp551
aa(lp552
(g2
(g6
S'\x04\x00\x00\x00'
p553
tp554
Rp555
(I0
I39
tp556
tp557
a(g2
(g6
S'\x04\x00\x00\x00'
p558
tp559
Rp560
(I39
I79
tp561
tp562
aa(lp563
(g2
(g6
S'\x04\x00\x00\x00'
p564
tp565
Rp566
(I0
I41
tp567
tp568
a(g2
(g6
S'\x04\x00\x00\x00'
p569
tp570
Rp571
(I41
I79
tp572
tp573
aa(lp574
(g2
(g6
S'\x04\x00\x00\x00'
p575
tp576
Rp577
(I0
I40
tp578
tp579
a(g2
(g6
S'\x04\x00\x00\x00'
p580
tp581
Rp582
(I40
I79
tp583
tp584
aa(lp585
(g2
(g6
S'\x04\x00\x00\x00'
p586
tp587
Rp588
(I0
I41
tp589
tp590
a(g2
(g6
S'\x04\x00\x00\x00'
p591
tp592
Rp593
(I41
I79
tp594
tp595
aa(lp596
(g2
(g6
S'\x04\x00\x00\x00'
p597
tp598
Rp599
(I0
I39
tp600
tp601
a(g2
(g6
S'\x04\x00\x00\x00'
p602
tp603
Rp604
(I39
I79
tp605
tp606
aa(lp607
(g2
(g6
S'\x04\x00\x00\x00'
p608
tp609
Rp610
(I0
I41
tp611
tp612
a(g2
(g6
S'\x04\x00\x00\x00'
p613
tp614
Rp615
(I41
I79
tp616
tp617
aa(lp618
(g2
(g6
S'\x04\x00\x00\x00'
p619
tp620
Rp621
(I0
I41
tp622
tp623
a(g2
(g6
S'\x04\x00\x00\x00'
p624
tp625
Rp626
(I41
I79
tp627
tp628
aa(lp629
(g2
(g6
S'\x04\x00\x00\x00'
p630
tp631
Rp632
(I0
I41
tp633
tp634
a(g2
(g6
S'\x04\x00\x00\x00'
p635
tp636
Rp637
(I41
I79
tp638
tp639
aa(lp640
(g2
(g6
S'\x04\x00\x00\x00'
p641
tp642
Rp643
(I0
I40
tp644
tp645
a(g2
(g6
S'\x04\x00\x00\x00'
p646
tp647
Rp648
(I40
I79
tp649
tp650
aa(lp651
(g2
(g6
S'\x04\x00\x00\x00'
p652
tp653
Rp654
(I0
I39
tp655
tp656
a(g2
(g6
S'\x04\x00\x00\x00'
p657
tp658
Rp659
(I39
I79
tp660
tp661
aa(lp662
(g2
(g6
S'\x04\x00\x00\x00'
p663
tp664
Rp665
(I0
I39
tp666
tp667
a(g2
(g6
S'\x06\x00\x00\x00'
p668
tp669
Rp670
(I39
I62
tp671
tp672
a(g2
(g6
S'\x05\x00\x00\x00'
p673
tp674
Rp675
(I62
I79
tp676
tp677
aa(lp678
(g2
(g6
S'\x04\x00\x00\x00'
p679
tp680
Rp681
(I0
I41
tp682
tp683
a(g2
(g6
S'\x04\x00\x00\x00'
p684
tp685
Rp686
(I41
I79
tp687
tp688
aa(lp689
(g2
(g6
S'\x04\x00\x00\x00'
p690
tp691
Rp692
(I0
I39
tp693
tp694
a(g2
(g6
S'\x04\x00\x00\x00'
p695
tp696
Rp697
(I39
I79
tp698
tp699
aa(lp700
(g2
(g6
S'\x04\x00\x00\x00'
p701
tp702
Rp703
(I0
I39
tp704
tp705
a(g2
(g6
S'\x04\x00\x00\x00'
p706
tp707
Rp708
(I39
I79
tp709
tp710
aa(lp711
(g2
(g6
S'\x04\x00\x00\x00'
p712
tp713
Rp714
(I0
I41
tp715
tp716
a(g2
(g6
S'\x04\x00\x00\x00'
p717
tp718
Rp719
(I41
I79
tp720
tp721
aa(lp722
(g2
(g6
S'\x04\x00\x00\x00'
p723
tp724
Rp725
(I0
I42
tp726
tp727
a(g2
(g6
S'\x04\x00\x00\x00'
p728
tp729
Rp730
(I42
I79
tp731
tp732
aa(lp733
(g2
(g6
S'\x04\x00\x00\x00'
p734
tp735
Rp736
(I0
I41
tp737
tp738
a(g2
(g6
S'\x04\x00\x00\x00'
p739
tp740
Rp741
(I41
I79
tp742
tp743
aa(lp744
(g2
(g6
S'\x04\x00\x00\x00'
p745
tp746
Rp747
(I0
I41
tp748
tp749
a(g2
(g6
S'\x04\x00\x00\x00'
p750
tp751
Rp752
(I41
I79
tp753
tp754
aa(lp755
(g2
(g6
S'\x04\x00\x00\x00'
p756
tp757
Rp758
(I0
I39
tp759
tp760
a(g2
(g6
S'\x04\x00\x00\x00'
p761
tp762
Rp763
(I39
I79
tp764
tp765
aa(lp766
(g2
(g6
S'\x04\x00\x00\x00'
p767
tp768
Rp769
(I0
I41
tp770
tp771
a(g2
(g6
S'\x04\x00\x00\x00'
p772
tp773
Rp774
(I41
I79
tp775
tp776
aa(lp777
(g2
(g6
S'\x04\x00\x00\x00'
p778
tp779
Rp780
(I0
I41
tp781
tp782
a(g2
(g6
S'\x04\x00\x00\x00'
p783
tp784
Rp785
(I41
I79
tp786
tp787
aa(lp788
(g2
(g6
S'\x04\x00\x00\x00'
p789
tp790
Rp791
(I0
I40
tp792
tp793
a(g2
(g6
S'\x04\x00\x00\x00'
p794
tp795
Rp796
(I40
I79
tp797
tp798
aa(lp799
(g2
(g6
S'\x04\x00\x00\x00'
p800
tp801
Rp802
(I0
I41
tp803
tp804
a(g2
(g6
S'\x04\x00\x00\x00'
p805
tp806
Rp807
(I41
I79
tp808
tp809
aa(lp810
(g2
(g6
S'\x04\x00\x00\x00'
p811
tp812
Rp813
(I0
I41
tp814
tp815
a(g2
(g6
S'\x04\x00\x00\x00'
p816
tp817
Rp818
(I41
I79
tp819
tp820
aa(lp821
(g2
(g6
S'\x04\x00\x00\x00'
p822
tp823
Rp824
(I0
I39
tp825
tp826
a(g2
(g6
S'\x04\x00\x00\x00'
p827
tp828
Rp829
(I39
I79
tp830
tp831
aa(lp832
(g2
(g6
S'\x04\x00\x00\x00'
p833
tp834
Rp835
(I0
I40
tp836
tp837
a(g2
(g6
S'\x04\x00\x00\x00'
p838
tp839
Rp840
(I40
I79
tp841
tp842
aa(lp843
(g2
(g6
S'\x04\x00\x00\x00'
p844
tp845
Rp846
(I0
I41
tp847
tp848
a(g2
(g6
S'\x04\x00\x00\x00'
p849
tp850
Rp851
(I41
I79
tp852
tp853
aa(lp854
(g2
(g6
S'\x04\x00\x00\x00'
p855
tp856
Rp857
(I0
I41
tp858
tp859
a(g2
(g6
S'\x04\x00\x00\x00'
p860
tp861
Rp862
(I41
I79
tp863
tp864
aa(lp865
(g2
(g6
S'\x04\x00\x00\x00'
p866
tp867
Rp868
(I0
I39
tp869
tp870
a(g2
(g6
S'\x04\x00\x00\x00'
p871
tp872
Rp873
(I39
I79
tp874
tp875
aa(lp876
(g2
(g6
S'\x04\x00\x00\x00'
p877
tp878
Rp879
(I0
I41
tp880
tp881
a(g2
(g6
S'\x04\x00\x00\x00'
p882
tp883
Rp884
(I41
I79
tp885
tp886
aa(lp887
(g2
(g6
S'\x04\x00\x00\x00'
p888
tp889
Rp890
(I0
I41
tp891
tp892
a(g2
(g6
S'\x04\x00\x00\x00'
p893
tp894
Rp895
(I41
I79
tp896
tp897
aa(lp898
(g2
(g6
S'\x04\x00\x00\x00'
p899
tp900
Rp901
(I0
I39
tp902
tp903
a(g2
(g6
S'\x06\x00\x00\x00'
p904
tp905
Rp906
(I39
I62
tp907
tp908
a(g2
(g6
S'\x05\x00\x00\x00'
p909
tp910
Rp911
(I62
I79
tp912
tp913
aa(lp914
(g2
(g6
S'\x06\x00\x00\x00'
p915
tp916
Rp917
(I0
I21
tp918
tp919
a(g2
(g6
S'\x05\x00\x00\x00'
p920
tp921
Rp922
(I21
I39
tp923
tp924
a(g2
(g6
S'\x06\x00\x00\x00'
p925
tp926
Rp927
(I39
I62
tp928
tp929
a(g2
(g6
S'\x05\x00\x00\x00'
p930
tp931
Rp932
(I62
I79
tp933
tp934
aa(lp935
(g2
(g6
S'\x04\x00\x00\x00'
p936
tp937
Rp938
(I0
I41
tp939
tp940
a(g2
(g6
S'\x06\x00\x00\x00'
p941
tp942
Rp943
(I41
I61
tp944
tp945
a(g2
(g6
S'\x05\x00\x00\x00'
p946
tp947
Rp948
(I61
I79
tp949
tp950
aa(lp951
(g2
(g6
S'\x06\x00\x00\x00'
p952
tp953
Rp954
(I0
I21
tp955
tp956
a(g2
(g6
S'\x05\x00\x00\x00'
p957
tp958
Rp959
(I21
I39
tp960
tp961
a(g2
(g6
S'\x06\x00\x00\x00'
p962
tp963
Rp964
(I39
I61
tp965
tp966
a(g2
(g6
S'\x05\x00\x00\x00'
p967
tp968
Rp969
(I61
I79
tp970
tp971
aa(lp972
(g2
(g6
S'\x04\x00\x00\x00'
p973
tp974
Rp975
(I0
I43
tp976
tp977
a(g2
(g6
S'\x04\x00\x00\x00'
p978
tp979
Rp980
(I43
I79
tp981
tp982
aa(lp983
(g2
(g6
S'\x04\x00\x00\x00'
p984
tp985
Rp986
(I0
I42
tp987
tp988
a(g2
(g6
S'\x04\x00\x00\x00'
p989
tp990
Rp991
(I42
I79
tp992
tp993
aa(lp994
(g2
(g6
S'\x04\x00\x00\x00'
p995
tp996
Rp997
(I0
I43
tp998
tp999
a(g2
(g6
S'\x04\x00\x00\x00'
p1000
tp1001
Rp1002
(I43
I79
tp1003
tp1004
aa(lp1005
(g2
(g6
S'\x04\x00\x00\x00'
p1006
tp1007
Rp1008
(I0
I43
tp1009
tp1010
a(g2
(g6
S'\x04\x00\x00\x00'
p1011
tp1012
Rp1013
(I43
I79
tp1014
tp1015
aa(lp1016
(g2
(g6
S'\x04\x00\x00\x00'
p1017
tp1018
Rp1019
(I0
I43
tp1020
tp1021
a(g2
(g6
S'\x04\x00\x00\x00'
p1022
tp1023
Rp1024
(I43
I79
tp1025
tp1026
aa(lp1027
(g2
(g6
S'\x04\x00\x00\x00'
p1028
tp1029
Rp1030
(I0
I43
tp1031
tp1032
a(g2
(g6
S'\x04\x00\x00\x00'
p1033
tp1034
Rp1035
(I43
I79
tp1036
tp1037
aa(lp1038
(g2
(g6
S'\x04\x00\x00\x00'
p1039
tp1040
Rp1041
(I0
I42
tp1042
tp1043
a(g2
(g6
S'\x04\x00\x00\x00'
p1044
tp1045
Rp1046
(I42
I79
tp1047
tp1048
aa(lp1049
(g2
(g6
S'\x04\x00\x00\x00'
p1050
tp1051
Rp1052
(I0
I43
tp1053
tp1054
a(g2
(g6
S'\x04\x00\x00\x00'
p1055
tp1056
Rp1057
(I43
I79
tp1058
tp1059
aa(lp1060
(g2
(g6
S'\x04\x00\x00\x00'
p1061
tp1062
Rp1063
(I0
I43
tp1064
tp1065
a(g2
(g6
S'\x04\x00\x00\x00'
p1066
tp1067
Rp1068
(I43
I79
tp1069
tp1070
aa(lp1071
(g2
(g6
S'\x04\x00\x00\x00'
p1072
tp1073
Rp1074
(I0
I43
tp1075
tp1076
a(g2
(g6
S'\x04\x00\x00\x00'
p1077
tp1078
Rp1079
(I43
I79
tp1080
tp1081
aa(lp1082
(g2
(g6
S'\x04\x00\x00\x00'
p1083
tp1084
Rp1085
(I0
I43
tp1086
tp1087
a(g2
(g6
S'\x04\x00\x00\x00'
p1088
tp1089
Rp1090
(I43
I79
tp1091
tp1092
aa(lp1093
(g2
(g6
S'\x04\x00\x00\x00'
p1094
tp1095
Rp1096
(I0
I43
tp1097
tp1098
a(g2
(g6
S'\x04\x00\x00\x00'
p1099
tp1100
Rp1101
(I43
I79
tp1102
tp1103
aa(lp1104
(g2
(g6
S'\x04\x00\x00\x00'
p1105
tp1106
Rp1107
(I0
I43
tp1108
tp1109
a(g2
(g6
S'\x04\x00\x00\x00'
p1110
tp1111
Rp1112
(I43
I79
tp1113
tp1114
aa(lp1115
(g2
(g6
S'\x04\x00\x00\x00'
p1116
tp1117
Rp1118
(I0
I43
tp1119
tp1120
a(g2
(g6
S'\x04\x00\x00\x00'
p1121
tp1122
Rp1123
(I43
I79
tp1124
tp1125
aa(lp1126
(g2
(g6
S'\x04\x00\x00\x00'
p1127
tp1128
Rp1129
(I0
I43
tp1130
tp1131
a(g2
(g6
S'\x04\x00\x00\x00'
p1132
tp1133
Rp1134
(I43
I79
tp1135
tp1136
aa(lp1137
(g2
(g6
S'\x04\x00\x00\x00'
p1138
tp1139
Rp1140
(I0
I43
tp1141
tp1142
a(g2
(g6
S'\x04\x00\x00\x00'
p1143
tp1144
Rp1145
(I43
I79
tp1146
tp1147
aa.