(lp0
(lp1
(cnumpy.core.multiarray
scalar
p2
(cnumpy
dtype
p3
(S'i4'
p4
I0
I1
tp5
Rp6
(I3
S'<'
p7
NNNI-1
I-1
I0
tp8
bS'\x01\x00\x00\x00'
p9
tp10
Rp11
(I0
I45
tp12
tp13
a(g2
(g6
S'\x01\x00\x00\x00'
p14
tp15
Rp16
(I45
I105
tp17
tp18
aa(lp19
(g2
(g6
S'\x04\x00\x00\x00'
p20
tp21
Rp22
(I0
I35
tp23
tp24
a(g2
(g6
S'\x01\x00\x00\x00'
p25
tp26
Rp27
(I35
I86
tp28
tp29
a(g2
(g6
S'\x04\x00\x00\x00'
p30
tp31
Rp32
(I86
I105
tp33
tp34
aa(lp35
(g2
(g6
S'\x04\x00\x00\x00'
p36
tp37
Rp38
(I0
I36
tp39
tp40
a(g2
(g6
S'\x01\x00\x00\x00'
p41
tp42
Rp43
(I36
I86
tp44
tp45
a(g2
(g6
S'\x06\x00\x00\x00'
p46
tp47
Rp48
(I86
I105
tp49
tp50
aa(lp51
(g2
(g6
S'\x04\x00\x00\x00'
p52
tp53
Rp54
(I0
I39
tp55
tp56
a(g2
(g6
S'\x01\x00\x00\x00'
p57
tp58
Rp59
(I39
I87
tp60
tp61
a(g2
(g6
S'\x06\x00\x00\x00'
p62
tp63
Rp64
(I87
I105
tp65
tp66
aa(lp67
(g2
(g6
S'\x04\x00\x00\x00'
p68
tp69
Rp70
(I0
I33
tp71
tp72
a(g2
(g6
S'\x01\x00\x00\x00'
p73
tp74
Rp75
(I33
I87
tp76
tp77
a(g2
(g6
S'\x06\x00\x00\x00'
p78
tp79
Rp80
(I87
I105
tp81
tp82
aa(lp83
(g2
(g6
S'\x04\x00\x00\x00'
p84
tp85
Rp86
(I0
I33
tp87
tp88
a(g2
(g6
S'\x01\x00\x00\x00'
p89
tp90
Rp91
(I33
I87
tp92
tp93
a(g2
(g6
S'\x06\x00\x00\x00'
p94
tp95
Rp96
(I87
I105
tp97
tp98
aa(lp99
(g2
(g6
S'\x04\x00\x00\x00'
p100
tp101
Rp102
(I0
I32
tp103
tp104
a(g2
(g6
S'\x01\x00\x00\x00'
p105
tp106
Rp107
(I32
I87
tp108
tp109
a(g2
(g6
S'\x06\x00\x00\x00'
p110
tp111
Rp112
(I87
I105
tp113
tp114
aa(lp115
(g2
(g6
S'\x04\x00\x00\x00'
p116
tp117
Rp118
(I0
I29
tp119
tp120
a(g2
(g6
S'\x01\x00\x00\x00'
p121
tp122
Rp123
(I29
I88
tp124
tp125
a(g2
(g6
S'\x06\x00\x00\x00'
p126
tp127
Rp128
(I88
I105
tp129
tp130
aa(lp131
(g2
(g6
S'\x04\x00\x00\x00'
p132
tp133
Rp134
(I0
I34
tp135
tp136
a(g2
(g6
S'\x01\x00\x00\x00'
p137
tp138
Rp139
(I34
I87
tp140
tp141
a(g2
(g6
S'\x06\x00\x00\x00'
p142
tp143
Rp144
(I87
I105
tp145
tp146
aa(lp147
(g2
(g6
S'\x04\x00\x00\x00'
p148
tp149
Rp150
(I0
I37
tp151
tp152
a(g2
(g6
S'\x01\x00\x00\x00'
p153
tp154
Rp155
(I37
I87
tp156
tp157
a(g2
(g6
S'\x06\x00\x00\x00'
p158
tp159
Rp160
(I87
I105
tp161
tp162
aa(lp163
(g2
(g6
S'\x04\x00\x00\x00'
p164
tp165
Rp166
(I0
I32
tp167
tp168
a(g2
(g6
S'\x01\x00\x00\x00'
p169
tp170
Rp171
(I32
I87
tp172
tp173
a(g2
(g6
S'\x06\x00\x00\x00'
p174
tp175
Rp176
(I87
I105
tp177
tp178
aa(lp179
(g2
(g6
S'\x04\x00\x00\x00'
p180
tp181
Rp182
(I0
I34
tp183
tp184
a(g2
(g6
S'\x01\x00\x00\x00'
p185
tp186
Rp187
(I34
I87
tp188
tp189
a(g2
(g6
S'\x06\x00\x00\x00'
p190
tp191
Rp192
(I87
I105
tp193
tp194
aa(lp195
(g2
(g6
S'\x04\x00\x00\x00'
p196
tp197
Rp198
(I0
I36
tp199
tp200
a(g2
(g6
S'\x01\x00\x00\x00'
p201
tp202
Rp203
(I36
I87
tp204
tp205
a(g2
(g6
S'\x06\x00\x00\x00'
p206
tp207
Rp208
(I87
I105
tp209
tp210
aa(lp211
(g2
(g6
S'\x04\x00\x00\x00'
p212
tp213
Rp214
(I0
I32
tp215
tp216
a(g2
(g6
S'\x01\x00\x00\x00'
p217
tp218
Rp219
(I32
I86
tp220
tp221
a(g2
(g6
S'\x06\x00\x00\x00'
p222
tp223
Rp224
(I86
I105
tp225
tp226
aa(lp227
(g2
(g6
S'\x04\x00\x00\x00'
p228
tp229
Rp230
(I0
I33
tp231
tp232
a(g2
(g6
S'\x01\x00\x00\x00'
p233
tp234
Rp235
(I33
I87
tp236
tp237
a(g2
(g6
S'\x06\x00\x00\x00'
p238
tp239
Rp240
(I87
I105
tp241
tp242
aa(lp243
(g2
(g6
S'\x04\x00\x00\x00'
p244
tp245
Rp246
(I0
I34
tp247
tp248
a(g2
(g6
S'\x01\x00\x00\x00'
p249
tp250
Rp251
(I34
I88
tp252
tp253
a(g2
(g6
S'\x06\x00\x00\x00'
p254
tp255
Rp256
(I88
I105
tp257
tp258
aa(lp259
(g2
(g6
S'\x04\x00\x00\x00'
p260
tp261
Rp262
(I0
I37
tp263
tp264
a(g2
(g6
S'\x01\x00\x00\x00'
p265
tp266
Rp267
(I37
I88
tp268
tp269
a(g2
(g6
S'\x06\x00\x00\x00'
p270
tp271
Rp272
(I88
I105
tp273
tp274
aa(lp275
(g2
(g6
S'\x04\x00\x00\x00'
p276
tp277
Rp278
(I0
I35
tp279
tp280
a(g2
(g6
S'\x01\x00\x00\x00'
p281
tp282
Rp283
(I35
I88
tp284
tp285
a(g2
(g6
S'\x06\x00\x00\x00'
p286
tp287
Rp288
(I88
I105
tp289
tp290
aa(lp291
(g2
(g6
S'\x04\x00\x00\x00'
p292
tp293
Rp294
(I0
I33
tp295
tp296
a(g2
(g6
S'\x01\x00\x00\x00'
p297
tp298
Rp299
(I33
I88
tp300
tp301
a(g2
(g6
S'\x06\x00\x00\x00'
p302
tp303
Rp304
(I88
I105
tp305
tp306
aa(lp307
(g2
(g6
S'\x04\x00\x00\x00'
p308
tp309
Rp310
(I0
I35
tp311
tp312
a(g2
(g6
S'\x01\x00\x00\x00'
p313
tp314
Rp315
(I35
I88
tp316
tp317
a(g2
(g6
S'\x06\x00\x00\x00'
p318
tp319
Rp320
(I88
I105
tp321
tp322
aa(lp323
(g2
(g6
S'\x04\x00\x00\x00'
p324
tp325
Rp326
(I0
I38
tp327
tp328
a(g2
(g6
S'\x01\x00\x00\x00'
p329
tp330
Rp331
(I38
I88
tp332
tp333
a(g2
(g6
S'\x06\x00\x00\x00'
p334
tp335
Rp336
(I88
I105
tp337
tp338
aa(lp339
(g2
(g6
S'\x04\x00\x00\x00'
p340
tp341
Rp342
(I0
I34
tp343
tp344
a(g2
(g6
S'\x01\x00\x00\x00'
p345
tp346
Rp347
(I34
I88
tp348
tp349
a(g2
(g6
S'\x06\x00\x00\x00'
p350
tp351
Rp352
(I88
I105
tp353
tp354
aa(lp355
(g2
(g6
S'\x04\x00\x00\x00'
p356
tp357
Rp358
(I0
I40
tp359
tp360
a(g2
(g6
S'\x01\x00\x00\x00'
p361
tp362
Rp363
(I40
I88
tp364
tp365
a(g2
(g6
S'\x06\x00\x00\x00'
p366
tp367
Rp368
(I88
I105
tp369
tp370
aa(lp371
(g2
(g6
S'\x04\x00\x00\x00'
p372
tp373
Rp374
(I0
I35
tp375
tp376
a(g2
(g6
S'\x01\x00\x00\x00'
p377
tp378
Rp379
(I35
I88
tp380
tp381
a(g2
(g6
S'\x06\x00\x00\x00'
p382
tp383
Rp384
(I88
I105
tp385
tp386
aa(lp387
(g2
(g6
S'\x04\x00\x00\x00'
p388
tp389
Rp390
(I0
I37
tp391
tp392
a(g2
(g6
S'\x01\x00\x00\x00'
p393
tp394
Rp395
(I37
I88
tp396
tp397
a(g2
(g6
S'\x06\x00\x00\x00'
p398
tp399
Rp400
(I88
I105
tp401
tp402
aa(lp403
(g2
(g6
S'\x04\x00\x00\x00'
p404
tp405
Rp406
(I0
I35
tp407
tp408
a(g2
(g6
S'\x01\x00\x00\x00'
p409
tp410
Rp411
(I35
I88
tp412
tp413
a(g2
(g6
S'\x06\x00\x00\x00'
p414
tp415
Rp416
(I88
I105
tp417
tp418
aa(lp419
(g2
(g6
S'\x04\x00\x00\x00'
p420
tp421
Rp422
(I0
I36
tp423
tp424
a(g2
(g6
S'\x01\x00\x00\x00'
p425
tp426
Rp427
(I36
I88
tp428
tp429
a(g2
(g6
S'\x06\x00\x00\x00'
p430
tp431
Rp432
(I88
I105
tp433
tp434
aa(lp435
(g2
(g6
S'\x04\x00\x00\x00'
p436
tp437
Rp438
(I0
I35
tp439
tp440
a(g2
(g6
S'\x01\x00\x00\x00'
p441
tp442
Rp443
(I35
I88
tp444
tp445
a(g2
(g6
S'\x06\x00\x00\x00'
p446
tp447
Rp448
(I88
I105
tp449
tp450
aa(lp451
(g2
(g6
S'\x04\x00\x00\x00'
p452
tp453
Rp454
(I0
I39
tp455
tp456
a(g2
(g6
S'\x01\x00\x00\x00'
p457
tp458
Rp459
(I39
I88
tp460
tp461
a(g2
(g6
S'\x06\x00\x00\x00'
p462
tp463
Rp464
(I88
I105
tp465
tp466
aa(lp467
(g2
(g6
S'\x04\x00\x00\x00'
p468
tp469
Rp470
(I0
I35
tp471
tp472
a(g2
(g6
S'\x01\x00\x00\x00'
p473
tp474
Rp475
(I35
I88
tp476
tp477
a(g2
(g6
S'\x06\x00\x00\x00'
p478
tp479
Rp480
(I88
I105
tp481
tp482
aa(lp483
(g2
(g6
S'\x04\x00\x00\x00'
p484
tp485
Rp486
(I0
I33
tp487
tp488
a(g2
(g6
S'\x01\x00\x00\x00'
p489
tp490
Rp491
(I33
I88
tp492
tp493
a(g2
(g6
S'\x06\x00\x00\x00'
p494
tp495
Rp496
(I88
I105
tp497
tp498
aa(lp499
(g2
(g6
S'\x04\x00\x00\x00'
p500
tp501
Rp502
(I0
I32
tp503
tp504
a(g2
(g6
S'\x01\x00\x00\x00'
p505
tp506
Rp507
(I32
I88
tp508
tp509
a(g2
(g6
S'\x06\x00\x00\x00'
p510
tp511
Rp512
(I88
I105
tp513
tp514
aa(lp515
(g2
(g6
S'\x04\x00\x00\x00'
p516
tp517
Rp518
(I0
I34
tp519
tp520
a(g2
(g6
S'\x01\x00\x00\x00'
p521
tp522
Rp523
(I34
I88
tp524
tp525
a(g2
(g6
S'\x06\x00\x00\x00'
p526
tp527
Rp528
(I88
I105
tp529
tp530
aa(lp531
(g2
(g6
S'\x04\x00\x00\x00'
p532
tp533
Rp534
(I0
I32
tp535
tp536
a(g2
(g6
S'\x01\x00\x00\x00'
p537
tp538
Rp539
(I32
I88
tp540
tp541
a(g2
(g6
S'\x06\x00\x00\x00'
p542
tp543
Rp544
(I88
I105
tp545
tp546
aa(lp547
(g2
(g6
S'\x04\x00\x00\x00'
p548
tp549
Rp550
(I0
I33
tp551
tp552
a(g2
(g6
S'\x01\x00\x00\x00'
p553
tp554
Rp555
(I33
I88
tp556
tp557
a(g2
(g6
S'\x06\x00\x00\x00'
p558
tp559
Rp560
(I88
I105
tp561
tp562
aa(lp563
(g2
(g6
S'\x04\x00\x00\x00'
p564
tp565
Rp566
(I0
I34
tp567
tp568
a(g2
(g6
S'\x01\x00\x00\x00'
p569
tp570
Rp571
(I34
I88
tp572
tp573
a(g2
(g6
S'\x06\x00\x00\x00'
p574
tp575
Rp576
(I88
I105
tp577
tp578
aa(lp579
(g2
(g6
S'\x04\x00\x00\x00'
p580
tp581
Rp582
(I0
I32
tp583
tp584
a(g2
(g6
S'\x01\x00\x00\x00'
p585
tp586
Rp587
(I32
I88
tp588
tp589
a(g2
(g6
S'\x06\x00\x00\x00'
p590
tp591
Rp592
(I88
I105
tp593
tp594
aa(lp595
(g2
(g6
S'\x04\x00\x00\x00'
p596
tp597
Rp598
(I0
I37
tp599
tp600
a(g2
(g6
S'\x01\x00\x00\x00'
p601
tp602
Rp603
(I37
I88
tp604
tp605
a(g2
(g6
S'\x06\x00\x00\x00'
p606
tp607
Rp608
(I88
I105
tp609
tp610
aa(lp611
(g2
(g6
S'\x04\x00\x00\x00'
p612
tp613
Rp614
(I0
I33
tp615
tp616
a(g2
(g6
S'\x01\x00\x00\x00'
p617
tp618
Rp619
(I33
I88
tp620
tp621
a(g2
(g6
S'\x06\x00\x00\x00'
p622
tp623
Rp624
(I88
I105
tp625
tp626
aa(lp627
(g2
(g6
S'\x04\x00\x00\x00'
p628
tp629
Rp630
(I0
I34
tp631
tp632
a(g2
(g6
S'\x01\x00\x00\x00'
p633
tp634
Rp635
(I34
I88
tp636
tp637
a(g2
(g6
S'\x06\x00\x00\x00'
p638
tp639
Rp640
(I88
I105
tp641
tp642
aa(lp643
(g2
(g6
S'\x04\x00\x00\x00'
p644
tp645
Rp646
(I0
I33
tp647
tp648
a(g2
(g6
S'\x01\x00\x00\x00'
p649
tp650
Rp651
(I33
I88
tp652
tp653
a(g2
(g6
S'\x06\x00\x00\x00'
p654
tp655
Rp656
(I88
I105
tp657
tp658
aa(lp659
(g2
(g6
S'\x04\x00\x00\x00'
p660
tp661
Rp662
(I0
I34
tp663
tp664
a(g2
(g6
S'\x01\x00\x00\x00'
p665
tp666
Rp667
(I34
I88
tp668
tp669
a(g2
(g6
S'\x06\x00\x00\x00'
p670
tp671
Rp672
(I88
I105
tp673
tp674
aa(lp675
(g2
(g6
S'\x04\x00\x00\x00'
p676
tp677
Rp678
(I0
I34
tp679
tp680
a(g2
(g6
S'\x01\x00\x00\x00'
p681
tp682
Rp683
(I34
I88
tp684
tp685
a(g2
(g6
S'\x06\x00\x00\x00'
p686
tp687
Rp688
(I88
I105
tp689
tp690
aa(lp691
(g2
(g6
S'\x04\x00\x00\x00'
p692
tp693
Rp694
(I0
I36
tp695
tp696
a(g2
(g6
S'\x01\x00\x00\x00'
p697
tp698
Rp699
(I36
I88
tp700
tp701
a(g2
(g6
S'\x06\x00\x00\x00'
p702
tp703
Rp704
(I88
I105
tp705
tp706
aa(lp707
(g2
(g6
S'\x04\x00\x00\x00'
p708
tp709
Rp710
(I0
I34
tp711
tp712
a(g2
(g6
S'\x01\x00\x00\x00'
p713
tp714
Rp715
(I34
I88
tp716
tp717
a(g2
(g6
S'\x06\x00\x00\x00'
p718
tp719
Rp720
(I88
I105
tp721
tp722
aa(lp723
(g2
(g6
S'\x04\x00\x00\x00'
p724
tp725
Rp726
(I0
I36
tp727
tp728
a(g2
(g6
S'\x01\x00\x00\x00'
p729
tp730
Rp731
(I36
I88
tp732
tp733
a(g2
(g6
S'\x06\x00\x00\x00'
p734
tp735
Rp736
(I88
I105
tp737
tp738
aa(lp739
(g2
(g6
S'\x04\x00\x00\x00'
p740
tp741
Rp742
(I0
I37
tp743
tp744
a(g2
(g6
S'\x01\x00\x00\x00'
p745
tp746
Rp747
(I37
I88
tp748
tp749
a(g2
(g6
S'\x06\x00\x00\x00'
p750
tp751
Rp752
(I88
I105
tp753
tp754
aa(lp755
(g2
(g6
S'\x04\x00\x00\x00'
p756
tp757
Rp758
(I0
I31
tp759
tp760
a(g2
(g6
S'\x01\x00\x00\x00'
p761
tp762
Rp763
(I31
I88
tp764
tp765
a(g2
(g6
S'\x06\x00\x00\x00'
p766
tp767
Rp768
(I88
I105
tp769
tp770
aa(lp771
(g2
(g6
S'\x04\x00\x00\x00'
p772
tp773
Rp774
(I0
I39
tp775
tp776
a(g2
(g6
S'\x01\x00\x00\x00'
p777
tp778
Rp779
(I39
I88
tp780
tp781
a(g2
(g6
S'\x06\x00\x00\x00'
p782
tp783
Rp784
(I88
I105
tp785
tp786
aa(lp787
(g2
(g6
S'\x04\x00\x00\x00'
p788
tp789
Rp790
(I0
I38
tp791
tp792
a(g2
(g6
S'\x01\x00\x00\x00'
p793
tp794
Rp795
(I38
I88
tp796
tp797
a(g2
(g6
S'\x06\x00\x00\x00'
p798
tp799
Rp800
(I88
I105
tp801
tp802
aa(lp803
(g2
(g6
S'\x04\x00\x00\x00'
p804
tp805
Rp806
(I0
I38
tp807
tp808
a(g2
(g6
S'\x01\x00\x00\x00'
p809
tp810
Rp811
(I38
I88
tp812
tp813
a(g2
(g6
S'\x06\x00\x00\x00'
p814
tp815
Rp816
(I88
I105
tp817
tp818
aa(lp819
(g2
(g6
S'\x04\x00\x00\x00'
p820
tp821
Rp822
(I0
I36
tp823
tp824
a(g2
(g6
S'\x01\x00\x00\x00'
p825
tp826
Rp827
(I36
I88
tp828
tp829
a(g2
(g6
S'\x06\x00\x00\x00'
p830
tp831
Rp832
(I88
I105
tp833
tp834
aa(lp835
(g2
(g6
S'\x04\x00\x00\x00'
p836
tp837
Rp838
(I0
I37
tp839
tp840
a(g2
(g6
S'\x01\x00\x00\x00'
p841
tp842
Rp843
(I37
I88
tp844
tp845
a(g2
(g6
S'\x06\x00\x00\x00'
p846
tp847
Rp848
(I88
I105
tp849
tp850
aa(lp851
(g2
(g6
S'\x04\x00\x00\x00'
p852
tp853
Rp854
(I0
I34
tp855
tp856
a(g2
(g6
S'\x01\x00\x00\x00'
p857
tp858
Rp859
(I34
I88
tp860
tp861
a(g2
(g6
S'\x06\x00\x00\x00'
p862
tp863
Rp864
(I88
I105
tp865
tp866
aa(lp867
(g2
(g6
S'\x04\x00\x00\x00'
p868
tp869
Rp870
(I0
I34
tp871
tp872
a(g2
(g6
S'\x01\x00\x00\x00'
p873
tp874
Rp875
(I34
I88
tp876
tp877
a(g2
(g6
S'\x06\x00\x00\x00'
p878
tp879
Rp880
(I88
I105
tp881
tp882
aa(lp883
(g2
(g6
S'\x04\x00\x00\x00'
p884
tp885
Rp886
(I0
I36
tp887
tp888
a(g2
(g6
S'\x01\x00\x00\x00'
p889
tp890
Rp891
(I36
I88
tp892
tp893
a(g2
(g6
S'\x06\x00\x00\x00'
p894
tp895
Rp896
(I88
I105
tp897
tp898
aa(lp899
(g2
(g6
S'\x04\x00\x00\x00'
p900
tp901
Rp902
(I0
I37
tp903
tp904
a(g2
(g6
S'\x01\x00\x00\x00'
p905
tp906
Rp907
(I37
I88
tp908
tp909
a(g2
(g6
S'\x06\x00\x00\x00'
p910
tp911
Rp912
(I88
I105
tp913
tp914
aa(lp915
(g2
(g6
S'\x04\x00\x00\x00'
p916
tp917
Rp918
(I0
I39
tp919
tp920
a(g2
(g6
S'\x01\x00\x00\x00'
p921
tp922
Rp923
(I39
I88
tp924
tp925
a(g2
(g6
S'\x06\x00\x00\x00'
p926
tp927
Rp928
(I88
I105
tp929
tp930
aa(lp931
(g2
(g6
S'\x04\x00\x00\x00'
p932
tp933
Rp934
(I0
I35
tp935
tp936
a(g2
(g6
S'\x01\x00\x00\x00'
p937
tp938
Rp939
(I35
I88
tp940
tp941
a(g2
(g6
S'\x06\x00\x00\x00'
p942
tp943
Rp944
(I88
I105
tp945
tp946
aa(lp947
(g2
(g6
S'\x04\x00\x00\x00'
p948
tp949
Rp950
(I0
I36
tp951
tp952
a(g2
(g6
S'\x01\x00\x00\x00'
p953
tp954
Rp955
(I36
I88
tp956
tp957
a(g2
(g6
S'\x06\x00\x00\x00'
p958
tp959
Rp960
(I88
I105
tp961
tp962
aa(lp963
(g2
(g6
S'\x04\x00\x00\x00'
p964
tp965
Rp966
(I0
I36
tp967
tp968
a(g2
(g6
S'\x01\x00\x00\x00'
p969
tp970
Rp971
(I36
I88
tp972
tp973
a(g2
(g6
S'\x06\x00\x00\x00'
p974
tp975
Rp976
(I88
I105
tp977
tp978
aa(lp979
(g2
(g6
S'\x04\x00\x00\x00'
p980
tp981
Rp982
(I0
I36
tp983
tp984
a(g2
(g6
S'\x01\x00\x00\x00'
p985
tp986
Rp987
(I36
I88
tp988
tp989
a(g2
(g6
S'\x06\x00\x00\x00'
p990
tp991
Rp992
(I88
I105
tp993
tp994
aa(lp995
(g2
(g6
S'\x04\x00\x00\x00'
p996
tp997
Rp998
(I0
I40
tp999
tp1000
a(g2
(g6
S'\x01\x00\x00\x00'
p1001
tp1002
Rp1003
(I40
I88
tp1004
tp1005
a(g2
(g6
S'\x06\x00\x00\x00'
p1006
tp1007
Rp1008
(I88
I105
tp1009
tp1010
aa(lp1011
(g2
(g6
S'\x04\x00\x00\x00'
p1012
tp1013
Rp1014
(I0
I31
tp1015
tp1016
a(g2
(g6
S'\x01\x00\x00\x00'
p1017
tp1018
Rp1019
(I31
I88
tp1020
tp1021
a(g2
(g6
S'\x06\x00\x00\x00'
p1022
tp1023
Rp1024
(I88
I105
tp1025
tp1026
aa(lp1027
(g2
(g6
S'\x04\x00\x00\x00'
p1028
tp1029
Rp1030
(I0
I35
tp1031
tp1032
a(g2
(g6
S'\x01\x00\x00\x00'
p1033
tp1034
Rp1035
(I35
I88
tp1036
tp1037
a(g2
(g6
S'\x06\x00\x00\x00'
p1038
tp1039
Rp1040
(I88
I105
tp1041
tp1042
aa(lp1043
(g2
(g6
S'\x04\x00\x00\x00'
p1044
tp1045
Rp1046
(I0
I33
tp1047
tp1048
a(g2
(g6
S'\x01\x00\x00\x00'
p1049
tp1050
Rp1051
(I33
I88
tp1052
tp1053
a(g2
(g6
S'\x06\x00\x00\x00'
p1054
tp1055
Rp1056
(I88
I105
tp1057
tp1058
aa(lp1059
(g2
(g6
S'\x04\x00\x00\x00'
p1060
tp1061
Rp1062
(I0
I37
tp1063
tp1064
a(g2
(g6
S'\x01\x00\x00\x00'
p1065
tp1066
Rp1067
(I37
I88
tp1068
tp1069
a(g2
(g6
S'\x06\x00\x00\x00'
p1070
tp1071
Rp1072
(I88
I105
tp1073
tp1074
aa(lp1075
(g2
(g6
S'\x04\x00\x00\x00'
p1076
tp1077
Rp1078
(I0
I33
tp1079
tp1080
a(g2
(g6
S'\x01\x00\x00\x00'
p1081
tp1082
Rp1083
(I33
I88
tp1084
tp1085
a(g2
(g6
S'\x06\x00\x00\x00'
p1086
tp1087
Rp1088
(I88
I105
tp1089
tp1090
aa(lp1091
(g2
(g6
S'\x04\x00\x00\x00'
p1092
tp1093
Rp1094
(I0
I35
tp1095
tp1096
a(g2
(g6
S'\x01\x00\x00\x00'
p1097
tp1098
Rp1099
(I35
I88
tp1100
tp1101
a(g2
(g6
S'\x06\x00\x00\x00'
p1102
tp1103
Rp1104
(I88
I105
tp1105
tp1106
aa(lp1107
(g2
(g6
S'\x04\x00\x00\x00'
p1108
tp1109
Rp1110
(I0
I37
tp1111
tp1112
a(g2
(g6
S'\x01\x00\x00\x00'
p1113
tp1114
Rp1115
(I37
I88
tp1116
tp1117
a(g2
(g6
S'\x06\x00\x00\x00'
p1118
tp1119
Rp1120
(I88
I105
tp1121
tp1122
aa(lp1123
(g2
(g6
S'\x04\x00\x00\x00'
p1124
tp1125
Rp1126
(I0
I32
tp1127
tp1128
a(g2
(g6
S'\x01\x00\x00\x00'
p1129
tp1130
Rp1131
(I32
I88
tp1132
tp1133
a(g2
(g6
S'\x06\x00\x00\x00'
p1134
tp1135
Rp1136
(I88
I105
tp1137
tp1138
aa(lp1139
(g2
(g6
S'\x04\x00\x00\x00'
p1140
tp1141
Rp1142
(I0
I38
tp1143
tp1144
a(g2
(g6
S'\x01\x00\x00\x00'
p1145
tp1146
Rp1147
(I38
I88
tp1148
tp1149
a(g2
(g6
S'\x06\x00\x00\x00'
p1150
tp1151
Rp1152
(I88
I105
tp1153
tp1154
aa(lp1155
(g2
(g6
S'\x04\x00\x00\x00'
p1156
tp1157
Rp1158
(I0
I34
tp1159
tp1160
a(g2
(g6
S'\x01\x00\x00\x00'
p1161
tp1162
Rp1163
(I34
I88
tp1164
tp1165
a(g2
(g6
S'\x06\x00\x00\x00'
p1166
tp1167
Rp1168
(I88
I105
tp1169
tp1170
aa(lp1171
(g2
(g6
S'\x04\x00\x00\x00'
p1172
tp1173
Rp1174
(I0
I34
tp1175
tp1176
a(g2
(g6
S'\x01\x00\x00\x00'
p1177
tp1178
Rp1179
(I34
I88
tp1180
tp1181
a(g2
(g6
S'\x06\x00\x00\x00'
p1182
tp1183
Rp1184
(I88
I105
tp1185
tp1186
aa(lp1187
(g2
(g6
S'\x04\x00\x00\x00'
p1188
tp1189
Rp1190
(I0
I34
tp1191
tp1192
a(g2
(g6
S'\x01\x00\x00\x00'
p1193
tp1194
Rp1195
(I34
I88
tp1196
tp1197
a(g2
(g6
S'\x06\x00\x00\x00'
p1198
tp1199
Rp1200
(I88
I105
tp1201
tp1202
aa(lp1203
(g2
(g6
S'\x04\x00\x00\x00'
p1204
tp1205
Rp1206
(I0
I32
tp1207
tp1208
a(g2
(g6
S'\x01\x00\x00\x00'
p1209
tp1210
Rp1211
(I32
I88
tp1212
tp1213
a(g2
(g6
S'\x06\x00\x00\x00'
p1214
tp1215
Rp1216
(I88
I105
tp1217
tp1218
aa(lp1219
(g2
(g6
S'\x04\x00\x00\x00'
p1220
tp1221
Rp1222
(I0
I34
tp1223
tp1224
a(g2
(g6
S'\x01\x00\x00\x00'
p1225
tp1226
Rp1227
(I34
I88
tp1228
tp1229
a(g2
(g6
S'\x06\x00\x00\x00'
p1230
tp1231
Rp1232
(I88
I105
tp1233
tp1234
aa(lp1235
(g2
(g6
S'\x04\x00\x00\x00'
p1236
tp1237
Rp1238
(I0
I32
tp1239
tp1240
a(g2
(g6
S'\x01\x00\x00\x00'
p1241
tp1242
Rp1243
(I32
I88
tp1244
tp1245
a(g2
(g6
S'\x06\x00\x00\x00'
p1246
tp1247
Rp1248
(I88
I105
tp1249
tp1250
aa(lp1251
(g2
(g6
S'\x04\x00\x00\x00'
p1252
tp1253
Rp1254
(I0
I33
tp1255
tp1256
a(g2
(g6
S'\x01\x00\x00\x00'
p1257
tp1258
Rp1259
(I33
I88
tp1260
tp1261
a(g2
(g6
S'\x06\x00\x00\x00'
p1262
tp1263
Rp1264
(I88
I105
tp1265
tp1266
aa(lp1267
(g2
(g6
S'\x04\x00\x00\x00'
p1268
tp1269
Rp1270
(I0
I35
tp1271
tp1272
a(g2
(g6
S'\x01\x00\x00\x00'
p1273
tp1274
Rp1275
(I35
I88
tp1276
tp1277
a(g2
(g6
S'\x06\x00\x00\x00'
p1278
tp1279
Rp1280
(I88
I105
tp1281
tp1282
aa(lp1283
(g2
(g6
S'\x04\x00\x00\x00'
p1284
tp1285
Rp1286
(I0
I38
tp1287
tp1288
a(g2
(g6
S'\x01\x00\x00\x00'
p1289
tp1290
Rp1291
(I38
I88
tp1292
tp1293
a(g2
(g6
S'\x06\x00\x00\x00'
p1294
tp1295
Rp1296
(I88
I105
tp1297
tp1298
aa(lp1299
(g2
(g6
S'\x04\x00\x00\x00'
p1300
tp1301
Rp1302
(I0
I41
tp1303
tp1304
a(g2
(g6
S'\x01\x00\x00\x00'
p1305
tp1306
Rp1307
(I41
I88
tp1308
tp1309
a(g2
(g6
S'\x06\x00\x00\x00'
p1310
tp1311
Rp1312
(I88
I105
tp1313
tp1314
aa(lp1315
(g2
(g6
S'\x04\x00\x00\x00'
p1316
tp1317
Rp1318
(I0
I38
tp1319
tp1320
a(g2
(g6
S'\x01\x00\x00\x00'
p1321
tp1322
Rp1323
(I38
I88
tp1324
tp1325
a(g2
(g6
S'\x06\x00\x00\x00'
p1326
tp1327
Rp1328
(I88
I105
tp1329
tp1330
aa(lp1331
(g2
(g6
S'\x04\x00\x00\x00'
p1332
tp1333
Rp1334
(I0
I36
tp1335
tp1336
a(g2
(g6
S'\x01\x00\x00\x00'
p1337
tp1338
Rp1339
(I36
I88
tp1340
tp1341
a(g2
(g6
S'\x06\x00\x00\x00'
p1342
tp1343
Rp1344
(I88
I105
tp1345
tp1346
aa(lp1347
(g2
(g6
S'\x04\x00\x00\x00'
p1348
tp1349
Rp1350
(I0
I42
tp1351
tp1352
a(g2
(g6
S'\x01\x00\x00\x00'
p1353
tp1354
Rp1355
(I42
I88
tp1356
tp1357
a(g2
(g6
S'\x06\x00\x00\x00'
p1358
tp1359
Rp1360
(I88
I105
tp1361
tp1362
aa(lp1363
(g2
(g6
S'\x04\x00\x00\x00'
p1364
tp1365
Rp1366
(I0
I45
tp1367
tp1368
a(g2
(g6
S'\x01\x00\x00\x00'
p1369
tp1370
Rp1371
(I45
I88
tp1372
tp1373
a(g2
(g6
S'\x06\x00\x00\x00'
p1374
tp1375
Rp1376
(I88
I105
tp1377
tp1378
aa(lp1379
(g2
(g6
S'\x04\x00\x00\x00'
p1380
tp1381
Rp1382
(I0
I43
tp1383
tp1384
a(g2
(g6
S'\x01\x00\x00\x00'
p1385
tp1386
Rp1387
(I43
I88
tp1388
tp1389
a(g2
(g6
S'\x06\x00\x00\x00'
p1390
tp1391
Rp1392
(I88
I105
tp1393
tp1394
aa(lp1395
(g2
(g6
S'\x04\x00\x00\x00'
p1396
tp1397
Rp1398
(I0
I43
tp1399
tp1400
a(g2
(g6
S'\x01\x00\x00\x00'
p1401
tp1402
Rp1403
(I43
I88
tp1404
tp1405
a(g2
(g6
S'\x06\x00\x00\x00'
p1406
tp1407
Rp1408
(I88
I105
tp1409
tp1410
aa(lp1411
(g2
(g6
S'\x04\x00\x00\x00'
p1412
tp1413
Rp1414
(I0
I37
tp1415
tp1416
a(g2
(g6
S'\x01\x00\x00\x00'
p1417
tp1418
Rp1419
(I37
I88
tp1420
tp1421
a(g2
(g6
S'\x06\x00\x00\x00'
p1422
tp1423
Rp1424
(I88
I105
tp1425
tp1426
aa(lp1427
(g2
(g6
S'\x04\x00\x00\x00'
p1428
tp1429
Rp1430
(I0
I44
tp1431
tp1432
a(g2
(g6
S'\x01\x00\x00\x00'
p1433
tp1434
Rp1435
(I44
I88
tp1436
tp1437
a(g2
(g6
S'\x06\x00\x00\x00'
p1438
tp1439
Rp1440
(I88
I105
tp1441
tp1442
aa(lp1443
(g2
(g6
S'\x04\x00\x00\x00'
p1444
tp1445
Rp1446
(I0
I41
tp1447
tp1448
a(g2
(g6
S'\x01\x00\x00\x00'
p1449
tp1450
Rp1451
(I41
I88
tp1452
tp1453
a(g2
(g6
S'\x06\x00\x00\x00'
p1454
tp1455
Rp1456
(I88
I105
tp1457
tp1458
aa(lp1459
(g2
(g6
S'\x04\x00\x00\x00'
p1460
tp1461
Rp1462
(I0
I39
tp1463
tp1464
a(g2
(g6
S'\x01\x00\x00\x00'
p1465
tp1466
Rp1467
(I39
I88
tp1468
tp1469
a(g2
(g6
S'\x06\x00\x00\x00'
p1470
tp1471
Rp1472
(I88
I105
tp1473
tp1474
aa(lp1475
(g2
(g6
S'\x04\x00\x00\x00'
p1476
tp1477
Rp1478
(I0
I40
tp1479
tp1480
a(g2
(g6
S'\x01\x00\x00\x00'
p1481
tp1482
Rp1483
(I40
I88
tp1484
tp1485
a(g2
(g6
S'\x06\x00\x00\x00'
p1486
tp1487
Rp1488
(I88
I105
tp1489
tp1490
aa(lp1491
(g2
(g6
S'\x04\x00\x00\x00'
p1492
tp1493
Rp1494
(I0
I44
tp1495
tp1496
a(g2
(g6
S'\x01\x00\x00\x00'
p1497
tp1498
Rp1499
(I44
I88
tp1500
tp1501
a(g2
(g6
S'\x06\x00\x00\x00'
p1502
tp1503
Rp1504
(I88
I105
tp1505
tp1506
aa(lp1507
(g2
(g6
S'\x04\x00\x00\x00'
p1508
tp1509
Rp1510
(I0
I40
tp1511
tp1512
a(g2
(g6
S'\x01\x00\x00\x00'
p1513
tp1514
Rp1515
(I40
I88
tp1516
tp1517
a(g2
(g6
S'\x06\x00\x00\x00'
p1518
tp1519
Rp1520
(I88
I105
tp1521
tp1522
aa(lp1523
(g2
(g6
S'\x04\x00\x00\x00'
p1524
tp1525
Rp1526
(I0
I40
tp1527
tp1528
a(g2
(g6
S'\x01\x00\x00\x00'
p1529
tp1530
Rp1531
(I40
I88
tp1532
tp1533
a(g2
(g6
S'\x06\x00\x00\x00'
p1534
tp1535
Rp1536
(I88
I105
tp1537
tp1538
aa(lp1539
(g2
(g6
S'\x04\x00\x00\x00'
p1540
tp1541
Rp1542
(I0
I41
tp1543
tp1544
a(g2
(g6
S'\x01\x00\x00\x00'
p1545
tp1546
Rp1547
(I41
I88
tp1548
tp1549
a(g2
(g6
S'\x06\x00\x00\x00'
p1550
tp1551
Rp1552
(I88
I105
tp1553
tp1554
aa(lp1555
(g2
(g6
S'\x04\x00\x00\x00'
p1556
tp1557
Rp1558
(I0
I41
tp1559
tp1560
a(g2
(g6
S'\x01\x00\x00\x00'
p1561
tp1562
Rp1563
(I41
I88
tp1564
tp1565
a(g2
(g6
S'\x06\x00\x00\x00'
p1566
tp1567
Rp1568
(I88
I105
tp1569
tp1570
aa(lp1571
(g2
(g6
S'\x04\x00\x00\x00'
p1572
tp1573
Rp1574
(I0
I41
tp1575
tp1576
a(g2
(g6
S'\x01\x00\x00\x00'
p1577
tp1578
Rp1579
(I41
I88
tp1580
tp1581
a(g2
(g6
S'\x06\x00\x00\x00'
p1582
tp1583
Rp1584
(I88
I105
tp1585
tp1586
aa(lp1587
(g2
(g6
S'\x04\x00\x00\x00'
p1588
tp1589
Rp1590
(I0
I41
tp1591
tp1592
a(g2
(g6
S'\x01\x00\x00\x00'
p1593
tp1594
Rp1595
(I41
I88
tp1596
tp1597
a(g2
(g6
S'\x06\x00\x00\x00'
p1598
tp1599
Rp1600
(I88
I105
tp1601
tp1602
aa.