(lp0
(lp1
(cnumpy.core.multiarray
scalar
p2
(cnumpy
dtype
p3
(S'i4'
p4
I0
I1
tp5
Rp6
(I3
S'<'
p7
NNNI-1
I-1
I0
tp8
bS'\x01\x00\x00\x00'
p9
tp10
Rp11
(I0
I50
tp12
tp13
a(g2
(g6
S'\x01\x00\x00\x00'
p14
tp15
Rp16
(I50
I110
tp17
tp18
a(g2
(g6
S'\x01\x00\x00\x00'
p19
tp20
Rp21
(I110
I125
tp22
tp23
aa(lp24
(g2
(g6
S'\x01\x00\x00\x00'
p25
tp26
Rp27
(I0
I50
tp28
tp29
a(g2
(g6
S'\x01\x00\x00\x00'
p30
tp31
Rp32
(I50
I107
tp33
tp34
a(g2
(g6
S'\x04\x00\x00\x00'
p35
tp36
Rp37
(I107
I125
tp38
tp39
aa(lp40
(g2
(g6
S'\x01\x00\x00\x00'
p41
tp42
Rp43
(I0
I51
tp44
tp45
a(g2
(g6
S'\x04\x00\x00\x00'
p46
tp47
Rp48
(I51
I83
tp49
tp50
a(g2
(g6
S'\x02\x00\x00\x00'
p51
tp52
Rp53
(I83
I110
tp54
tp55
a(g2
(g6
S'\x05\x00\x00\x00'
p56
tp57
Rp58
(I110
I125
tp59
tp60
aa(lp61
(g2
(g6
S'\x01\x00\x00\x00'
p62
tp63
Rp64
(I0
I51
tp65
tp66
a(g2
(g6
S'\x04\x00\x00\x00'
p67
tp68
Rp69
(I51
I83
tp70
tp71
a(g2
(g6
S'\x02\x00\x00\x00'
p72
tp73
Rp74
(I83
I110
tp75
tp76
a(g2
(g6
S'\x05\x00\x00\x00'
p77
tp78
Rp79
(I110
I125
tp80
tp81
aa(lp82
(g2
(g6
S'\x01\x00\x00\x00'
p83
tp84
Rp85
(I0
I51
tp86
tp87
a(g2
(g6
S'\x04\x00\x00\x00'
p88
tp89
Rp90
(I51
I81
tp91
tp92
a(g2
(g6
S'\x02\x00\x00\x00'
p93
tp94
Rp95
(I81
I111
tp96
tp97
a(g2
(g6
S'\x05\x00\x00\x00'
p98
tp99
Rp100
(I111
I125
tp101
tp102
aa(lp103
(g2
(g6
S'\x01\x00\x00\x00'
p104
tp105
Rp106
(I0
I51
tp107
tp108
a(g2
(g6
S'\x04\x00\x00\x00'
p109
tp110
Rp111
(I51
I86
tp112
tp113
a(g2
(g6
S'\x02\x00\x00\x00'
p114
tp115
Rp116
(I86
I111
tp117
tp118
a(g2
(g6
S'\x05\x00\x00\x00'
p119
tp120
Rp121
(I111
I125
tp122
tp123
aa(lp124
(g2
(g6
S'\x01\x00\x00\x00'
p125
tp126
Rp127
(I0
I51
tp128
tp129
a(g2
(g6
S'\x04\x00\x00\x00'
p130
tp131
Rp132
(I51
I81
tp133
tp134
a(g2
(g6
S'\x02\x00\x00\x00'
p135
tp136
Rp137
(I81
I111
tp138
tp139
a(g2
(g6
S'\x05\x00\x00\x00'
p140
tp141
Rp142
(I111
I125
tp143
tp144
aa(lp145
(g2
(g6
S'\x01\x00\x00\x00'
p146
tp147
Rp148
(I0
I51
tp149
tp150
a(g2
(g6
S'\x04\x00\x00\x00'
p151
tp152
Rp153
(I51
I82
tp154
tp155
a(g2
(g6
S'\x02\x00\x00\x00'
p156
tp157
Rp158
(I82
I111
tp159
tp160
a(g2
(g6
S'\x05\x00\x00\x00'
p161
tp162
Rp163
(I111
I125
tp164
tp165
aa(lp166
(g2
(g6
S'\x01\x00\x00\x00'
p167
tp168
Rp169
(I0
I51
tp170
tp171
a(g2
(g6
S'\x04\x00\x00\x00'
p172
tp173
Rp174
(I51
I89
tp175
tp176
a(g2
(g6
S'\x00\x00\x00\x00'
p177
tp178
Rp179
(I89
I125
tp180
tp181
aa(lp182
(g2
(g6
S'\x01\x00\x00\x00'
p183
tp184
Rp185
(I0
I51
tp186
tp187
a(g2
(g6
S'\x04\x00\x00\x00'
p188
tp189
Rp190
(I51
I90
tp191
tp192
a(g2
(g6
S'\x00\x00\x00\x00'
p193
tp194
Rp195
(I90
I125
tp196
tp197
aa(lp198
(g2
(g6
S'\x01\x00\x00\x00'
p199
tp200
Rp201
(I0
I51
tp202
tp203
a(g2
(g6
S'\x04\x00\x00\x00'
p204
tp205
Rp206
(I51
I84
tp207
tp208
a(g2
(g6
S'\x02\x00\x00\x00'
p209
tp210
Rp211
(I84
I111
tp212
tp213
a(g2
(g6
S'\x05\x00\x00\x00'
p214
tp215
Rp216
(I111
I125
tp217
tp218
aa(lp219
(g2
(g6
S'\x01\x00\x00\x00'
p220
tp221
Rp222
(I0
I51
tp223
tp224
a(g2
(g6
S'\x04\x00\x00\x00'
p225
tp226
Rp227
(I51
I84
tp228
tp229
a(g2
(g6
S'\x02\x00\x00\x00'
p230
tp231
Rp232
(I84
I111
tp233
tp234
a(g2
(g6
S'\x05\x00\x00\x00'
p235
tp236
Rp237
(I111
I125
tp238
tp239
aa(lp240
(g2
(g6
S'\x01\x00\x00\x00'
p241
tp242
Rp243
(I0
I51
tp244
tp245
a(g2
(g6
S'\x04\x00\x00\x00'
p246
tp247
Rp248
(I51
I82
tp249
tp250
a(g2
(g6
S'\x02\x00\x00\x00'
p251
tp252
Rp253
(I82
I111
tp254
tp255
a(g2
(g6
S'\x05\x00\x00\x00'
p256
tp257
Rp258
(I111
I125
tp259
tp260
aa(lp261
(g2
(g6
S'\x01\x00\x00\x00'
p262
tp263
Rp264
(I0
I51
tp265
tp266
a(g2
(g6
S'\x04\x00\x00\x00'
p267
tp268
Rp269
(I51
I81
tp270
tp271
a(g2
(g6
S'\x02\x00\x00\x00'
p272
tp273
Rp274
(I81
I111
tp275
tp276
a(g2
(g6
S'\x05\x00\x00\x00'
p277
tp278
Rp279
(I111
I125
tp280
tp281
aa(lp282
(g2
(g6
S'\x01\x00\x00\x00'
p283
tp284
Rp285
(I0
I51
tp286
tp287
a(g2
(g6
S'\x04\x00\x00\x00'
p288
tp289
Rp290
(I51
I90
tp291
tp292
a(g2
(g6
S'\x00\x00\x00\x00'
p293
tp294
Rp295
(I90
I125
tp296
tp297
aa(lp298
(g2
(g6
S'\x01\x00\x00\x00'
p299
tp300
Rp301
(I0
I51
tp302
tp303
a(g2
(g6
S'\x04\x00\x00\x00'
p304
tp305
Rp306
(I51
I81
tp307
tp308
a(g2
(g6
S'\x02\x00\x00\x00'
p309
tp310
Rp311
(I81
I111
tp312
tp313
a(g2
(g6
S'\x05\x00\x00\x00'
p314
tp315
Rp316
(I111
I125
tp317
tp318
aa(lp319
(g2
(g6
S'\x01\x00\x00\x00'
p320
tp321
Rp322
(I0
I51
tp323
tp324
a(g2
(g6
S'\x06\x00\x00\x00'
p325
tp326
Rp327
(I51
I75
tp328
tp329
a(g2
(g6
S'\x02\x00\x00\x00'
p330
tp331
Rp332
(I75
I111
tp333
tp334
a(g2
(g6
S'\x05\x00\x00\x00'
p335
tp336
Rp337
(I111
I125
tp338
tp339
aa(lp340
(g2
(g6
S'\x01\x00\x00\x00'
p341
tp342
Rp343
(I0
I52
tp344
tp345
a(g2
(g6
S'\x06\x00\x00\x00'
p346
tp347
Rp348
(I52
I75
tp349
tp350
a(g2
(g6
S'\x02\x00\x00\x00'
p351
tp352
Rp353
(I75
I111
tp354
tp355
a(g2
(g6
S'\x05\x00\x00\x00'
p356
tp357
Rp358
(I111
I125
tp359
tp360
aa(lp361
(g2
(g6
S'\x01\x00\x00\x00'
p362
tp363
Rp364
(I0
I51
tp365
tp366
a(g2
(g6
S'\x06\x00\x00\x00'
p367
tp368
Rp369
(I51
I75
tp370
tp371
a(g2
(g6
S'\x02\x00\x00\x00'
p372
tp373
Rp374
(I75
I111
tp375
tp376
a(g2
(g6
S'\x05\x00\x00\x00'
p377
tp378
Rp379
(I111
I125
tp380
tp381
aa(lp382
(g2
(g6
S'\x01\x00\x00\x00'
p383
tp384
Rp385
(I0
I51
tp386
tp387
a(g2
(g6
S'\x06\x00\x00\x00'
p388
tp389
Rp390
(I51
I75
tp391
tp392
a(g2
(g6
S'\x02\x00\x00\x00'
p393
tp394
Rp395
(I75
I111
tp396
tp397
a(g2
(g6
S'\x05\x00\x00\x00'
p398
tp399
Rp400
(I111
I125
tp401
tp402
aa(lp403
(g2
(g6
S'\x01\x00\x00\x00'
p404
tp405
Rp406
(I0
I51
tp407
tp408
a(g2
(g6
S'\x06\x00\x00\x00'
p409
tp410
Rp411
(I51
I75
tp412
tp413
a(g2
(g6
S'\x02\x00\x00\x00'
p414
tp415
Rp416
(I75
I111
tp417
tp418
a(g2
(g6
S'\x05\x00\x00\x00'
p419
tp420
Rp421
(I111
I125
tp422
tp423
aa(lp424
(g2
(g6
S'\x01\x00\x00\x00'
p425
tp426
Rp427
(I0
I52
tp428
tp429
a(g2
(g6
S'\x06\x00\x00\x00'
p430
tp431
Rp432
(I52
I75
tp433
tp434
a(g2
(g6
S'\x02\x00\x00\x00'
p435
tp436
Rp437
(I75
I111
tp438
tp439
a(g2
(g6
S'\x05\x00\x00\x00'
p440
tp441
Rp442
(I111
I125
tp443
tp444
aa(lp445
(g2
(g6
S'\x01\x00\x00\x00'
p446
tp447
Rp448
(I0
I51
tp449
tp450
a(g2
(g6
S'\x06\x00\x00\x00'
p451
tp452
Rp453
(I51
I75
tp454
tp455
a(g2
(g6
S'\x02\x00\x00\x00'
p456
tp457
Rp458
(I75
I111
tp459
tp460
a(g2
(g6
S'\x05\x00\x00\x00'
p461
tp462
Rp463
(I111
I125
tp464
tp465
aa(lp466
(g2
(g6
S'\x01\x00\x00\x00'
p467
tp468
Rp469
(I0
I51
tp470
tp471
a(g2
(g6
S'\x06\x00\x00\x00'
p472
tp473
Rp474
(I51
I75
tp475
tp476
a(g2
(g6
S'\x02\x00\x00\x00'
p477
tp478
Rp479
(I75
I112
tp480
tp481
a(g2
(g6
S'\x05\x00\x00\x00'
p482
tp483
Rp484
(I112
I125
tp485
tp486
aa(lp487
(g2
(g6
S'\x01\x00\x00\x00'
p488
tp489
Rp490
(I0
I51
tp491
tp492
a(g2
(g6
S'\x06\x00\x00\x00'
p493
tp494
Rp495
(I51
I75
tp496
tp497
a(g2
(g6
S'\x02\x00\x00\x00'
p498
tp499
Rp500
(I75
I111
tp501
tp502
a(g2
(g6
S'\x05\x00\x00\x00'
p503
tp504
Rp505
(I111
I125
tp506
tp507
aa(lp508
(g2
(g6
S'\x01\x00\x00\x00'
p509
tp510
Rp511
(I0
I51
tp512
tp513
a(g2
(g6
S'\x06\x00\x00\x00'
p514
tp515
Rp516
(I51
I75
tp517
tp518
a(g2
(g6
S'\x02\x00\x00\x00'
p519
tp520
Rp521
(I75
I111
tp522
tp523
a(g2
(g6
S'\x05\x00\x00\x00'
p524
tp525
Rp526
(I111
I125
tp527
tp528
aa(lp529
(g2
(g6
S'\x01\x00\x00\x00'
p530
tp531
Rp532
(I0
I51
tp533
tp534
a(g2
(g6
S'\x06\x00\x00\x00'
p535
tp536
Rp537
(I51
I75
tp538
tp539
a(g2
(g6
S'\x02\x00\x00\x00'
p540
tp541
Rp542
(I75
I111
tp543
tp544
a(g2
(g6
S'\x05\x00\x00\x00'
p545
tp546
Rp547
(I111
I125
tp548
tp549
aa(lp550
(g2
(g6
S'\x01\x00\x00\x00'
p551
tp552
Rp553
(I0
I51
tp554
tp555
a(g2
(g6
S'\x06\x00\x00\x00'
p556
tp557
Rp558
(I51
I75
tp559
tp560
a(g2
(g6
S'\x02\x00\x00\x00'
p561
tp562
Rp563
(I75
I111
tp564
tp565
a(g2
(g6
S'\x05\x00\x00\x00'
p566
tp567
Rp568
(I111
I125
tp569
tp570
aa(lp571
(g2
(g6
S'\x01\x00\x00\x00'
p572
tp573
Rp574
(I0
I51
tp575
tp576
a(g2
(g6
S'\x06\x00\x00\x00'
p577
tp578
Rp579
(I51
I75
tp580
tp581
a(g2
(g6
S'\x02\x00\x00\x00'
p582
tp583
Rp584
(I75
I111
tp585
tp586
a(g2
(g6
S'\x05\x00\x00\x00'
p587
tp588
Rp589
(I111
I125
tp590
tp591
aa(lp592
(g2
(g6
S'\x01\x00\x00\x00'
p593
tp594
Rp595
(I0
I51
tp596
tp597
a(g2
(g6
S'\x06\x00\x00\x00'
p598
tp599
Rp600
(I51
I75
tp601
tp602
a(g2
(g6
S'\x02\x00\x00\x00'
p603
tp604
Rp605
(I75
I111
tp606
tp607
a(g2
(g6
S'\x05\x00\x00\x00'
p608
tp609
Rp610
(I111
I125
tp611
tp612
aa(lp613
(g2
(g6
S'\x01\x00\x00\x00'
p614
tp615
Rp616
(I0
I51
tp617
tp618
a(g2
(g6
S'\x06\x00\x00\x00'
p619
tp620
Rp621
(I51
I75
tp622
tp623
a(g2
(g6
S'\x02\x00\x00\x00'
p624
tp625
Rp626
(I75
I111
tp627
tp628
a(g2
(g6
S'\x05\x00\x00\x00'
p629
tp630
Rp631
(I111
I125
tp632
tp633
aa(lp634
(g2
(g6
S'\x01\x00\x00\x00'
p635
tp636
Rp637
(I0
I51
tp638
tp639
a(g2
(g6
S'\x06\x00\x00\x00'
p640
tp641
Rp642
(I51
I75
tp643
tp644
a(g2
(g6
S'\x02\x00\x00\x00'
p645
tp646
Rp647
(I75
I111
tp648
tp649
a(g2
(g6
S'\x05\x00\x00\x00'
p650
tp651
Rp652
(I111
I125
tp653
tp654
aa(lp655
(g2
(g6
S'\x01\x00\x00\x00'
p656
tp657
Rp658
(I0
I51
tp659
tp660
a(g2
(g6
S'\x06\x00\x00\x00'
p661
tp662
Rp663
(I51
I75
tp664
tp665
a(g2
(g6
S'\x02\x00\x00\x00'
p666
tp667
Rp668
(I75
I111
tp669
tp670
a(g2
(g6
S'\x05\x00\x00\x00'
p671
tp672
Rp673
(I111
I125
tp674
tp675
aa(lp676
(g2
(g6
S'\x01\x00\x00\x00'
p677
tp678
Rp679
(I0
I51
tp680
tp681
a(g2
(g6
S'\x06\x00\x00\x00'
p682
tp683
Rp684
(I51
I75
tp685
tp686
a(g2
(g6
S'\x02\x00\x00\x00'
p687
tp688
Rp689
(I75
I111
tp690
tp691
a(g2
(g6
S'\x05\x00\x00\x00'
p692
tp693
Rp694
(I111
I125
tp695
tp696
aa(lp697
(g2
(g6
S'\x01\x00\x00\x00'
p698
tp699
Rp700
(I0
I51
tp701
tp702
a(g2
(g6
S'\x06\x00\x00\x00'
p703
tp704
Rp705
(I51
I75
tp706
tp707
a(g2
(g6
S'\x02\x00\x00\x00'
p708
tp709
Rp710
(I75
I111
tp711
tp712
a(g2
(g6
S'\x05\x00\x00\x00'
p713
tp714
Rp715
(I111
I125
tp716
tp717
aa(lp718
(g2
(g6
S'\x01\x00\x00\x00'
p719
tp720
Rp721
(I0
I51
tp722
tp723
a(g2
(g6
S'\x06\x00\x00\x00'
p724
tp725
Rp726
(I51
I75
tp727
tp728
a(g2
(g6
S'\x02\x00\x00\x00'
p729
tp730
Rp731
(I75
I111
tp732
tp733
a(g2
(g6
S'\x05\x00\x00\x00'
p734
tp735
Rp736
(I111
I125
tp737
tp738
aa(lp739
(g2
(g6
S'\x01\x00\x00\x00'
p740
tp741
Rp742
(I0
I51
tp743
tp744
a(g2
(g6
S'\x06\x00\x00\x00'
p745
tp746
Rp747
(I51
I75
tp748
tp749
a(g2
(g6
S'\x02\x00\x00\x00'
p750
tp751
Rp752
(I75
I111
tp753
tp754
a(g2
(g6
S'\x05\x00\x00\x00'
p755
tp756
Rp757
(I111
I125
tp758
tp759
aa(lp760
(g2
(g6
S'\x01\x00\x00\x00'
p761
tp762
Rp763
(I0
I52
tp764
tp765
a(g2
(g6
S'\x06\x00\x00\x00'
p766
tp767
Rp768
(I52
I75
tp769
tp770
a(g2
(g6
S'\x02\x00\x00\x00'
p771
tp772
Rp773
(I75
I111
tp774
tp775
a(g2
(g6
S'\x05\x00\x00\x00'
p776
tp777
Rp778
(I111
I125
tp779
tp780
aa(lp781
(g2
(g6
S'\x01\x00\x00\x00'
p782
tp783
Rp784
(I0
I51
tp785
tp786
a(g2
(g6
S'\x06\x00\x00\x00'
p787
tp788
Rp789
(I51
I75
tp790
tp791
a(g2
(g6
S'\x02\x00\x00\x00'
p792
tp793
Rp794
(I75
I111
tp795
tp796
a(g2
(g6
S'\x05\x00\x00\x00'
p797
tp798
Rp799
(I111
I125
tp800
tp801
aa(lp802
(g2
(g6
S'\x01\x00\x00\x00'
p803
tp804
Rp805
(I0
I51
tp806
tp807
a(g2
(g6
S'\x06\x00\x00\x00'
p808
tp809
Rp810
(I51
I75
tp811
tp812
a(g2
(g6
S'\x02\x00\x00\x00'
p813
tp814
Rp815
(I75
I111
tp816
tp817
a(g2
(g6
S'\x05\x00\x00\x00'
p818
tp819
Rp820
(I111
I125
tp821
tp822
aa(lp823
(g2
(g6
S'\x01\x00\x00\x00'
p824
tp825
Rp826
(I0
I52
tp827
tp828
a(g2
(g6
S'\x06\x00\x00\x00'
p829
tp830
Rp831
(I52
I75
tp832
tp833
a(g2
(g6
S'\x02\x00\x00\x00'
p834
tp835
Rp836
(I75
I111
tp837
tp838
a(g2
(g6
S'\x05\x00\x00\x00'
p839
tp840
Rp841
(I111
I125
tp842
tp843
aa(lp844
(g2
(g6
S'\x01\x00\x00\x00'
p845
tp846
Rp847
(I0
I51
tp848
tp849
a(g2
(g6
S'\x06\x00\x00\x00'
p850
tp851
Rp852
(I51
I75
tp853
tp854
a(g2
(g6
S'\x02\x00\x00\x00'
p855
tp856
Rp857
(I75
I111
tp858
tp859
a(g2
(g6
S'\x05\x00\x00\x00'
p860
tp861
Rp862
(I111
I125
tp863
tp864
aa(lp865
(g2
(g6
S'\x01\x00\x00\x00'
p866
tp867
Rp868
(I0
I51
tp869
tp870
a(g2
(g6
S'\x06\x00\x00\x00'
p871
tp872
Rp873
(I51
I75
tp874
tp875
a(g2
(g6
S'\x02\x00\x00\x00'
p876
tp877
Rp878
(I75
I111
tp879
tp880
a(g2
(g6
S'\x05\x00\x00\x00'
p881
tp882
Rp883
(I111
I125
tp884
tp885
aa(lp886
(g2
(g6
S'\x01\x00\x00\x00'
p887
tp888
Rp889
(I0
I51
tp890
tp891
a(g2
(g6
S'\x06\x00\x00\x00'
p892
tp893
Rp894
(I51
I75
tp895
tp896
a(g2
(g6
S'\x02\x00\x00\x00'
p897
tp898
Rp899
(I75
I111
tp900
tp901
a(g2
(g6
S'\x05\x00\x00\x00'
p902
tp903
Rp904
(I111
I125
tp905
tp906
aa(lp907
(g2
(g6
S'\x01\x00\x00\x00'
p908
tp909
Rp910
(I0
I52
tp911
tp912
a(g2
(g6
S'\x06\x00\x00\x00'
p913
tp914
Rp915
(I52
I75
tp916
tp917
a(g2
(g6
S'\x02\x00\x00\x00'
p918
tp919
Rp920
(I75
I111
tp921
tp922
a(g2
(g6
S'\x05\x00\x00\x00'
p923
tp924
Rp925
(I111
I125
tp926
tp927
aa(lp928
(g2
(g6
S'\x01\x00\x00\x00'
p929
tp930
Rp931
(I0
I52
tp932
tp933
a(g2
(g6
S'\x06\x00\x00\x00'
p934
tp935
Rp936
(I52
I75
tp937
tp938
a(g2
(g6
S'\x02\x00\x00\x00'
p939
tp940
Rp941
(I75
I111
tp942
tp943
a(g2
(g6
S'\x05\x00\x00\x00'
p944
tp945
Rp946
(I111
I125
tp947
tp948
aa(lp949
(g2
(g6
S'\x01\x00\x00\x00'
p950
tp951
Rp952
(I0
I52
tp953
tp954
a(g2
(g6
S'\x06\x00\x00\x00'
p955
tp956
Rp957
(I52
I75
tp958
tp959
a(g2
(g6
S'\x02\x00\x00\x00'
p960
tp961
Rp962
(I75
I111
tp963
tp964
a(g2
(g6
S'\x05\x00\x00\x00'
p965
tp966
Rp967
(I111
I125
tp968
tp969
aa(lp970
(g2
(g6
S'\x01\x00\x00\x00'
p971
tp972
Rp973
(I0
I51
tp974
tp975
a(g2
(g6
S'\x06\x00\x00\x00'
p976
tp977
Rp978
(I51
I75
tp979
tp980
a(g2
(g6
S'\x02\x00\x00\x00'
p981
tp982
Rp983
(I75
I112
tp984
tp985
a(g2
(g6
S'\x05\x00\x00\x00'
p986
tp987
Rp988
(I112
I125
tp989
tp990
aa(lp991
(g2
(g6
S'\x01\x00\x00\x00'
p992
tp993
Rp994
(I0
I51
tp995
tp996
a(g2
(g6
S'\x06\x00\x00\x00'
p997
tp998
Rp999
(I51
I75
tp1000
tp1001
a(g2
(g6
S'\x02\x00\x00\x00'
p1002
tp1003
Rp1004
(I75
I111
tp1005
tp1006
a(g2
(g6
S'\x05\x00\x00\x00'
p1007
tp1008
Rp1009
(I111
I125
tp1010
tp1011
aa(lp1012
(g2
(g6
S'\x01\x00\x00\x00'
p1013
tp1014
Rp1015
(I0
I51
tp1016
tp1017
a(g2
(g6
S'\x06\x00\x00\x00'
p1018
tp1019
Rp1020
(I51
I75
tp1021
tp1022
a(g2
(g6
S'\x02\x00\x00\x00'
p1023
tp1024
Rp1025
(I75
I111
tp1026
tp1027
a(g2
(g6
S'\x05\x00\x00\x00'
p1028
tp1029
Rp1030
(I111
I125
tp1031
tp1032
aa(lp1033
(g2
(g6
S'\x01\x00\x00\x00'
p1034
tp1035
Rp1036
(I0
I51
tp1037
tp1038
a(g2
(g6
S'\x06\x00\x00\x00'
p1039
tp1040
Rp1041
(I51
I75
tp1042
tp1043
a(g2
(g6
S'\x02\x00\x00\x00'
p1044
tp1045
Rp1046
(I75
I111
tp1047
tp1048
a(g2
(g6
S'\x05\x00\x00\x00'
p1049
tp1050
Rp1051
(I111
I125
tp1052
tp1053
aa(lp1054
(g2
(g6
S'\x01\x00\x00\x00'
p1055
tp1056
Rp1057
(I0
I52
tp1058
tp1059
a(g2
(g6
S'\x06\x00\x00\x00'
p1060
tp1061
Rp1062
(I52
I75
tp1063
tp1064
a(g2
(g6
S'\x02\x00\x00\x00'
p1065
tp1066
Rp1067
(I75
I111
tp1068
tp1069
a(g2
(g6
S'\x05\x00\x00\x00'
p1070
tp1071
Rp1072
(I111
I125
tp1073
tp1074
aa(lp1075
(g2
(g6
S'\x01\x00\x00\x00'
p1076
tp1077
Rp1078
(I0
I51
tp1079
tp1080
a(g2
(g6
S'\x06\x00\x00\x00'
p1081
tp1082
Rp1083
(I51
I75
tp1084
tp1085
a(g2
(g6
S'\x02\x00\x00\x00'
p1086
tp1087
Rp1088
(I75
I111
tp1089
tp1090
a(g2
(g6
S'\x05\x00\x00\x00'
p1091
tp1092
Rp1093
(I111
I125
tp1094
tp1095
aa(lp1096
(g2
(g6
S'\x01\x00\x00\x00'
p1097
tp1098
Rp1099
(I0
I51
tp1100
tp1101
a(g2
(g6
S'\x06\x00\x00\x00'
p1102
tp1103
Rp1104
(I51
I75
tp1105
tp1106
a(g2
(g6
S'\x02\x00\x00\x00'
p1107
tp1108
Rp1109
(I75
I111
tp1110
tp1111
a(g2
(g6
S'\x05\x00\x00\x00'
p1112
tp1113
Rp1114
(I111
I125
tp1115
tp1116
aa(lp1117
(g2
(g6
S'\x01\x00\x00\x00'
p1118
tp1119
Rp1120
(I0
I51
tp1121
tp1122
a(g2
(g6
S'\x06\x00\x00\x00'
p1123
tp1124
Rp1125
(I51
I75
tp1126
tp1127
a(g2
(g6
S'\x02\x00\x00\x00'
p1128
tp1129
Rp1130
(I75
I111
tp1131
tp1132
a(g2
(g6
S'\x05\x00\x00\x00'
p1133
tp1134
Rp1135
(I111
I125
tp1136
tp1137
aa(lp1138
(g2
(g6
S'\x01\x00\x00\x00'
p1139
tp1140
Rp1141
(I0
I51
tp1142
tp1143
a(g2
(g6
S'\x06\x00\x00\x00'
p1144
tp1145
Rp1146
(I51
I75
tp1147
tp1148
a(g2
(g6
S'\x02\x00\x00\x00'
p1149
tp1150
Rp1151
(I75
I111
tp1152
tp1153
a(g2
(g6
S'\x05\x00\x00\x00'
p1154
tp1155
Rp1156
(I111
I125
tp1157
tp1158
aa(lp1159
(g2
(g6
S'\x01\x00\x00\x00'
p1160
tp1161
Rp1162
(I0
I51
tp1163
tp1164
a(g2
(g6
S'\x06\x00\x00\x00'
p1165
tp1166
Rp1167
(I51
I75
tp1168
tp1169
a(g2
(g6
S'\x02\x00\x00\x00'
p1170
tp1171
Rp1172
(I75
I111
tp1173
tp1174
a(g2
(g6
S'\x05\x00\x00\x00'
p1175
tp1176
Rp1177
(I111
I125
tp1178
tp1179
aa(lp1180
(g2
(g6
S'\x01\x00\x00\x00'
p1181
tp1182
Rp1183
(I0
I51
tp1184
tp1185
a(g2
(g6
S'\x06\x00\x00\x00'
p1186
tp1187
Rp1188
(I51
I75
tp1189
tp1190
a(g2
(g6
S'\x02\x00\x00\x00'
p1191
tp1192
Rp1193
(I75
I112
tp1194
tp1195
a(g2
(g6
S'\x05\x00\x00\x00'
p1196
tp1197
Rp1198
(I112
I125
tp1199
tp1200
aa(lp1201
(g2
(g6
S'\x01\x00\x00\x00'
p1202
tp1203
Rp1204
(I0
I51
tp1205
tp1206
a(g2
(g6
S'\x06\x00\x00\x00'
p1207
tp1208
Rp1209
(I51
I75
tp1210
tp1211
a(g2
(g6
S'\x02\x00\x00\x00'
p1212
tp1213
Rp1214
(I75
I111
tp1215
tp1216
a(g2
(g6
S'\x05\x00\x00\x00'
p1217
tp1218
Rp1219
(I111
I125
tp1220
tp1221
aa(lp1222
(g2
(g6
S'\x01\x00\x00\x00'
p1223
tp1224
Rp1225
(I0
I51
tp1226
tp1227
a(g2
(g6
S'\x06\x00\x00\x00'
p1228
tp1229
Rp1230
(I51
I75
tp1231
tp1232
a(g2
(g6
S'\x02\x00\x00\x00'
p1233
tp1234
Rp1235
(I75
I111
tp1236
tp1237
a(g2
(g6
S'\x05\x00\x00\x00'
p1238
tp1239
Rp1240
(I111
I125
tp1241
tp1242
aa(lp1243
(g2
(g6
S'\x01\x00\x00\x00'
p1244
tp1245
Rp1246
(I0
I51
tp1247
tp1248
a(g2
(g6
S'\x06\x00\x00\x00'
p1249
tp1250
Rp1251
(I51
I75
tp1252
tp1253
a(g2
(g6
S'\x02\x00\x00\x00'
p1254
tp1255
Rp1256
(I75
I111
tp1257
tp1258
a(g2
(g6
S'\x05\x00\x00\x00'
p1259
tp1260
Rp1261
(I111
I125
tp1262
tp1263
aa(lp1264
(g2
(g6
S'\x01\x00\x00\x00'
p1265
tp1266
Rp1267
(I0
I51
tp1268
tp1269
a(g2
(g6
S'\x06\x00\x00\x00'
p1270
tp1271
Rp1272
(I51
I75
tp1273
tp1274
a(g2
(g6
S'\x02\x00\x00\x00'
p1275
tp1276
Rp1277
(I75
I112
tp1278
tp1279
a(g2
(g6
S'\x05\x00\x00\x00'
p1280
tp1281
Rp1282
(I112
I125
tp1283
tp1284
aa(lp1285
(g2
(g6
S'\x01\x00\x00\x00'
p1286
tp1287
Rp1288
(I0
I51
tp1289
tp1290
a(g2
(g6
S'\x06\x00\x00\x00'
p1291
tp1292
Rp1293
(I51
I75
tp1294
tp1295
a(g2
(g6
S'\x02\x00\x00\x00'
p1296
tp1297
Rp1298
(I75
I111
tp1299
tp1300
a(g2
(g6
S'\x05\x00\x00\x00'
p1301
tp1302
Rp1303
(I111
I125
tp1304
tp1305
aa(lp1306
(g2
(g6
S'\x01\x00\x00\x00'
p1307
tp1308
Rp1309
(I0
I51
tp1310
tp1311
a(g2
(g6
S'\x06\x00\x00\x00'
p1312
tp1313
Rp1314
(I51
I75
tp1315
tp1316
a(g2
(g6
S'\x02\x00\x00\x00'
p1317
tp1318
Rp1319
(I75
I111
tp1320
tp1321
a(g2
(g6
S'\x05\x00\x00\x00'
p1322
tp1323
Rp1324
(I111
I125
tp1325
tp1326
aa(lp1327
(g2
(g6
S'\x01\x00\x00\x00'
p1328
tp1329
Rp1330
(I0
I51
tp1331
tp1332
a(g2
(g6
S'\x06\x00\x00\x00'
p1333
tp1334
Rp1335
(I51
I75
tp1336
tp1337
a(g2
(g6
S'\x02\x00\x00\x00'
p1338
tp1339
Rp1340
(I75
I111
tp1341
tp1342
a(g2
(g6
S'\x05\x00\x00\x00'
p1343
tp1344
Rp1345
(I111
I125
tp1346
tp1347
aa(lp1348
(g2
(g6
S'\x01\x00\x00\x00'
p1349
tp1350
Rp1351
(I0
I51
tp1352
tp1353
a(g2
(g6
S'\x06\x00\x00\x00'
p1354
tp1355
Rp1356
(I51
I75
tp1357
tp1358
a(g2
(g6
S'\x02\x00\x00\x00'
p1359
tp1360
Rp1361
(I75
I111
tp1362
tp1363
a(g2
(g6
S'\x05\x00\x00\x00'
p1364
tp1365
Rp1366
(I111
I125
tp1367
tp1368
aa(lp1369
(g2
(g6
S'\x01\x00\x00\x00'
p1370
tp1371
Rp1372
(I0
I51
tp1373
tp1374
a(g2
(g6
S'\x06\x00\x00\x00'
p1375
tp1376
Rp1377
(I51
I75
tp1378
tp1379
a(g2
(g6
S'\x02\x00\x00\x00'
p1380
tp1381
Rp1382
(I75
I112
tp1383
tp1384
a(g2
(g6
S'\x05\x00\x00\x00'
p1385
tp1386
Rp1387
(I112
I125
tp1388
tp1389
aa(lp1390
(g2
(g6
S'\x01\x00\x00\x00'
p1391
tp1392
Rp1393
(I0
I52
tp1394
tp1395
a(g2
(g6
S'\x06\x00\x00\x00'
p1396
tp1397
Rp1398
(I52
I75
tp1399
tp1400
a(g2
(g6
S'\x02\x00\x00\x00'
p1401
tp1402
Rp1403
(I75
I111
tp1404
tp1405
a(g2
(g6
S'\x05\x00\x00\x00'
p1406
tp1407
Rp1408
(I111
I125
tp1409
tp1410
aa(lp1411
(g2
(g6
S'\x01\x00\x00\x00'
p1412
tp1413
Rp1414
(I0
I51
tp1415
tp1416
a(g2
(g6
S'\x06\x00\x00\x00'
p1417
tp1418
Rp1419
(I51
I75
tp1420
tp1421
a(g2
(g6
S'\x02\x00\x00\x00'
p1422
tp1423
Rp1424
(I75
I111
tp1425
tp1426
a(g2
(g6
S'\x05\x00\x00\x00'
p1427
tp1428
Rp1429
(I111
I125
tp1430
tp1431
aa(lp1432
(g2
(g6
S'\x01\x00\x00\x00'
p1433
tp1434
Rp1435
(I0
I51
tp1436
tp1437
a(g2
(g6
S'\x06\x00\x00\x00'
p1438
tp1439
Rp1440
(I51
I75
tp1441
tp1442
a(g2
(g6
S'\x02\x00\x00\x00'
p1443
tp1444
Rp1445
(I75
I111
tp1446
tp1447
a(g2
(g6
S'\x05\x00\x00\x00'
p1448
tp1449
Rp1450
(I111
I125
tp1451
tp1452
aa(lp1453
(g2
(g6
S'\x01\x00\x00\x00'
p1454
tp1455
Rp1456
(I0
I51
tp1457
tp1458
a(g2
(g6
S'\x06\x00\x00\x00'
p1459
tp1460
Rp1461
(I51
I75
tp1462
tp1463
a(g2
(g6
S'\x02\x00\x00\x00'
p1464
tp1465
Rp1466
(I75
I111
tp1467
tp1468
a(g2
(g6
S'\x05\x00\x00\x00'
p1469
tp1470
Rp1471
(I111
I125
tp1472
tp1473
aa(lp1474
(g2
(g6
S'\x01\x00\x00\x00'
p1475
tp1476
Rp1477
(I0
I51
tp1478
tp1479
a(g2
(g6
S'\x06\x00\x00\x00'
p1480
tp1481
Rp1482
(I51
I75
tp1483
tp1484
a(g2
(g6
S'\x02\x00\x00\x00'
p1485
tp1486
Rp1487
(I75
I111
tp1488
tp1489
a(g2
(g6
S'\x05\x00\x00\x00'
p1490
tp1491
Rp1492
(I111
I125
tp1493
tp1494
aa(lp1495
(g2
(g6
S'\x01\x00\x00\x00'
p1496
tp1497
Rp1498
(I0
I51
tp1499
tp1500
a(g2
(g6
S'\x06\x00\x00\x00'
p1501
tp1502
Rp1503
(I51
I75
tp1504
tp1505
a(g2
(g6
S'\x02\x00\x00\x00'
p1506
tp1507
Rp1508
(I75
I111
tp1509
tp1510
a(g2
(g6
S'\x05\x00\x00\x00'
p1511
tp1512
Rp1513
(I111
I125
tp1514
tp1515
aa(lp1516
(g2
(g6
S'\x01\x00\x00\x00'
p1517
tp1518
Rp1519
(I0
I51
tp1520
tp1521
a(g2
(g6
S'\x06\x00\x00\x00'
p1522
tp1523
Rp1524
(I51
I75
tp1525
tp1526
a(g2
(g6
S'\x02\x00\x00\x00'
p1527
tp1528
Rp1529
(I75
I111
tp1530
tp1531
a(g2
(g6
S'\x05\x00\x00\x00'
p1532
tp1533
Rp1534
(I111
I125
tp1535
tp1536
aa(lp1537
(g2
(g6
S'\x01\x00\x00\x00'
p1538
tp1539
Rp1540
(I0
I51
tp1541
tp1542
a(g2
(g6
S'\x06\x00\x00\x00'
p1543
tp1544
Rp1545
(I51
I75
tp1546
tp1547
a(g2
(g6
S'\x02\x00\x00\x00'
p1548
tp1549
Rp1550
(I75
I111
tp1551
tp1552
a(g2
(g6
S'\x05\x00\x00\x00'
p1553
tp1554
Rp1555
(I111
I125
tp1556
tp1557
aa(lp1558
(g2
(g6
S'\x01\x00\x00\x00'
p1559
tp1560
Rp1561
(I0
I51
tp1562
tp1563
a(g2
(g6
S'\x06\x00\x00\x00'
p1564
tp1565
Rp1566
(I51
I75
tp1567
tp1568
a(g2
(g6
S'\x02\x00\x00\x00'
p1569
tp1570
Rp1571
(I75
I111
tp1572
tp1573
a(g2
(g6
S'\x05\x00\x00\x00'
p1574
tp1575
Rp1576
(I111
I125
tp1577
tp1578
aa(lp1579
(g2
(g6
S'\x01\x00\x00\x00'
p1580
tp1581
Rp1582
(I0
I51
tp1583
tp1584
a(g2
(g6
S'\x06\x00\x00\x00'
p1585
tp1586
Rp1587
(I51
I75
tp1588
tp1589
a(g2
(g6
S'\x02\x00\x00\x00'
p1590
tp1591
Rp1592
(I75
I111
tp1593
tp1594
a(g2
(g6
S'\x05\x00\x00\x00'
p1595
tp1596
Rp1597
(I111
I125
tp1598
tp1599
aa(lp1600
(g2
(g6
S'\x01\x00\x00\x00'
p1601
tp1602
Rp1603
(I0
I51
tp1604
tp1605
a(g2
(g6
S'\x06\x00\x00\x00'
p1606
tp1607
Rp1608
(I51
I75
tp1609
tp1610
a(g2
(g6
S'\x02\x00\x00\x00'
p1611
tp1612
Rp1613
(I75
I111
tp1614
tp1615
a(g2
(g6
S'\x05\x00\x00\x00'
p1616
tp1617
Rp1618
(I111
I125
tp1619
tp1620
aa(lp1621
(g2
(g6
S'\x01\x00\x00\x00'
p1622
tp1623
Rp1624
(I0
I51
tp1625
tp1626
a(g2
(g6
S'\x06\x00\x00\x00'
p1627
tp1628
Rp1629
(I51
I75
tp1630
tp1631
a(g2
(g6
S'\x02\x00\x00\x00'
p1632
tp1633
Rp1634
(I75
I111
tp1635
tp1636
a(g2
(g6
S'\x05\x00\x00\x00'
p1637
tp1638
Rp1639
(I111
I125
tp1640
tp1641
aa(lp1642
(g2
(g6
S'\x01\x00\x00\x00'
p1643
tp1644
Rp1645
(I0
I51
tp1646
tp1647
a(g2
(g6
S'\x06\x00\x00\x00'
p1648
tp1649
Rp1650
(I51
I75
tp1651
tp1652
a(g2
(g6
S'\x02\x00\x00\x00'
p1653
tp1654
Rp1655
(I75
I111
tp1656
tp1657
a(g2
(g6
S'\x05\x00\x00\x00'
p1658
tp1659
Rp1660
(I111
I125
tp1661
tp1662
aa(lp1663
(g2
(g6
S'\x01\x00\x00\x00'
p1664
tp1665
Rp1666
(I0
I51
tp1667
tp1668
a(g2
(g6
S'\x06\x00\x00\x00'
p1669
tp1670
Rp1671
(I51
I75
tp1672
tp1673
a(g2
(g6
S'\x02\x00\x00\x00'
p1674
tp1675
Rp1676
(I75
I111
tp1677
tp1678
a(g2
(g6
S'\x05\x00\x00\x00'
p1679
tp1680
Rp1681
(I111
I125
tp1682
tp1683
aa(lp1684
(g2
(g6
S'\x01\x00\x00\x00'
p1685
tp1686
Rp1687
(I0
I51
tp1688
tp1689
a(g2
(g6
S'\x06\x00\x00\x00'
p1690
tp1691
Rp1692
(I51
I75
tp1693
tp1694
a(g2
(g6
S'\x02\x00\x00\x00'
p1695
tp1696
Rp1697
(I75
I111
tp1698
tp1699
a(g2
(g6
S'\x05\x00\x00\x00'
p1700
tp1701
Rp1702
(I111
I125
tp1703
tp1704
aa(lp1705
(g2
(g6
S'\x01\x00\x00\x00'
p1706
tp1707
Rp1708
(I0
I51
tp1709
tp1710
a(g2
(g6
S'\x06\x00\x00\x00'
p1711
tp1712
Rp1713
(I51
I75
tp1714
tp1715
a(g2
(g6
S'\x02\x00\x00\x00'
p1716
tp1717
Rp1718
(I75
I112
tp1719
tp1720
a(g2
(g6
S'\x05\x00\x00\x00'
p1721
tp1722
Rp1723
(I112
I125
tp1724
tp1725
aa(lp1726
(g2
(g6
S'\x01\x00\x00\x00'
p1727
tp1728
Rp1729
(I0
I51
tp1730
tp1731
a(g2
(g6
S'\x06\x00\x00\x00'
p1732
tp1733
Rp1734
(I51
I75
tp1735
tp1736
a(g2
(g6
S'\x02\x00\x00\x00'
p1737
tp1738
Rp1739
(I75
I111
tp1740
tp1741
a(g2
(g6
S'\x05\x00\x00\x00'
p1742
tp1743
Rp1744
(I111
I125
tp1745
tp1746
aa(lp1747
(g2
(g6
S'\x01\x00\x00\x00'
p1748
tp1749
Rp1750
(I0
I52
tp1751
tp1752
a(g2
(g6
S'\x06\x00\x00\x00'
p1753
tp1754
Rp1755
(I52
I75
tp1756
tp1757
a(g2
(g6
S'\x02\x00\x00\x00'
p1758
tp1759
Rp1760
(I75
I111
tp1761
tp1762
a(g2
(g6
S'\x05\x00\x00\x00'
p1763
tp1764
Rp1765
(I111
I125
tp1766
tp1767
aa(lp1768
(g2
(g6
S'\x01\x00\x00\x00'
p1769
tp1770
Rp1771
(I0
I51
tp1772
tp1773
a(g2
(g6
S'\x06\x00\x00\x00'
p1774
tp1775
Rp1776
(I51
I75
tp1777
tp1778
a(g2
(g6
S'\x05\x00\x00\x00'
p1779
tp1780
Rp1781
(I75
I90
tp1782
tp1783
a(g2
(g6
S'\x00\x00\x00\x00'
p1784
tp1785
Rp1786
(I90
I125
tp1787
tp1788
aa(lp1789
(g2
(g6
S'\x01\x00\x00\x00'
p1790
tp1791
Rp1792
(I0
I51
tp1793
tp1794
a(g2
(g6
S'\x06\x00\x00\x00'
p1795
tp1796
Rp1797
(I51
I75
tp1798
tp1799
a(g2
(g6
S'\x05\x00\x00\x00'
p1800
tp1801
Rp1802
(I75
I90
tp1803
tp1804
a(g2
(g6
S'\x00\x00\x00\x00'
p1805
tp1806
Rp1807
(I90
I125
tp1808
tp1809
aa(lp1810
(g2
(g6
S'\x01\x00\x00\x00'
p1811
tp1812
Rp1813
(I0
I51
tp1814
tp1815
a(g2
(g6
S'\x06\x00\x00\x00'
p1816
tp1817
Rp1818
(I51
I75
tp1819
tp1820
a(g2
(g6
S'\x05\x00\x00\x00'
p1821
tp1822
Rp1823
(I75
I90
tp1824
tp1825
a(g2
(g6
S'\x00\x00\x00\x00'
p1826
tp1827
Rp1828
(I90
I125
tp1829
tp1830
aa(lp1831
(g2
(g6
S'\x01\x00\x00\x00'
p1832
tp1833
Rp1834
(I0
I51
tp1835
tp1836
a(g2
(g6
S'\x06\x00\x00\x00'
p1837
tp1838
Rp1839
(I51
I75
tp1840
tp1841
a(g2
(g6
S'\x05\x00\x00\x00'
p1842
tp1843
Rp1844
(I75
I90
tp1845
tp1846
a(g2
(g6
S'\x00\x00\x00\x00'
p1847
tp1848
Rp1849
(I90
I125
tp1850
tp1851
aa(lp1852
(g2
(g6
S'\x01\x00\x00\x00'
p1853
tp1854
Rp1855
(I0
I51
tp1856
tp1857
a(g2
(g6
S'\x06\x00\x00\x00'
p1858
tp1859
Rp1860
(I51
I75
tp1861
tp1862
a(g2
(g6
S'\x05\x00\x00\x00'
p1863
tp1864
Rp1865
(I75
I91
tp1866
tp1867
a(g2
(g6
S'\x00\x00\x00\x00'
p1868
tp1869
Rp1870
(I91
I125
tp1871
tp1872
aa(lp1873
(g2
(g6
S'\x01\x00\x00\x00'
p1874
tp1875
Rp1876
(I0
I52
tp1877
tp1878
a(g2
(g6
S'\x06\x00\x00\x00'
p1879
tp1880
Rp1881
(I52
I75
tp1882
tp1883
a(g2
(g6
S'\x05\x00\x00\x00'
p1884
tp1885
Rp1886
(I75
I90
tp1887
tp1888
a(g2
(g6
S'\x00\x00\x00\x00'
p1889
tp1890
Rp1891
(I90
I125
tp1892
tp1893
aa(lp1894
(g2
(g6
S'\x01\x00\x00\x00'
p1895
tp1896
Rp1897
(I0
I51
tp1898
tp1899
a(g2
(g6
S'\x06\x00\x00\x00'
p1900
tp1901
Rp1902
(I51
I75
tp1903
tp1904
a(g2
(g6
S'\x05\x00\x00\x00'
p1905
tp1906
Rp1907
(I75
I91
tp1908
tp1909
a(g2
(g6
S'\x00\x00\x00\x00'
p1910
tp1911
Rp1912
(I91
I125
tp1913
tp1914
aa(lp1915
(g2
(g6
S'\x01\x00\x00\x00'
p1916
tp1917
Rp1918
(I0
I51
tp1919
tp1920
a(g2
(g6
S'\x06\x00\x00\x00'
p1921
tp1922
Rp1923
(I51
I75
tp1924
tp1925
a(g2
(g6
S'\x05\x00\x00\x00'
p1926
tp1927
Rp1928
(I75
I91
tp1929
tp1930
a(g2
(g6
S'\x00\x00\x00\x00'
p1931
tp1932
Rp1933
(I91
I125
tp1934
tp1935
aa(lp1936
(g2
(g6
S'\x01\x00\x00\x00'
p1937
tp1938
Rp1939
(I0
I51
tp1940
tp1941
a(g2
(g6
S'\x06\x00\x00\x00'
p1942
tp1943
Rp1944
(I51
I75
tp1945
tp1946
a(g2
(g6
S'\x05\x00\x00\x00'
p1947
tp1948
Rp1949
(I75
I90
tp1950
tp1951
a(g2
(g6
S'\x00\x00\x00\x00'
p1952
tp1953
Rp1954
(I90
I125
tp1955
tp1956
aa(lp1957
(g2
(g6
S'\x01\x00\x00\x00'
p1958
tp1959
Rp1960
(I0
I51
tp1961
tp1962
a(g2
(g6
S'\x06\x00\x00\x00'
p1963
tp1964
Rp1965
(I51
I75
tp1966
tp1967
a(g2
(g6
S'\x05\x00\x00\x00'
p1968
tp1969
Rp1970
(I75
I91
tp1971
tp1972
a(g2
(g6
S'\x00\x00\x00\x00'
p1973
tp1974
Rp1975
(I91
I125
tp1976
tp1977
aa(lp1978
(g2
(g6
S'\x01\x00\x00\x00'
p1979
tp1980
Rp1981
(I0
I52
tp1982
tp1983
a(g2
(g6
S'\x06\x00\x00\x00'
p1984
tp1985
Rp1986
(I52
I75
tp1987
tp1988
a(g2
(g6
S'\x05\x00\x00\x00'
p1989
tp1990
Rp1991
(I75
I90
tp1992
tp1993
a(g2
(g6
S'\x00\x00\x00\x00'
p1994
tp1995
Rp1996
(I90
I125
tp1997
tp1998
aa(lp1999
(g2
(g6
S'\x01\x00\x00\x00'
p2000
tp2001
Rp2002
(I0
I51
tp2003
tp2004
a(g2
(g6
S'\x06\x00\x00\x00'
p2005
tp2006
Rp2007
(I51
I75
tp2008
tp2009
a(g2
(g6
S'\x05\x00\x00\x00'
p2010
tp2011
Rp2012
(I75
I90
tp2013
tp2014
a(g2
(g6
S'\x00\x00\x00\x00'
p2015
tp2016
Rp2017
(I90
I125
tp2018
tp2019
aa(lp2020
(g2
(g6
S'\x01\x00\x00\x00'
p2021
tp2022
Rp2023
(I0
I51
tp2024
tp2025
a(g2
(g6
S'\x06\x00\x00\x00'
p2026
tp2027
Rp2028
(I51
I75
tp2029
tp2030
a(g2
(g6
S'\x05\x00\x00\x00'
p2031
tp2032
Rp2033
(I75
I90
tp2034
tp2035
a(g2
(g6
S'\x00\x00\x00\x00'
p2036
tp2037
Rp2038
(I90
I125
tp2039
tp2040
aa(lp2041
(g2
(g6
S'\x01\x00\x00\x00'
p2042
tp2043
Rp2044
(I0
I51
tp2045
tp2046
a(g2
(g6
S'\x06\x00\x00\x00'
p2047
tp2048
Rp2049
(I51
I75
tp2050
tp2051
a(g2
(g6
S'\x05\x00\x00\x00'
p2052
tp2053
Rp2054
(I75
I89
tp2055
tp2056
a(g2
(g6
S'\x00\x00\x00\x00'
p2057
tp2058
Rp2059
(I89
I125
tp2060
tp2061
aa(lp2062
(g2
(g6
S'\x01\x00\x00\x00'
p2063
tp2064
Rp2065
(I0
I52
tp2066
tp2067
a(g2
(g6
S'\x06\x00\x00\x00'
p2068
tp2069
Rp2070
(I52
I75
tp2071
tp2072
a(g2
(g6
S'\x05\x00\x00\x00'
p2073
tp2074
Rp2075
(I75
I90
tp2076
tp2077
a(g2
(g6
S'\x00\x00\x00\x00'
p2078
tp2079
Rp2080
(I90
I125
tp2081
tp2082
aa.