(lp0
(lp1
(cnumpy.core.multiarray
scalar
p2
(cnumpy
dtype
p3
(S'i4'
p4
I0
I1
tp5
Rp6
(I3
S'<'
p7
NNNI-1
I-1
I0
tp8
bS'\x01\x00\x00\x00'
p9
tp10
Rp11
(I0
I39
tp12
tp13
a(g2
(g6
S'\x01\x00\x00\x00'
p14
tp15
Rp16
(I39
I96
tp17
tp18
aa(lp19
(g2
(g6
S'\x01\x00\x00\x00'
p20
tp21
Rp22
(I0
I39
tp23
tp24
a(g2
(g6
S'\x01\x00\x00\x00'
p25
tp26
Rp27
(I39
I96
tp28
tp29
aa(lp30
(g2
(g6
S'\x02\x00\x00\x00'
p31
tp32
Rp33
(I0
I38
tp34
tp35
a(g2
(g6
S'\x02\x00\x00\x00'
p36
tp37
Rp38
(I38
I96
tp39
tp40
aa(lp41
(g2
(g6
S'\x02\x00\x00\x00'
p42
tp43
Rp44
(I0
I39
tp45
tp46
a(g2
(g6
S'\x02\x00\x00\x00'
p47
tp48
Rp49
(I39
I96
tp50
tp51
aa(lp52
(g2
(g6
S'\x02\x00\x00\x00'
p53
tp54
Rp55
(I0
I39
tp56
tp57
a(g2
(g6
S'\x05\x00\x00\x00'
p58
tp59
Rp60
(I39
I54
tp61
tp62
a(g2
(g6
S'\x02\x00\x00\x00'
p63
tp64
Rp65
(I54
I96
tp66
tp67
aa(lp68
(g2
(g6
S'\x02\x00\x00\x00'
p69
tp70
Rp71
(I0
I39
tp72
tp73
a(g2
(g6
S'\x05\x00\x00\x00'
p74
tp75
Rp76
(I39
I57
tp77
tp78
a(g2
(g6
S'\x02\x00\x00\x00'
p79
tp80
Rp81
(I57
I96
tp82
tp83
aa(lp84
(g2
(g6
S'\x02\x00\x00\x00'
p85
tp86
Rp87
(I0
I39
tp88
tp89
a(g2
(g6
S'\x05\x00\x00\x00'
p90
tp91
Rp92
(I39
I52
tp93
tp94
a(g2
(g6
S'\x02\x00\x00\x00'
p95
tp96
Rp97
(I52
I96
tp98
tp99
aa(lp100
(g2
(g6
S'\x02\x00\x00\x00'
p101
tp102
Rp103
(I0
I39
tp104
tp105
a(g2
(g6
S'\x05\x00\x00\x00'
p106
tp107
Rp108
(I39
I55
tp109
tp110
a(g2
(g6
S'\x02\x00\x00\x00'
p111
tp112
Rp113
(I55
I96
tp114
tp115
aa(lp116
(g2
(g6
S'\x02\x00\x00\x00'
p117
tp118
Rp119
(I0
I39
tp120
tp121
a(g2
(g6
S'\x05\x00\x00\x00'
p122
tp123
Rp124
(I39
I53
tp125
tp126
a(g2
(g6
S'\x02\x00\x00\x00'
p127
tp128
Rp129
(I53
I96
tp130
tp131
aa(lp132
(g2
(g6
S'\x02\x00\x00\x00'
p133
tp134
Rp135
(I0
I39
tp136
tp137
a(g2
(g6
S'\x05\x00\x00\x00'
p138
tp139
Rp140
(I39
I53
tp141
tp142
a(g2
(g6
S'\x02\x00\x00\x00'
p143
tp144
Rp145
(I53
I96
tp146
tp147
aa(lp148
(g2
(g6
S'\x02\x00\x00\x00'
p149
tp150
Rp151
(I0
I39
tp152
tp153
a(g2
(g6
S'\x05\x00\x00\x00'
p154
tp155
Rp156
(I39
I56
tp157
tp158
a(g2
(g6
S'\x02\x00\x00\x00'
p159
tp160
Rp161
(I56
I96
tp162
tp163
aa(lp164
(g2
(g6
S'\x02\x00\x00\x00'
p165
tp166
Rp167
(I0
I39
tp168
tp169
a(g2
(g6
S'\x05\x00\x00\x00'
p170
tp171
Rp172
(I39
I54
tp173
tp174
a(g2
(g6
S'\x02\x00\x00\x00'
p175
tp176
Rp177
(I54
I96
tp178
tp179
aa(lp180
(g2
(g6
S'\x02\x00\x00\x00'
p181
tp182
Rp183
(I0
I39
tp184
tp185
a(g2
(g6
S'\x05\x00\x00\x00'
p186
tp187
Rp188
(I39
I53
tp189
tp190
a(g2
(g6
S'\x02\x00\x00\x00'
p191
tp192
Rp193
(I53
I96
tp194
tp195
aa(lp196
(g2
(g6
S'\x02\x00\x00\x00'
p197
tp198
Rp199
(I0
I39
tp200
tp201
a(g2
(g6
S'\x05\x00\x00\x00'
p202
tp203
Rp204
(I39
I56
tp205
tp206
a(g2
(g6
S'\x02\x00\x00\x00'
p207
tp208
Rp209
(I56
I96
tp210
tp211
aa(lp212
(g2
(g6
S'\x02\x00\x00\x00'
p213
tp214
Rp215
(I0
I39
tp216
tp217
a(g2
(g6
S'\x05\x00\x00\x00'
p218
tp219
Rp220
(I39
I57
tp221
tp222
a(g2
(g6
S'\x02\x00\x00\x00'
p223
tp224
Rp225
(I57
I96
tp226
tp227
aa(lp228
(g2
(g6
S'\x02\x00\x00\x00'
p229
tp230
Rp231
(I0
I39
tp232
tp233
a(g2
(g6
S'\x05\x00\x00\x00'
p234
tp235
Rp236
(I39
I57
tp237
tp238
a(g2
(g6
S'\x02\x00\x00\x00'
p239
tp240
Rp241
(I57
I96
tp242
tp243
aa(lp244
(g2
(g6
S'\x02\x00\x00\x00'
p245
tp246
Rp247
(I0
I38
tp248
tp249
a(g2
(g6
S'\x05\x00\x00\x00'
p250
tp251
Rp252
(I38
I50
tp253
tp254
a(g2
(g6
S'\x02\x00\x00\x00'
p255
tp256
Rp257
(I50
I96
tp258
tp259
aa(lp260
(g2
(g6
S'\x02\x00\x00\x00'
p261
tp262
Rp263
(I0
I39
tp264
tp265
a(g2
(g6
S'\x05\x00\x00\x00'
p266
tp267
Rp268
(I39
I58
tp269
tp270
a(g2
(g6
S'\x02\x00\x00\x00'
p271
tp272
Rp273
(I58
I96
tp274
tp275
aa(lp276
(g2
(g6
S'\x02\x00\x00\x00'
p277
tp278
Rp279
(I0
I39
tp280
tp281
a(g2
(g6
S'\x05\x00\x00\x00'
p282
tp283
Rp284
(I39
I54
tp285
tp286
a(g2
(g6
S'\x02\x00\x00\x00'
p287
tp288
Rp289
(I54
I96
tp290
tp291
aa(lp292
(g2
(g6
S'\x02\x00\x00\x00'
p293
tp294
Rp295
(I0
I39
tp296
tp297
a(g2
(g6
S'\x05\x00\x00\x00'
p298
tp299
Rp300
(I39
I56
tp301
tp302
a(g2
(g6
S'\x02\x00\x00\x00'
p303
tp304
Rp305
(I56
I96
tp306
tp307
aa(lp308
(g2
(g6
S'\x02\x00\x00\x00'
p309
tp310
Rp311
(I0
I39
tp312
tp313
a(g2
(g6
S'\x05\x00\x00\x00'
p314
tp315
Rp316
(I39
I53
tp317
tp318
a(g2
(g6
S'\x02\x00\x00\x00'
p319
tp320
Rp321
(I53
I96
tp322
tp323
aa(lp324
(g2
(g6
S'\x02\x00\x00\x00'
p325
tp326
Rp327
(I0
I39
tp328
tp329
a(g2
(g6
S'\x05\x00\x00\x00'
p330
tp331
Rp332
(I39
I54
tp333
tp334
a(g2
(g6
S'\x02\x00\x00\x00'
p335
tp336
Rp337
(I54
I96
tp338
tp339
aa(lp340
(g2
(g6
S'\x02\x00\x00\x00'
p341
tp342
Rp343
(I0
I39
tp344
tp345
a(g2
(g6
S'\x05\x00\x00\x00'
p346
tp347
Rp348
(I39
I57
tp349
tp350
a(g2
(g6
S'\x02\x00\x00\x00'
p351
tp352
Rp353
(I57
I96
tp354
tp355
aa(lp356
(g2
(g6
S'\x02\x00\x00\x00'
p357
tp358
Rp359
(I0
I39
tp360
tp361
a(g2
(g6
S'\x05\x00\x00\x00'
p362
tp363
Rp364
(I39
I55
tp365
tp366
a(g2
(g6
S'\x02\x00\x00\x00'
p367
tp368
Rp369
(I55
I96
tp370
tp371
aa(lp372
(g2
(g6
S'\x02\x00\x00\x00'
p373
tp374
Rp375
(I0
I39
tp376
tp377
a(g2
(g6
S'\x05\x00\x00\x00'
p378
tp379
Rp380
(I39
I52
tp381
tp382
a(g2
(g6
S'\x02\x00\x00\x00'
p383
tp384
Rp385
(I52
I96
tp386
tp387
aa(lp388
(g2
(g6
S'\x02\x00\x00\x00'
p389
tp390
Rp391
(I0
I39
tp392
tp393
a(g2
(g6
S'\x05\x00\x00\x00'
p394
tp395
Rp396
(I39
I55
tp397
tp398
a(g2
(g6
S'\x02\x00\x00\x00'
p399
tp400
Rp401
(I55
I96
tp402
tp403
aa(lp404
(g2
(g6
S'\x02\x00\x00\x00'
p405
tp406
Rp407
(I0
I39
tp408
tp409
a(g2
(g6
S'\x05\x00\x00\x00'
p410
tp411
Rp412
(I39
I53
tp413
tp414
a(g2
(g6
S'\x02\x00\x00\x00'
p415
tp416
Rp417
(I53
I96
tp418
tp419
aa(lp420
(g2
(g6
S'\x02\x00\x00\x00'
p421
tp422
Rp423
(I0
I39
tp424
tp425
a(g2
(g6
S'\x05\x00\x00\x00'
p426
tp427
Rp428
(I39
I57
tp429
tp430
a(g2
(g6
S'\x02\x00\x00\x00'
p431
tp432
Rp433
(I57
I96
tp434
tp435
aa(lp436
(g2
(g6
S'\x02\x00\x00\x00'
p437
tp438
Rp439
(I0
I39
tp440
tp441
a(g2
(g6
S'\x05\x00\x00\x00'
p442
tp443
Rp444
(I39
I54
tp445
tp446
a(g2
(g6
S'\x02\x00\x00\x00'
p447
tp448
Rp449
(I54
I96
tp450
tp451
aa(lp452
(g2
(g6
S'\x02\x00\x00\x00'
p453
tp454
Rp455
(I0
I39
tp456
tp457
a(g2
(g6
S'\x05\x00\x00\x00'
p458
tp459
Rp460
(I39
I53
tp461
tp462
a(g2
(g6
S'\x02\x00\x00\x00'
p463
tp464
Rp465
(I53
I96
tp466
tp467
aa(lp468
(g2
(g6
S'\x02\x00\x00\x00'
p469
tp470
Rp471
(I0
I39
tp472
tp473
a(g2
(g6
S'\x05\x00\x00\x00'
p474
tp475
Rp476
(I39
I54
tp477
tp478
a(g2
(g6
S'\x02\x00\x00\x00'
p479
tp480
Rp481
(I54
I96
tp482
tp483
aa(lp484
(g2
(g6
S'\x02\x00\x00\x00'
p485
tp486
Rp487
(I0
I39
tp488
tp489
a(g2
(g6
S'\x05\x00\x00\x00'
p490
tp491
Rp492
(I39
I53
tp493
tp494
a(g2
(g6
S'\x02\x00\x00\x00'
p495
tp496
Rp497
(I53
I96
tp498
tp499
aa(lp500
(g2
(g6
S'\x02\x00\x00\x00'
p501
tp502
Rp503
(I0
I39
tp504
tp505
a(g2
(g6
S'\x05\x00\x00\x00'
p506
tp507
Rp508
(I39
I52
tp509
tp510
a(g2
(g6
S'\x02\x00\x00\x00'
p511
tp512
Rp513
(I52
I96
tp514
tp515
aa(lp516
(g2
(g6
S'\x02\x00\x00\x00'
p517
tp518
Rp519
(I0
I39
tp520
tp521
a(g2
(g6
S'\x05\x00\x00\x00'
p522
tp523
Rp524
(I39
I53
tp525
tp526
a(g2
(g6
S'\x02\x00\x00\x00'
p527
tp528
Rp529
(I53
I96
tp530
tp531
aa(lp532
(g2
(g6
S'\x02\x00\x00\x00'
p533
tp534
Rp535
(I0
I39
tp536
tp537
a(g2
(g6
S'\x05\x00\x00\x00'
p538
tp539
Rp540
(I39
I52
tp541
tp542
a(g2
(g6
S'\x02\x00\x00\x00'
p543
tp544
Rp545
(I52
I96
tp546
tp547
aa(lp548
(g2
(g6
S'\x02\x00\x00\x00'
p549
tp550
Rp551
(I0
I39
tp552
tp553
a(g2
(g6
S'\x05\x00\x00\x00'
p554
tp555
Rp556
(I39
I54
tp557
tp558
a(g2
(g6
S'\x02\x00\x00\x00'
p559
tp560
Rp561
(I54
I96
tp562
tp563
aa(lp564
(g2
(g6
S'\x02\x00\x00\x00'
p565
tp566
Rp567
(I0
I39
tp568
tp569
a(g2
(g6
S'\x05\x00\x00\x00'
p570
tp571
Rp572
(I39
I54
tp573
tp574
a(g2
(g6
S'\x02\x00\x00\x00'
p575
tp576
Rp577
(I54
I96
tp578
tp579
aa(lp580
(g2
(g6
S'\x02\x00\x00\x00'
p581
tp582
Rp583
(I0
I39
tp584
tp585
a(g2
(g6
S'\x05\x00\x00\x00'
p586
tp587
Rp588
(I39
I52
tp589
tp590
a(g2
(g6
S'\x02\x00\x00\x00'
p591
tp592
Rp593
(I52
I96
tp594
tp595
aa(lp596
(g2
(g6
S'\x02\x00\x00\x00'
p597
tp598
Rp599
(I0
I39
tp600
tp601
a(g2
(g6
S'\x05\x00\x00\x00'
p602
tp603
Rp604
(I39
I58
tp605
tp606
a(g2
(g6
S'\x02\x00\x00\x00'
p607
tp608
Rp609
(I58
I96
tp610
tp611
aa(lp612
(g2
(g6
S'\x02\x00\x00\x00'
p613
tp614
Rp615
(I0
I39
tp616
tp617
a(g2
(g6
S'\x05\x00\x00\x00'
p618
tp619
Rp620
(I39
I56
tp621
tp622
a(g2
(g6
S'\x02\x00\x00\x00'
p623
tp624
Rp625
(I56
I96
tp626
tp627
aa(lp628
(g2
(g6
S'\x02\x00\x00\x00'
p629
tp630
Rp631
(I0
I39
tp632
tp633
a(g2
(g6
S'\x05\x00\x00\x00'
p634
tp635
Rp636
(I39
I54
tp637
tp638
a(g2
(g6
S'\x02\x00\x00\x00'
p639
tp640
Rp641
(I54
I96
tp642
tp643
aa(lp644
(g2
(g6
S'\x02\x00\x00\x00'
p645
tp646
Rp647
(I0
I39
tp648
tp649
a(g2
(g6
S'\x05\x00\x00\x00'
p650
tp651
Rp652
(I39
I56
tp653
tp654
a(g2
(g6
S'\x02\x00\x00\x00'
p655
tp656
Rp657
(I56
I96
tp658
tp659
aa(lp660
(g2
(g6
S'\x02\x00\x00\x00'
p661
tp662
Rp663
(I0
I39
tp664
tp665
a(g2
(g6
S'\x05\x00\x00\x00'
p666
tp667
Rp668
(I39
I58
tp669
tp670
a(g2
(g6
S'\x02\x00\x00\x00'
p671
tp672
Rp673
(I58
I96
tp674
tp675
aa(lp676
(g2
(g6
S'\x02\x00\x00\x00'
p677
tp678
Rp679
(I0
I39
tp680
tp681
a(g2
(g6
S'\x05\x00\x00\x00'
p682
tp683
Rp684
(I39
I53
tp685
tp686
a(g2
(g6
S'\x02\x00\x00\x00'
p687
tp688
Rp689
(I53
I96
tp690
tp691
aa(lp692
(g2
(g6
S'\x02\x00\x00\x00'
p693
tp694
Rp695
(I0
I39
tp696
tp697
a(g2
(g6
S'\x02\x00\x00\x00'
p698
tp699
Rp700
(I39
I96
tp701
tp702
aa(lp703
(g2
(g6
S'\x02\x00\x00\x00'
p704
tp705
Rp706
(I0
I39
tp707
tp708
a(g2
(g6
S'\x05\x00\x00\x00'
p709
tp710
Rp711
(I39
I60
tp712
tp713
a(g2
(g6
S'\x02\x00\x00\x00'
p714
tp715
Rp716
(I60
I96
tp717
tp718
aa(lp719
(g2
(g6
S'\x02\x00\x00\x00'
p720
tp721
Rp722
(I0
I39
tp723
tp724
a(g2
(g6
S'\x05\x00\x00\x00'
p725
tp726
Rp727
(I39
I53
tp728
tp729
a(g2
(g6
S'\x02\x00\x00\x00'
p730
tp731
Rp732
(I53
I96
tp733
tp734
aa(lp735
(g2
(g6
S'\x02\x00\x00\x00'
p736
tp737
Rp738
(I0
I39
tp739
tp740
a(g2
(g6
S'\x05\x00\x00\x00'
p741
tp742
Rp743
(I39
I52
tp744
tp745
a(g2
(g6
S'\x02\x00\x00\x00'
p746
tp747
Rp748
(I52
I96
tp749
tp750
aa(lp751
(g2
(g6
S'\x02\x00\x00\x00'
p752
tp753
Rp754
(I0
I39
tp755
tp756
a(g2
(g6
S'\x02\x00\x00\x00'
p757
tp758
Rp759
(I39
I96
tp760
tp761
aa(lp762
(g2
(g6
S'\x02\x00\x00\x00'
p763
tp764
Rp765
(I0
I39
tp766
tp767
a(g2
(g6
S'\x05\x00\x00\x00'
p768
tp769
Rp770
(I39
I53
tp771
tp772
a(g2
(g6
S'\x02\x00\x00\x00'
p773
tp774
Rp775
(I53
I96
tp776
tp777
aa(lp778
(g2
(g6
S'\x02\x00\x00\x00'
p779
tp780
Rp781
(I0
I39
tp782
tp783
a(g2
(g6
S'\x05\x00\x00\x00'
p784
tp785
Rp786
(I39
I52
tp787
tp788
a(g2
(g6
S'\x02\x00\x00\x00'
p789
tp790
Rp791
(I52
I96
tp792
tp793
aa(lp794
(g2
(g6
S'\x02\x00\x00\x00'
p795
tp796
Rp797
(I0
I39
tp798
tp799
a(g2
(g6
S'\x05\x00\x00\x00'
p800
tp801
Rp802
(I39
I58
tp803
tp804
a(g2
(g6
S'\x02\x00\x00\x00'
p805
tp806
Rp807
(I58
I96
tp808
tp809
aa(lp810
(g2
(g6
S'\x02\x00\x00\x00'
p811
tp812
Rp813
(I0
I39
tp814
tp815
a(g2
(g6
S'\x05\x00\x00\x00'
p816
tp817
Rp818
(I39
I57
tp819
tp820
a(g2
(g6
S'\x02\x00\x00\x00'
p821
tp822
Rp823
(I57
I96
tp824
tp825
aa(lp826
(g2
(g6
S'\x02\x00\x00\x00'
p827
tp828
Rp829
(I0
I39
tp830
tp831
a(g2
(g6
S'\x05\x00\x00\x00'
p832
tp833
Rp834
(I39
I56
tp835
tp836
a(g2
(g6
S'\x02\x00\x00\x00'
p837
tp838
Rp839
(I56
I96
tp840
tp841
aa(lp842
(g2
(g6
S'\x02\x00\x00\x00'
p843
tp844
Rp845
(I0
I39
tp846
tp847
a(g2
(g6
S'\x05\x00\x00\x00'
p848
tp849
Rp850
(I39
I53
tp851
tp852
a(g2
(g6
S'\x02\x00\x00\x00'
p853
tp854
Rp855
(I53
I96
tp856
tp857
aa(lp858
(g2
(g6
S'\x02\x00\x00\x00'
p859
tp860
Rp861
(I0
I39
tp862
tp863
a(g2
(g6
S'\x05\x00\x00\x00'
p864
tp865
Rp866
(I39
I56
tp867
tp868
a(g2
(g6
S'\x02\x00\x00\x00'
p869
tp870
Rp871
(I56
I96
tp872
tp873
aa(lp874
(g2
(g6
S'\x02\x00\x00\x00'
p875
tp876
Rp877
(I0
I39
tp878
tp879
a(g2
(g6
S'\x05\x00\x00\x00'
p880
tp881
Rp882
(I39
I55
tp883
tp884
a(g2
(g6
S'\x02\x00\x00\x00'
p885
tp886
Rp887
(I55
I96
tp888
tp889
aa(lp890
(g2
(g6
S'\x02\x00\x00\x00'
p891
tp892
Rp893
(I0
I39
tp894
tp895
a(g2
(g6
S'\x05\x00\x00\x00'
p896
tp897
Rp898
(I39
I56
tp899
tp900
a(g2
(g6
S'\x02\x00\x00\x00'
p901
tp902
Rp903
(I56
I96
tp904
tp905
aa(lp906
(g2
(g6
S'\x02\x00\x00\x00'
p907
tp908
Rp909
(I0
I39
tp910
tp911
a(g2
(g6
S'\x05\x00\x00\x00'
p912
tp913
Rp914
(I39
I56
tp915
tp916
a(g2
(g6
S'\x02\x00\x00\x00'
p917
tp918
Rp919
(I56
I96
tp920
tp921
aa(lp922
(g2
(g6
S'\x02\x00\x00\x00'
p923
tp924
Rp925
(I0
I39
tp926
tp927
a(g2
(g6
S'\x05\x00\x00\x00'
p928
tp929
Rp930
(I39
I54
tp931
tp932
a(g2
(g6
S'\x02\x00\x00\x00'
p933
tp934
Rp935
(I54
I96
tp936
tp937
aa(lp938
(g2
(g6
S'\x02\x00\x00\x00'
p939
tp940
Rp941
(I0
I39
tp942
tp943
a(g2
(g6
S'\x05\x00\x00\x00'
p944
tp945
Rp946
(I39
I56
tp947
tp948
a(g2
(g6
S'\x02\x00\x00\x00'
p949
tp950
Rp951
(I56
I96
tp952
tp953
aa(lp954
(g2
(g6
S'\x02\x00\x00\x00'
p955
tp956
Rp957
(I0
I39
tp958
tp959
a(g2
(g6
S'\x02\x00\x00\x00'
p960
tp961
Rp962
(I39
I96
tp963
tp964
aa(lp965
(g2
(g6
S'\x02\x00\x00\x00'
p966
tp967
Rp968
(I0
I39
tp969
tp970
a(g2
(g6
S'\x05\x00\x00\x00'
p971
tp972
Rp973
(I39
I52
tp974
tp975
a(g2
(g6
S'\x02\x00\x00\x00'
p976
tp977
Rp978
(I52
I96
tp979
tp980
aa(lp981
(g2
(g6
S'\x02\x00\x00\x00'
p982
tp983
Rp984
(I0
I39
tp985
tp986
a(g2
(g6
S'\x05\x00\x00\x00'
p987
tp988
Rp989
(I39
I54
tp990
tp991
a(g2
(g6
S'\x02\x00\x00\x00'
p992
tp993
Rp994
(I54
I96
tp995
tp996
aa(lp997
(g2
(g6
S'\x02\x00\x00\x00'
p998
tp999
Rp1000
(I0
I39
tp1001
tp1002
a(g2
(g6
S'\x05\x00\x00\x00'
p1003
tp1004
Rp1005
(I39
I55
tp1006
tp1007
a(g2
(g6
S'\x02\x00\x00\x00'
p1008
tp1009
Rp1010
(I55
I96
tp1011
tp1012
aa(lp1013
(g2
(g6
S'\x02\x00\x00\x00'
p1014
tp1015
Rp1016
(I0
I39
tp1017
tp1018
a(g2
(g6
S'\x05\x00\x00\x00'
p1019
tp1020
Rp1021
(I39
I56
tp1022
tp1023
a(g2
(g6
S'\x02\x00\x00\x00'
p1024
tp1025
Rp1026
(I56
I96
tp1027
tp1028
aa(lp1029
(g2
(g6
S'\x02\x00\x00\x00'
p1030
tp1031
Rp1032
(I0
I39
tp1033
tp1034
a(g2
(g6
S'\x05\x00\x00\x00'
p1035
tp1036
Rp1037
(I39
I58
tp1038
tp1039
a(g2
(g6
S'\x02\x00\x00\x00'
p1040
tp1041
Rp1042
(I58
I96
tp1043
tp1044
aa(lp1045
(g2
(g6
S'\x02\x00\x00\x00'
p1046
tp1047
Rp1048
(I0
I39
tp1049
tp1050
a(g2
(g6
S'\x05\x00\x00\x00'
p1051
tp1052
Rp1053
(I39
I58
tp1054
tp1055
a(g2
(g6
S'\x02\x00\x00\x00'
p1056
tp1057
Rp1058
(I58
I96
tp1059
tp1060
aa(lp1061
(g2
(g6
S'\x02\x00\x00\x00'
p1062
tp1063
Rp1064
(I0
I39
tp1065
tp1066
a(g2
(g6
S'\x05\x00\x00\x00'
p1067
tp1068
Rp1069
(I39
I52
tp1070
tp1071
a(g2
(g6
S'\x02\x00\x00\x00'
p1072
tp1073
Rp1074
(I52
I96
tp1075
tp1076
aa(lp1077
(g2
(g6
S'\x02\x00\x00\x00'
p1078
tp1079
Rp1080
(I0
I39
tp1081
tp1082
a(g2
(g6
S'\x02\x00\x00\x00'
p1083
tp1084
Rp1085
(I39
I96
tp1086
tp1087
aa(lp1088
(g2
(g6
S'\x02\x00\x00\x00'
p1089
tp1090
Rp1091
(I0
I39
tp1092
tp1093
a(g2
(g6
S'\x05\x00\x00\x00'
p1094
tp1095
Rp1096
(I39
I53
tp1097
tp1098
a(g2
(g6
S'\x02\x00\x00\x00'
p1099
tp1100
Rp1101
(I53
I96
tp1102
tp1103
aa(lp1104
(g2
(g6
S'\x02\x00\x00\x00'
p1105
tp1106
Rp1107
(I0
I39
tp1108
tp1109
a(g2
(g6
S'\x05\x00\x00\x00'
p1110
tp1111
Rp1112
(I39
I57
tp1113
tp1114
a(g2
(g6
S'\x02\x00\x00\x00'
p1115
tp1116
Rp1117
(I57
I96
tp1118
tp1119
aa(lp1120
(g2
(g6
S'\x02\x00\x00\x00'
p1121
tp1122
Rp1123
(I0
I39
tp1124
tp1125
a(g2
(g6
S'\x05\x00\x00\x00'
p1126
tp1127
Rp1128
(I39
I55
tp1129
tp1130
a(g2
(g6
S'\x02\x00\x00\x00'
p1131
tp1132
Rp1133
(I55
I96
tp1134
tp1135
aa(lp1136
(g2
(g6
S'\x02\x00\x00\x00'
p1137
tp1138
Rp1139
(I0
I39
tp1140
tp1141
a(g2
(g6
S'\x05\x00\x00\x00'
p1142
tp1143
Rp1144
(I39
I56
tp1145
tp1146
a(g2
(g6
S'\x02\x00\x00\x00'
p1147
tp1148
Rp1149
(I56
I96
tp1150
tp1151
aa(lp1152
(g2
(g6
S'\x02\x00\x00\x00'
p1153
tp1154
Rp1155
(I0
I39
tp1156
tp1157
a(g2
(g6
S'\x05\x00\x00\x00'
p1158
tp1159
Rp1160
(I39
I55
tp1161
tp1162
a(g2
(g6
S'\x02\x00\x00\x00'
p1163
tp1164
Rp1165
(I55
I96
tp1166
tp1167
aa(lp1168
(g2
(g6
S'\x02\x00\x00\x00'
p1169
tp1170
Rp1171
(I0
I39
tp1172
tp1173
a(g2
(g6
S'\x05\x00\x00\x00'
p1174
tp1175
Rp1176
(I39
I56
tp1177
tp1178
a(g2
(g6
S'\x02\x00\x00\x00'
p1179
tp1180
Rp1181
(I56
I96
tp1182
tp1183
aa(lp1184
(g2
(g6
S'\x02\x00\x00\x00'
p1185
tp1186
Rp1187
(I0
I39
tp1188
tp1189
a(g2
(g6
S'\x02\x00\x00\x00'
p1190
tp1191
Rp1192
(I39
I96
tp1193
tp1194
aa(lp1195
(g2
(g6
S'\x02\x00\x00\x00'
p1196
tp1197
Rp1198
(I0
I39
tp1199
tp1200
a(g2
(g6
S'\x02\x00\x00\x00'
p1201
tp1202
Rp1203
(I39
I96
tp1204
tp1205
aa(lp1206
(g2
(g6
S'\x02\x00\x00\x00'
p1207
tp1208
Rp1209
(I0
I39
tp1210
tp1211
a(g2
(g6
S'\x05\x00\x00\x00'
p1212
tp1213
Rp1214
(I39
I55
tp1215
tp1216
a(g2
(g6
S'\x02\x00\x00\x00'
p1217
tp1218
Rp1219
(I55
I96
tp1220
tp1221
aa(lp1222
(g2
(g6
S'\x02\x00\x00\x00'
p1223
tp1224
Rp1225
(I0
I39
tp1226
tp1227
a(g2
(g6
S'\x05\x00\x00\x00'
p1228
tp1229
Rp1230
(I39
I56
tp1231
tp1232
a(g2
(g6
S'\x02\x00\x00\x00'
p1233
tp1234
Rp1235
(I56
I96
tp1236
tp1237
aa(lp1238
(g2
(g6
S'\x02\x00\x00\x00'
p1239
tp1240
Rp1241
(I0
I39
tp1242
tp1243
a(g2
(g6
S'\x05\x00\x00\x00'
p1244
tp1245
Rp1246
(I39
I54
tp1247
tp1248
a(g2
(g6
S'\x02\x00\x00\x00'
p1249
tp1250
Rp1251
(I54
I96
tp1252
tp1253
aa(lp1254
(g2
(g6
S'\x02\x00\x00\x00'
p1255
tp1256
Rp1257
(I0
I39
tp1258
tp1259
a(g2
(g6
S'\x05\x00\x00\x00'
p1260
tp1261
Rp1262
(I39
I56
tp1263
tp1264
a(g2
(g6
S'\x02\x00\x00\x00'
p1265
tp1266
Rp1267
(I56
I96
tp1268
tp1269
aa(lp1270
(g2
(g6
S'\x02\x00\x00\x00'
p1271
tp1272
Rp1273
(I0
I39
tp1274
tp1275
a(g2
(g6
S'\x05\x00\x00\x00'
p1276
tp1277
Rp1278
(I39
I58
tp1279
tp1280
a(g2
(g6
S'\x02\x00\x00\x00'
p1281
tp1282
Rp1283
(I58
I96
tp1284
tp1285
aa(lp1286
(g2
(g6
S'\x02\x00\x00\x00'
p1287
tp1288
Rp1289
(I0
I39
tp1290
tp1291
a(g2
(g6
S'\x05\x00\x00\x00'
p1292
tp1293
Rp1294
(I39
I57
tp1295
tp1296
a(g2
(g6
S'\x02\x00\x00\x00'
p1297
tp1298
Rp1299
(I57
I96
tp1300
tp1301
aa(lp1302
(g2
(g6
S'\x02\x00\x00\x00'
p1303
tp1304
Rp1305
(I0
I39
tp1306
tp1307
a(g2
(g6
S'\x04\x00\x00\x00'
p1308
tp1309
Rp1310
(I39
I65
tp1311
tp1312
a(g2
(g6
S'\x02\x00\x00\x00'
p1313
tp1314
Rp1315
(I65
I96
tp1316
tp1317
aa(lp1318
(g2
(g6
S'\x05\x00\x00\x00'
p1319
tp1320
Rp1321
(I0
I17
tp1322
tp1323
a(g2
(g6
S'\x00\x00\x00\x00'
p1324
tp1325
Rp1326
(I17
I58
tp1327
tp1328
a(g2
(g6
S'\x02\x00\x00\x00'
p1329
tp1330
Rp1331
(I58
I96
tp1332
tp1333
aa(lp1334
(g2
(g6
S'\x05\x00\x00\x00'
p1335
tp1336
Rp1337
(I0
I17
tp1338
tp1339
a(g2
(g6
S'\x00\x00\x00\x00'
p1340
tp1341
Rp1342
(I17
I59
tp1343
tp1344
a(g2
(g6
S'\x02\x00\x00\x00'
p1345
tp1346
Rp1347
(I59
I96
tp1348
tp1349
aa(lp1350
(g2
(g6
S'\x05\x00\x00\x00'
p1351
tp1352
Rp1353
(I0
I17
tp1354
tp1355
a(g2
(g6
S'\x00\x00\x00\x00'
p1356
tp1357
Rp1358
(I17
I59
tp1359
tp1360
a(g2
(g6
S'\x02\x00\x00\x00'
p1361
tp1362
Rp1363
(I59
I96
tp1364
tp1365
aa(lp1366
(g2
(g6
S'\x05\x00\x00\x00'
p1367
tp1368
Rp1369
(I0
I17
tp1370
tp1371
a(g2
(g6
S'\x00\x00\x00\x00'
p1372
tp1373
Rp1374
(I17
I60
tp1375
tp1376
a(g2
(g6
S'\x02\x00\x00\x00'
p1377
tp1378
Rp1379
(I60
I96
tp1380
tp1381
aa(lp1382
(g2
(g6
S'\x05\x00\x00\x00'
p1383
tp1384
Rp1385
(I0
I17
tp1386
tp1387
a(g2
(g6
S'\x00\x00\x00\x00'
p1388
tp1389
Rp1390
(I17
I61
tp1391
tp1392
a(g2
(g6
S'\x02\x00\x00\x00'
p1393
tp1394
Rp1395
(I61
I96
tp1396
tp1397
aa(lp1398
(g2
(g6
S'\x05\x00\x00\x00'
p1399
tp1400
Rp1401
(I0
I17
tp1402
tp1403
a(g2
(g6
S'\x00\x00\x00\x00'
p1404
tp1405
Rp1406
(I17
I61
tp1407
tp1408
a(g2
(g6
S'\x02\x00\x00\x00'
p1409
tp1410
Rp1411
(I61
I96
tp1412
tp1413
aa(lp1414
(g2
(g6
S'\x05\x00\x00\x00'
p1415
tp1416
Rp1417
(I0
I17
tp1418
tp1419
a(g2
(g6
S'\x00\x00\x00\x00'
p1420
tp1421
Rp1422
(I17
I61
tp1423
tp1424
a(g2
(g6
S'\x02\x00\x00\x00'
p1425
tp1426
Rp1427
(I61
I96
tp1428
tp1429
aa(lp1430
(g2
(g6
S'\x05\x00\x00\x00'
p1431
tp1432
Rp1433
(I0
I17
tp1434
tp1435
a(g2
(g6
S'\x00\x00\x00\x00'
p1436
tp1437
Rp1438
(I17
I61
tp1439
tp1440
a(g2
(g6
S'\x02\x00\x00\x00'
p1441
tp1442
Rp1443
(I61
I96
tp1444
tp1445
aa(lp1446
(g2
(g6
S'\x05\x00\x00\x00'
p1447
tp1448
Rp1449
(I0
I17
tp1450
tp1451
a(g2
(g6
S'\x00\x00\x00\x00'
p1452
tp1453
Rp1454
(I17
I61
tp1455
tp1456
a(g2
(g6
S'\x02\x00\x00\x00'
p1457
tp1458
Rp1459
(I61
I96
tp1460
tp1461
aa(lp1462
(g2
(g6
S'\x05\x00\x00\x00'
p1463
tp1464
Rp1465
(I0
I17
tp1466
tp1467
a(g2
(g6
S'\x00\x00\x00\x00'
p1468
tp1469
Rp1470
(I17
I61
tp1471
tp1472
a(g2
(g6
S'\x02\x00\x00\x00'
p1473
tp1474
Rp1475
(I61
I96
tp1476
tp1477
aa(lp1478
(g2
(g6
S'\x05\x00\x00\x00'
p1479
tp1480
Rp1481
(I0
I15
tp1482
tp1483
a(g2
(g6
S'\x00\x00\x00\x00'
p1484
tp1485
Rp1486
(I15
I61
tp1487
tp1488
a(g2
(g6
S'\x02\x00\x00\x00'
p1489
tp1490
Rp1491
(I61
I96
tp1492
tp1493
aa(lp1494
(g2
(g6
S'\x05\x00\x00\x00'
p1495
tp1496
Rp1497
(I0
I17
tp1498
tp1499
a(g2
(g6
S'\x00\x00\x00\x00'
p1500
tp1501
Rp1502
(I17
I61
tp1503
tp1504
a(g2
(g6
S'\x02\x00\x00\x00'
p1505
tp1506
Rp1507
(I61
I96
tp1508
tp1509
aa(lp1510
(g2
(g6
S'\x05\x00\x00\x00'
p1511
tp1512
Rp1513
(I0
I17
tp1514
tp1515
a(g2
(g6
S'\x00\x00\x00\x00'
p1516
tp1517
Rp1518
(I17
I61
tp1519
tp1520
a(g2
(g6
S'\x02\x00\x00\x00'
p1521
tp1522
Rp1523
(I61
I96
tp1524
tp1525
aa(lp1526
(g2
(g6
S'\x05\x00\x00\x00'
p1527
tp1528
Rp1529
(I0
I17
tp1530
tp1531
a(g2
(g6
S'\x00\x00\x00\x00'
p1532
tp1533
Rp1534
(I17
I61
tp1535
tp1536
a(g2
(g6
S'\x02\x00\x00\x00'
p1537
tp1538
Rp1539
(I61
I96
tp1540
tp1541
aa(lp1542
(g2
(g6
S'\x05\x00\x00\x00'
p1543
tp1544
Rp1545
(I0
I17
tp1546
tp1547
a(g2
(g6
S'\x00\x00\x00\x00'
p1548
tp1549
Rp1550
(I17
I61
tp1551
tp1552
a(g2
(g6
S'\x02\x00\x00\x00'
p1553
tp1554
Rp1555
(I61
I96
tp1556
tp1557
aa.