(lp0
(lp1
(cnumpy.core.multiarray
scalar
p2
(cnumpy
dtype
p3
(S'i4'
p4
I0
I1
tp5
Rp6
(I3
S'<'
p7
NNNI-1
I-1
I0
tp8
bS'\x01\x00\x00\x00'
p9
tp10
Rp11
(I0
I55
tp12
tp13
a(g2
(g6
S'\x01\x00\x00\x00'
p14
tp15
Rp16
(I55
I114
tp17
tp18
aa(lp19
(g2
(g6
S'\x01\x00\x00\x00'
p20
tp21
Rp22
(I0
I56
tp23
tp24
a(g2
(g6
S'\x01\x00\x00\x00'
p25
tp26
Rp27
(I56
I114
tp28
tp29
aa(lp30
(g2
(g6
S'\x01\x00\x00\x00'
p31
tp32
Rp33
(I0
I57
tp34
tp35
a(g2
(g6
S'\x04\x00\x00\x00'
p36
tp37
Rp38
(I57
I84
tp39
tp40
a(g2
(g6
S'\x02\x00\x00\x00'
p41
tp42
Rp43
(I84
I114
tp44
tp45
aa(lp46
(g2
(g6
S'\x01\x00\x00\x00'
p47
tp48
Rp49
(I0
I57
tp50
tp51
a(g2
(g6
S'\x04\x00\x00\x00'
p52
tp53
Rp54
(I57
I87
tp55
tp56
a(g2
(g6
S'\x02\x00\x00\x00'
p57
tp58
Rp59
(I87
I114
tp60
tp61
aa(lp62
(g2
(g6
S'\x01\x00\x00\x00'
p63
tp64
Rp65
(I0
I57
tp66
tp67
a(g2
(g6
S'\x04\x00\x00\x00'
p68
tp69
Rp70
(I57
I84
tp71
tp72
a(g2
(g6
S'\x02\x00\x00\x00'
p73
tp74
Rp75
(I84
I114
tp76
tp77
aa(lp78
(g2
(g6
S'\x01\x00\x00\x00'
p79
tp80
Rp81
(I0
I57
tp82
tp83
a(g2
(g6
S'\x04\x00\x00\x00'
p84
tp85
Rp86
(I57
I86
tp87
tp88
a(g2
(g6
S'\x02\x00\x00\x00'
p89
tp90
Rp91
(I86
I114
tp92
tp93
aa(lp94
(g2
(g6
S'\x01\x00\x00\x00'
p95
tp96
Rp97
(I0
I57
tp98
tp99
a(g2
(g6
S'\x04\x00\x00\x00'
p100
tp101
Rp102
(I57
I87
tp103
tp104
a(g2
(g6
S'\x02\x00\x00\x00'
p105
tp106
Rp107
(I87
I114
tp108
tp109
aa(lp110
(g2
(g6
S'\x01\x00\x00\x00'
p111
tp112
Rp113
(I0
I57
tp114
tp115
a(g2
(g6
S'\x04\x00\x00\x00'
p116
tp117
Rp118
(I57
I85
tp119
tp120
a(g2
(g6
S'\x02\x00\x00\x00'
p121
tp122
Rp123
(I85
I114
tp124
tp125
aa(lp126
(g2
(g6
S'\x01\x00\x00\x00'
p127
tp128
Rp129
(I0
I57
tp130
tp131
a(g2
(g6
S'\x04\x00\x00\x00'
p132
tp133
Rp134
(I57
I87
tp135
tp136
a(g2
(g6
S'\x02\x00\x00\x00'
p137
tp138
Rp139
(I87
I114
tp140
tp141
aa(lp142
(g2
(g6
S'\x01\x00\x00\x00'
p143
tp144
Rp145
(I0
I57
tp146
tp147
a(g2
(g6
S'\x04\x00\x00\x00'
p148
tp149
Rp150
(I57
I87
tp151
tp152
a(g2
(g6
S'\x02\x00\x00\x00'
p153
tp154
Rp155
(I87
I114
tp156
tp157
aa(lp158
(g2
(g6
S'\x01\x00\x00\x00'
p159
tp160
Rp161
(I0
I57
tp162
tp163
a(g2
(g6
S'\x04\x00\x00\x00'
p164
tp165
Rp166
(I57
I87
tp167
tp168
a(g2
(g6
S'\x02\x00\x00\x00'
p169
tp170
Rp171
(I87
I114
tp172
tp173
aa(lp174
(g2
(g6
S'\x01\x00\x00\x00'
p175
tp176
Rp177
(I0
I57
tp178
tp179
a(g2
(g6
S'\x04\x00\x00\x00'
p180
tp181
Rp182
(I57
I86
tp183
tp184
a(g2
(g6
S'\x02\x00\x00\x00'
p185
tp186
Rp187
(I86
I114
tp188
tp189
aa(lp190
(g2
(g6
S'\x01\x00\x00\x00'
p191
tp192
Rp193
(I0
I56
tp194
tp195
a(g2
(g6
S'\x04\x00\x00\x00'
p196
tp197
Rp198
(I56
I88
tp199
tp200
a(g2
(g6
S'\x02\x00\x00\x00'
p201
tp202
Rp203
(I88
I114
tp204
tp205
aa(lp206
(g2
(g6
S'\x01\x00\x00\x00'
p207
tp208
Rp209
(I0
I56
tp210
tp211
a(g2
(g6
S'\x04\x00\x00\x00'
p212
tp213
Rp214
(I56
I86
tp215
tp216
a(g2
(g6
S'\x02\x00\x00\x00'
p217
tp218
Rp219
(I86
I114
tp220
tp221
aa(lp222
(g2
(g6
S'\x01\x00\x00\x00'
p223
tp224
Rp225
(I0
I57
tp226
tp227
a(g2
(g6
S'\x04\x00\x00\x00'
p228
tp229
Rp230
(I57
I89
tp231
tp232
a(g2
(g6
S'\x02\x00\x00\x00'
p233
tp234
Rp235
(I89
I114
tp236
tp237
aa(lp238
(g2
(g6
S'\x01\x00\x00\x00'
p239
tp240
Rp241
(I0
I57
tp242
tp243
a(g2
(g6
S'\x04\x00\x00\x00'
p244
tp245
Rp246
(I57
I86
tp247
tp248
a(g2
(g6
S'\x02\x00\x00\x00'
p249
tp250
Rp251
(I86
I114
tp252
tp253
aa(lp254
(g2
(g6
S'\x01\x00\x00\x00'
p255
tp256
Rp257
(I0
I57
tp258
tp259
a(g2
(g6
S'\x06\x00\x00\x00'
p260
tp261
Rp262
(I57
I77
tp263
tp264
a(g2
(g6
S'\x02\x00\x00\x00'
p265
tp266
Rp267
(I77
I114
tp268
tp269
aa(lp270
(g2
(g6
S'\x01\x00\x00\x00'
p271
tp272
Rp273
(I0
I57
tp274
tp275
a(g2
(g6
S'\x06\x00\x00\x00'
p276
tp277
Rp278
(I57
I78
tp279
tp280
a(g2
(g6
S'\x02\x00\x00\x00'
p281
tp282
Rp283
(I78
I114
tp284
tp285
aa(lp286
(g2
(g6
S'\x01\x00\x00\x00'
p287
tp288
Rp289
(I0
I57
tp290
tp291
a(g2
(g6
S'\x06\x00\x00\x00'
p292
tp293
Rp294
(I57
I79
tp295
tp296
a(g2
(g6
S'\x02\x00\x00\x00'
p297
tp298
Rp299
(I79
I114
tp300
tp301
aa(lp302
(g2
(g6
S'\x01\x00\x00\x00'
p303
tp304
Rp305
(I0
I57
tp306
tp307
a(g2
(g6
S'\x06\x00\x00\x00'
p308
tp309
Rp310
(I57
I78
tp311
tp312
a(g2
(g6
S'\x02\x00\x00\x00'
p313
tp314
Rp315
(I78
I114
tp316
tp317
aa(lp318
(g2
(g6
S'\x01\x00\x00\x00'
p319
tp320
Rp321
(I0
I57
tp322
tp323
a(g2
(g6
S'\x06\x00\x00\x00'
p324
tp325
Rp326
(I57
I78
tp327
tp328
a(g2
(g6
S'\x02\x00\x00\x00'
p329
tp330
Rp331
(I78
I114
tp332
tp333
aa(lp334
(g2
(g6
S'\x01\x00\x00\x00'
p335
tp336
Rp337
(I0
I57
tp338
tp339
a(g2
(g6
S'\x06\x00\x00\x00'
p340
tp341
Rp342
(I57
I79
tp343
tp344
a(g2
(g6
S'\x02\x00\x00\x00'
p345
tp346
Rp347
(I79
I114
tp348
tp349
aa(lp350
(g2
(g6
S'\x01\x00\x00\x00'
p351
tp352
Rp353
(I0
I57
tp354
tp355
a(g2
(g6
S'\x06\x00\x00\x00'
p356
tp357
Rp358
(I57
I77
tp359
tp360
a(g2
(g6
S'\x02\x00\x00\x00'
p361
tp362
Rp363
(I77
I114
tp364
tp365
aa(lp366
(g2
(g6
S'\x01\x00\x00\x00'
p367
tp368
Rp369
(I0
I57
tp370
tp371
a(g2
(g6
S'\x06\x00\x00\x00'
p372
tp373
Rp374
(I57
I79
tp375
tp376
a(g2
(g6
S'\x02\x00\x00\x00'
p377
tp378
Rp379
(I79
I114
tp380
tp381
aa(lp382
(g2
(g6
S'\x01\x00\x00\x00'
p383
tp384
Rp385
(I0
I57
tp386
tp387
a(g2
(g6
S'\x06\x00\x00\x00'
p388
tp389
Rp390
(I57
I78
tp391
tp392
a(g2
(g6
S'\x02\x00\x00\x00'
p393
tp394
Rp395
(I78
I114
tp396
tp397
aa(lp398
(g2
(g6
S'\x01\x00\x00\x00'
p399
tp400
Rp401
(I0
I57
tp402
tp403
a(g2
(g6
S'\x06\x00\x00\x00'
p404
tp405
Rp406
(I57
I79
tp407
tp408
a(g2
(g6
S'\x02\x00\x00\x00'
p409
tp410
Rp411
(I79
I114
tp412
tp413
aa(lp414
(g2
(g6
S'\x01\x00\x00\x00'
p415
tp416
Rp417
(I0
I57
tp418
tp419
a(g2
(g6
S'\x06\x00\x00\x00'
p420
tp421
Rp422
(I57
I78
tp423
tp424
a(g2
(g6
S'\x02\x00\x00\x00'
p425
tp426
Rp427
(I78
I114
tp428
tp429
aa(lp430
(g2
(g6
S'\x01\x00\x00\x00'
p431
tp432
Rp433
(I0
I57
tp434
tp435
a(g2
(g6
S'\x06\x00\x00\x00'
p436
tp437
Rp438
(I57
I78
tp439
tp440
a(g2
(g6
S'\x02\x00\x00\x00'
p441
tp442
Rp443
(I78
I114
tp444
tp445
aa(lp446
(g2
(g6
S'\x01\x00\x00\x00'
p447
tp448
Rp449
(I0
I57
tp450
tp451
a(g2
(g6
S'\x06\x00\x00\x00'
p452
tp453
Rp454
(I57
I77
tp455
tp456
a(g2
(g6
S'\x02\x00\x00\x00'
p457
tp458
Rp459
(I77
I114
tp460
tp461
aa(lp462
(g2
(g6
S'\x01\x00\x00\x00'
p463
tp464
Rp465
(I0
I57
tp466
tp467
a(g2
(g6
S'\x06\x00\x00\x00'
p468
tp469
Rp470
(I57
I78
tp471
tp472
a(g2
(g6
S'\x02\x00\x00\x00'
p473
tp474
Rp475
(I78
I114
tp476
tp477
aa(lp478
(g2
(g6
S'\x01\x00\x00\x00'
p479
tp480
Rp481
(I0
I57
tp482
tp483
a(g2
(g6
S'\x06\x00\x00\x00'
p484
tp485
Rp486
(I57
I77
tp487
tp488
a(g2
(g6
S'\x02\x00\x00\x00'
p489
tp490
Rp491
(I77
I114
tp492
tp493
aa(lp494
(g2
(g6
S'\x01\x00\x00\x00'
p495
tp496
Rp497
(I0
I57
tp498
tp499
a(g2
(g6
S'\x06\x00\x00\x00'
p500
tp501
Rp502
(I57
I79
tp503
tp504
a(g2
(g6
S'\x02\x00\x00\x00'
p505
tp506
Rp507
(I79
I114
tp508
tp509
aa(lp510
(g2
(g6
S'\x01\x00\x00\x00'
p511
tp512
Rp513
(I0
I57
tp514
tp515
a(g2
(g6
S'\x06\x00\x00\x00'
p516
tp517
Rp518
(I57
I78
tp519
tp520
a(g2
(g6
S'\x02\x00\x00\x00'
p521
tp522
Rp523
(I78
I114
tp524
tp525
aa(lp526
(g2
(g6
S'\x01\x00\x00\x00'
p527
tp528
Rp529
(I0
I57
tp530
tp531
a(g2
(g6
S'\x06\x00\x00\x00'
p532
tp533
Rp534
(I57
I78
tp535
tp536
a(g2
(g6
S'\x02\x00\x00\x00'
p537
tp538
Rp539
(I78
I114
tp540
tp541
aa(lp542
(g2
(g6
S'\x01\x00\x00\x00'
p543
tp544
Rp545
(I0
I57
tp546
tp547
a(g2
(g6
S'\x06\x00\x00\x00'
p548
tp549
Rp550
(I57
I78
tp551
tp552
a(g2
(g6
S'\x02\x00\x00\x00'
p553
tp554
Rp555
(I78
I114
tp556
tp557
aa(lp558
(g2
(g6
S'\x01\x00\x00\x00'
p559
tp560
Rp561
(I0
I56
tp562
tp563
a(g2
(g6
S'\x06\x00\x00\x00'
p564
tp565
Rp566
(I56
I77
tp567
tp568
a(g2
(g6
S'\x02\x00\x00\x00'
p569
tp570
Rp571
(I77
I114
tp572
tp573
aa(lp574
(g2
(g6
S'\x01\x00\x00\x00'
p575
tp576
Rp577
(I0
I57
tp578
tp579
a(g2
(g6
S'\x06\x00\x00\x00'
p580
tp581
Rp582
(I57
I78
tp583
tp584
a(g2
(g6
S'\x02\x00\x00\x00'
p585
tp586
Rp587
(I78
I114
tp588
tp589
aa(lp590
(g2
(g6
S'\x01\x00\x00\x00'
p591
tp592
Rp593
(I0
I57
tp594
tp595
a(g2
(g6
S'\x06\x00\x00\x00'
p596
tp597
Rp598
(I57
I78
tp599
tp600
a(g2
(g6
S'\x02\x00\x00\x00'
p601
tp602
Rp603
(I78
I114
tp604
tp605
aa(lp606
(g2
(g6
S'\x01\x00\x00\x00'
p607
tp608
Rp609
(I0
I57
tp610
tp611
a(g2
(g6
S'\x06\x00\x00\x00'
p612
tp613
Rp614
(I57
I78
tp615
tp616
a(g2
(g6
S'\x02\x00\x00\x00'
p617
tp618
Rp619
(I78
I114
tp620
tp621
aa(lp622
(g2
(g6
S'\x01\x00\x00\x00'
p623
tp624
Rp625
(I0
I57
tp626
tp627
a(g2
(g6
S'\x06\x00\x00\x00'
p628
tp629
Rp630
(I57
I78
tp631
tp632
a(g2
(g6
S'\x02\x00\x00\x00'
p633
tp634
Rp635
(I78
I114
tp636
tp637
aa(lp638
(g2
(g6
S'\x01\x00\x00\x00'
p639
tp640
Rp641
(I0
I57
tp642
tp643
a(g2
(g6
S'\x06\x00\x00\x00'
p644
tp645
Rp646
(I57
I78
tp647
tp648
a(g2
(g6
S'\x02\x00\x00\x00'
p649
tp650
Rp651
(I78
I114
tp652
tp653
aa(lp654
(g2
(g6
S'\x01\x00\x00\x00'
p655
tp656
Rp657
(I0
I57
tp658
tp659
a(g2
(g6
S'\x06\x00\x00\x00'
p660
tp661
Rp662
(I57
I78
tp663
tp664
a(g2
(g6
S'\x02\x00\x00\x00'
p665
tp666
Rp667
(I78
I114
tp668
tp669
aa(lp670
(g2
(g6
S'\x01\x00\x00\x00'
p671
tp672
Rp673
(I0
I57
tp674
tp675
a(g2
(g6
S'\x06\x00\x00\x00'
p676
tp677
Rp678
(I57
I78
tp679
tp680
a(g2
(g6
S'\x02\x00\x00\x00'
p681
tp682
Rp683
(I78
I114
tp684
tp685
aa(lp686
(g2
(g6
S'\x01\x00\x00\x00'
p687
tp688
Rp689
(I0
I57
tp690
tp691
a(g2
(g6
S'\x06\x00\x00\x00'
p692
tp693
Rp694
(I57
I78
tp695
tp696
a(g2
(g6
S'\x02\x00\x00\x00'
p697
tp698
Rp699
(I78
I114
tp700
tp701
aa(lp702
(g2
(g6
S'\x01\x00\x00\x00'
p703
tp704
Rp705
(I0
I57
tp706
tp707
a(g2
(g6
S'\x06\x00\x00\x00'
p708
tp709
Rp710
(I57
I78
tp711
tp712
a(g2
(g6
S'\x02\x00\x00\x00'
p713
tp714
Rp715
(I78
I114
tp716
tp717
aa(lp718
(g2
(g6
S'\x01\x00\x00\x00'
p719
tp720
Rp721
(I0
I57
tp722
tp723
a(g2
(g6
S'\x06\x00\x00\x00'
p724
tp725
Rp726
(I57
I78
tp727
tp728
a(g2
(g6
S'\x02\x00\x00\x00'
p729
tp730
Rp731
(I78
I114
tp732
tp733
aa(lp734
(g2
(g6
S'\x01\x00\x00\x00'
p735
tp736
Rp737
(I0
I57
tp738
tp739
a(g2
(g6
S'\x06\x00\x00\x00'
p740
tp741
Rp742
(I57
I78
tp743
tp744
a(g2
(g6
S'\x02\x00\x00\x00'
p745
tp746
Rp747
(I78
I114
tp748
tp749
aa(lp750
(g2
(g6
S'\x01\x00\x00\x00'
p751
tp752
Rp753
(I0
I57
tp754
tp755
a(g2
(g6
S'\x06\x00\x00\x00'
p756
tp757
Rp758
(I57
I78
tp759
tp760
a(g2
(g6
S'\x02\x00\x00\x00'
p761
tp762
Rp763
(I78
I114
tp764
tp765
aa(lp766
(g2
(g6
S'\x01\x00\x00\x00'
p767
tp768
Rp769
(I0
I57
tp770
tp771
a(g2
(g6
S'\x06\x00\x00\x00'
p772
tp773
Rp774
(I57
I78
tp775
tp776
a(g2
(g6
S'\x02\x00\x00\x00'
p777
tp778
Rp779
(I78
I114
tp780
tp781
aa(lp782
(g2
(g6
S'\x01\x00\x00\x00'
p783
tp784
Rp785
(I0
I57
tp786
tp787
a(g2
(g6
S'\x06\x00\x00\x00'
p788
tp789
Rp790
(I57
I78
tp791
tp792
a(g2
(g6
S'\x02\x00\x00\x00'
p793
tp794
Rp795
(I78
I114
tp796
tp797
aa(lp798
(g2
(g6
S'\x01\x00\x00\x00'
p799
tp800
Rp801
(I0
I57
tp802
tp803
a(g2
(g6
S'\x06\x00\x00\x00'
p804
tp805
Rp806
(I57
I79
tp807
tp808
a(g2
(g6
S'\x02\x00\x00\x00'
p809
tp810
Rp811
(I79
I114
tp812
tp813
aa(lp814
(g2
(g6
S'\x01\x00\x00\x00'
p815
tp816
Rp817
(I0
I56
tp818
tp819
a(g2
(g6
S'\x06\x00\x00\x00'
p820
tp821
Rp822
(I56
I78
tp823
tp824
a(g2
(g6
S'\x02\x00\x00\x00'
p825
tp826
Rp827
(I78
I114
tp828
tp829
aa(lp830
(g2
(g6
S'\x01\x00\x00\x00'
p831
tp832
Rp833
(I0
I57
tp834
tp835
a(g2
(g6
S'\x06\x00\x00\x00'
p836
tp837
Rp838
(I57
I77
tp839
tp840
a(g2
(g6
S'\x02\x00\x00\x00'
p841
tp842
Rp843
(I77
I114
tp844
tp845
aa(lp846
(g2
(g6
S'\x01\x00\x00\x00'
p847
tp848
Rp849
(I0
I57
tp850
tp851
a(g2
(g6
S'\x06\x00\x00\x00'
p852
tp853
Rp854
(I57
I78
tp855
tp856
a(g2
(g6
S'\x02\x00\x00\x00'
p857
tp858
Rp859
(I78
I114
tp860
tp861
aa(lp862
(g2
(g6
S'\x01\x00\x00\x00'
p863
tp864
Rp865
(I0
I57
tp866
tp867
a(g2
(g6
S'\x06\x00\x00\x00'
p868
tp869
Rp870
(I57
I79
tp871
tp872
a(g2
(g6
S'\x02\x00\x00\x00'
p873
tp874
Rp875
(I79
I114
tp876
tp877
aa(lp878
(g2
(g6
S'\x01\x00\x00\x00'
p879
tp880
Rp881
(I0
I57
tp882
tp883
a(g2
(g6
S'\x06\x00\x00\x00'
p884
tp885
Rp886
(I57
I78
tp887
tp888
a(g2
(g6
S'\x02\x00\x00\x00'
p889
tp890
Rp891
(I78
I114
tp892
tp893
aa(lp894
(g2
(g6
S'\x01\x00\x00\x00'
p895
tp896
Rp897
(I0
I57
tp898
tp899
a(g2
(g6
S'\x06\x00\x00\x00'
p900
tp901
Rp902
(I57
I78
tp903
tp904
a(g2
(g6
S'\x02\x00\x00\x00'
p905
tp906
Rp907
(I78
I114
tp908
tp909
aa(lp910
(g2
(g6
S'\x01\x00\x00\x00'
p911
tp912
Rp913
(I0
I57
tp914
tp915
a(g2
(g6
S'\x06\x00\x00\x00'
p916
tp917
Rp918
(I57
I77
tp919
tp920
a(g2
(g6
S'\x02\x00\x00\x00'
p921
tp922
Rp923
(I77
I114
tp924
tp925
aa(lp926
(g2
(g6
S'\x01\x00\x00\x00'
p927
tp928
Rp929
(I0
I57
tp930
tp931
a(g2
(g6
S'\x06\x00\x00\x00'
p932
tp933
Rp934
(I57
I79
tp935
tp936
a(g2
(g6
S'\x02\x00\x00\x00'
p937
tp938
Rp939
(I79
I114
tp940
tp941
aa(lp942
(g2
(g6
S'\x01\x00\x00\x00'
p943
tp944
Rp945
(I0
I57
tp946
tp947
a(g2
(g6
S'\x06\x00\x00\x00'
p948
tp949
Rp950
(I57
I78
tp951
tp952
a(g2
(g6
S'\x02\x00\x00\x00'
p953
tp954
Rp955
(I78
I114
tp956
tp957
aa(lp958
(g2
(g6
S'\x01\x00\x00\x00'
p959
tp960
Rp961
(I0
I57
tp962
tp963
a(g2
(g6
S'\x06\x00\x00\x00'
p964
tp965
Rp966
(I57
I78
tp967
tp968
a(g2
(g6
S'\x02\x00\x00\x00'
p969
tp970
Rp971
(I78
I114
tp972
tp973
aa(lp974
(g2
(g6
S'\x01\x00\x00\x00'
p975
tp976
Rp977
(I0
I57
tp978
tp979
a(g2
(g6
S'\x06\x00\x00\x00'
p980
tp981
Rp982
(I57
I79
tp983
tp984
a(g2
(g6
S'\x02\x00\x00\x00'
p985
tp986
Rp987
(I79
I114
tp988
tp989
aa(lp990
(g2
(g6
S'\x01\x00\x00\x00'
p991
tp992
Rp993
(I0
I57
tp994
tp995
a(g2
(g6
S'\x06\x00\x00\x00'
p996
tp997
Rp998
(I57
I78
tp999
tp1000
a(g2
(g6
S'\x02\x00\x00\x00'
p1001
tp1002
Rp1003
(I78
I114
tp1004
tp1005
aa(lp1006
(g2
(g6
S'\x01\x00\x00\x00'
p1007
tp1008
Rp1009
(I0
I57
tp1010
tp1011
a(g2
(g6
S'\x06\x00\x00\x00'
p1012
tp1013
Rp1014
(I57
I78
tp1015
tp1016
a(g2
(g6
S'\x02\x00\x00\x00'
p1017
tp1018
Rp1019
(I78
I114
tp1020
tp1021
aa(lp1022
(g2
(g6
S'\x01\x00\x00\x00'
p1023
tp1024
Rp1025
(I0
I57
tp1026
tp1027
a(g2
(g6
S'\x06\x00\x00\x00'
p1028
tp1029
Rp1030
(I57
I78
tp1031
tp1032
a(g2
(g6
S'\x02\x00\x00\x00'
p1033
tp1034
Rp1035
(I78
I114
tp1036
tp1037
aa(lp1038
(g2
(g6
S'\x01\x00\x00\x00'
p1039
tp1040
Rp1041
(I0
I57
tp1042
tp1043
a(g2
(g6
S'\x06\x00\x00\x00'
p1044
tp1045
Rp1046
(I57
I78
tp1047
tp1048
a(g2
(g6
S'\x02\x00\x00\x00'
p1049
tp1050
Rp1051
(I78
I114
tp1052
tp1053
aa(lp1054
(g2
(g6
S'\x01\x00\x00\x00'
p1055
tp1056
Rp1057
(I0
I57
tp1058
tp1059
a(g2
(g6
S'\x06\x00\x00\x00'
p1060
tp1061
Rp1062
(I57
I78
tp1063
tp1064
a(g2
(g6
S'\x02\x00\x00\x00'
p1065
tp1066
Rp1067
(I78
I114
tp1068
tp1069
aa(lp1070
(g2
(g6
S'\x01\x00\x00\x00'
p1071
tp1072
Rp1073
(I0
I57
tp1074
tp1075
a(g2
(g6
S'\x06\x00\x00\x00'
p1076
tp1077
Rp1078
(I57
I78
tp1079
tp1080
a(g2
(g6
S'\x02\x00\x00\x00'
p1081
tp1082
Rp1083
(I78
I114
tp1084
tp1085
aa(lp1086
(g2
(g6
S'\x01\x00\x00\x00'
p1087
tp1088
Rp1089
(I0
I57
tp1090
tp1091
a(g2
(g6
S'\x06\x00\x00\x00'
p1092
tp1093
Rp1094
(I57
I78
tp1095
tp1096
a(g2
(g6
S'\x02\x00\x00\x00'
p1097
tp1098
Rp1099
(I78
I114
tp1100
tp1101
aa(lp1102
(g2
(g6
S'\x01\x00\x00\x00'
p1103
tp1104
Rp1105
(I0
I57
tp1106
tp1107
a(g2
(g6
S'\x06\x00\x00\x00'
p1108
tp1109
Rp1110
(I57
I78
tp1111
tp1112
a(g2
(g6
S'\x02\x00\x00\x00'
p1113
tp1114
Rp1115
(I78
I114
tp1116
tp1117
aa(lp1118
(g2
(g6
S'\x01\x00\x00\x00'
p1119
tp1120
Rp1121
(I0
I57
tp1122
tp1123
a(g2
(g6
S'\x06\x00\x00\x00'
p1124
tp1125
Rp1126
(I57
I78
tp1127
tp1128
a(g2
(g6
S'\x02\x00\x00\x00'
p1129
tp1130
Rp1131
(I78
I114
tp1132
tp1133
aa(lp1134
(g2
(g6
S'\x01\x00\x00\x00'
p1135
tp1136
Rp1137
(I0
I57
tp1138
tp1139
a(g2
(g6
S'\x06\x00\x00\x00'
p1140
tp1141
Rp1142
(I57
I78
tp1143
tp1144
a(g2
(g6
S'\x02\x00\x00\x00'
p1145
tp1146
Rp1147
(I78
I114
tp1148
tp1149
aa(lp1150
(g2
(g6
S'\x01\x00\x00\x00'
p1151
tp1152
Rp1153
(I0
I57
tp1154
tp1155
a(g2
(g6
S'\x06\x00\x00\x00'
p1156
tp1157
Rp1158
(I57
I78
tp1159
tp1160
a(g2
(g6
S'\x02\x00\x00\x00'
p1161
tp1162
Rp1163
(I78
I114
tp1164
tp1165
aa(lp1166
(g2
(g6
S'\x01\x00\x00\x00'
p1167
tp1168
Rp1169
(I0
I57
tp1170
tp1171
a(g2
(g6
S'\x06\x00\x00\x00'
p1172
tp1173
Rp1174
(I57
I78
tp1175
tp1176
a(g2
(g6
S'\x02\x00\x00\x00'
p1177
tp1178
Rp1179
(I78
I114
tp1180
tp1181
aa(lp1182
(g2
(g6
S'\x01\x00\x00\x00'
p1183
tp1184
Rp1185
(I0
I57
tp1186
tp1187
a(g2
(g6
S'\x06\x00\x00\x00'
p1188
tp1189
Rp1190
(I57
I78
tp1191
tp1192
a(g2
(g6
S'\x02\x00\x00\x00'
p1193
tp1194
Rp1195
(I78
I114
tp1196
tp1197
aa(lp1198
(g2
(g6
S'\x01\x00\x00\x00'
p1199
tp1200
Rp1201
(I0
I57
tp1202
tp1203
a(g2
(g6
S'\x06\x00\x00\x00'
p1204
tp1205
Rp1206
(I57
I78
tp1207
tp1208
a(g2
(g6
S'\x02\x00\x00\x00'
p1209
tp1210
Rp1211
(I78
I114
tp1212
tp1213
aa(lp1214
(g2
(g6
S'\x01\x00\x00\x00'
p1215
tp1216
Rp1217
(I0
I56
tp1218
tp1219
a(g2
(g6
S'\x06\x00\x00\x00'
p1220
tp1221
Rp1222
(I56
I78
tp1223
tp1224
a(g2
(g6
S'\x02\x00\x00\x00'
p1225
tp1226
Rp1227
(I78
I114
tp1228
tp1229
aa(lp1230
(g2
(g6
S'\x01\x00\x00\x00'
p1231
tp1232
Rp1233
(I0
I57
tp1234
tp1235
a(g2
(g6
S'\x06\x00\x00\x00'
p1236
tp1237
Rp1238
(I57
I77
tp1239
tp1240
a(g2
(g6
S'\x02\x00\x00\x00'
p1241
tp1242
Rp1243
(I77
I114
tp1244
tp1245
aa(lp1246
(g2
(g6
S'\x01\x00\x00\x00'
p1247
tp1248
Rp1249
(I0
I57
tp1250
tp1251
a(g2
(g6
S'\x06\x00\x00\x00'
p1252
tp1253
Rp1254
(I57
I79
tp1255
tp1256
a(g2
(g6
S'\x02\x00\x00\x00'
p1257
tp1258
Rp1259
(I79
I114
tp1260
tp1261
aa(lp1262
(g2
(g6
S'\x01\x00\x00\x00'
p1263
tp1264
Rp1265
(I0
I57
tp1266
tp1267
a(g2
(g6
S'\x06\x00\x00\x00'
p1268
tp1269
Rp1270
(I57
I78
tp1271
tp1272
a(g2
(g6
S'\x02\x00\x00\x00'
p1273
tp1274
Rp1275
(I78
I114
tp1276
tp1277
aa(lp1278
(g2
(g6
S'\x01\x00\x00\x00'
p1279
tp1280
Rp1281
(I0
I57
tp1282
tp1283
a(g2
(g6
S'\x06\x00\x00\x00'
p1284
tp1285
Rp1286
(I57
I78
tp1287
tp1288
a(g2
(g6
S'\x02\x00\x00\x00'
p1289
tp1290
Rp1291
(I78
I114
tp1292
tp1293
aa(lp1294
(g2
(g6
S'\x01\x00\x00\x00'
p1295
tp1296
Rp1297
(I0
I57
tp1298
tp1299
a(g2
(g6
S'\x06\x00\x00\x00'
p1300
tp1301
Rp1302
(I57
I78
tp1303
tp1304
a(g2
(g6
S'\x02\x00\x00\x00'
p1305
tp1306
Rp1307
(I78
I114
tp1308
tp1309
aa(lp1310
(g2
(g6
S'\x01\x00\x00\x00'
p1311
tp1312
Rp1313
(I0
I57
tp1314
tp1315
a(g2
(g6
S'\x06\x00\x00\x00'
p1316
tp1317
Rp1318
(I57
I78
tp1319
tp1320
a(g2
(g6
S'\x02\x00\x00\x00'
p1321
tp1322
Rp1323
(I78
I114
tp1324
tp1325
aa(lp1326
(g2
(g6
S'\x01\x00\x00\x00'
p1327
tp1328
Rp1329
(I0
I57
tp1330
tp1331
a(g2
(g6
S'\x06\x00\x00\x00'
p1332
tp1333
Rp1334
(I57
I78
tp1335
tp1336
a(g2
(g6
S'\x02\x00\x00\x00'
p1337
tp1338
Rp1339
(I78
I114
tp1340
tp1341
aa(lp1342
(g2
(g6
S'\x01\x00\x00\x00'
p1343
tp1344
Rp1345
(I0
I57
tp1346
tp1347
a(g2
(g6
S'\x06\x00\x00\x00'
p1348
tp1349
Rp1350
(I57
I79
tp1351
tp1352
a(g2
(g6
S'\x02\x00\x00\x00'
p1353
tp1354
Rp1355
(I79
I114
tp1356
tp1357
aa(lp1358
(g2
(g6
S'\x01\x00\x00\x00'
p1359
tp1360
Rp1361
(I0
I57
tp1362
tp1363
a(g2
(g6
S'\x06\x00\x00\x00'
p1364
tp1365
Rp1366
(I57
I79
tp1367
tp1368
a(g2
(g6
S'\x02\x00\x00\x00'
p1369
tp1370
Rp1371
(I79
I114
tp1372
tp1373
aa(lp1374
(g2
(g6
S'\x01\x00\x00\x00'
p1375
tp1376
Rp1377
(I0
I57
tp1378
tp1379
a(g2
(g6
S'\x06\x00\x00\x00'
p1380
tp1381
Rp1382
(I57
I79
tp1383
tp1384
a(g2
(g6
S'\x02\x00\x00\x00'
p1385
tp1386
Rp1387
(I79
I114
tp1388
tp1389
aa(lp1390
(g2
(g6
S'\x05\x00\x00\x00'
p1391
tp1392
Rp1393
(I0
I16
tp1394
tp1395
a(g2
(g6
S'\x06\x00\x00\x00'
p1396
tp1397
Rp1398
(I16
I43
tp1399
tp1400
a(g2
(g6
S'\x00\x00\x00\x00'
p1401
tp1402
Rp1403
(I43
I83
tp1404
tp1405
a(g2
(g6
S'\x02\x00\x00\x00'
p1406
tp1407
Rp1408
(I83
I114
tp1409
tp1410
aa(lp1411
(g2
(g6
S'\x05\x00\x00\x00'
p1412
tp1413
Rp1414
(I0
I16
tp1415
tp1416
a(g2
(g6
S'\x06\x00\x00\x00'
p1417
tp1418
Rp1419
(I16
I42
tp1420
tp1421
a(g2
(g6
S'\x00\x00\x00\x00'
p1422
tp1423
Rp1424
(I42
I83
tp1425
tp1426
a(g2
(g6
S'\x02\x00\x00\x00'
p1427
tp1428
Rp1429
(I83
I114
tp1430
tp1431
aa(lp1432
(g2
(g6
S'\x05\x00\x00\x00'
p1433
tp1434
Rp1435
(I0
I15
tp1436
tp1437
a(g2
(g6
S'\x06\x00\x00\x00'
p1438
tp1439
Rp1440
(I15
I42
tp1441
tp1442
a(g2
(g6
S'\x00\x00\x00\x00'
p1443
tp1444
Rp1445
(I42
I83
tp1446
tp1447
a(g2
(g6
S'\x02\x00\x00\x00'
p1448
tp1449
Rp1450
(I83
I114
tp1451
tp1452
aa(lp1453
(g2
(g6
S'\x01\x00\x00\x00'
p1454
tp1455
Rp1456
(I0
I57
tp1457
tp1458
a(g2
(g6
S'\x04\x00\x00\x00'
p1459
tp1460
Rp1461
(I57
I92
tp1462
tp1463
a(g2
(g6
S'\x02\x00\x00\x00'
p1464
tp1465
Rp1466
(I92
I114
tp1467
tp1468
aa(lp1469
(g2
(g6
S'\x01\x00\x00\x00'
p1470
tp1471
Rp1472
(I0
I57
tp1473
tp1474
a(g2
(g6
S'\x04\x00\x00\x00'
p1475
tp1476
Rp1477
(I57
I88
tp1478
tp1479
a(g2
(g6
S'\x02\x00\x00\x00'
p1480
tp1481
Rp1482
(I88
I114
tp1483
tp1484
aa(lp1485
(g2
(g6
S'\x01\x00\x00\x00'
p1486
tp1487
Rp1488
(I0
I57
tp1489
tp1490
a(g2
(g6
S'\x04\x00\x00\x00'
p1491
tp1492
Rp1493
(I57
I88
tp1494
tp1495
a(g2
(g6
S'\x02\x00\x00\x00'
p1496
tp1497
Rp1498
(I88
I114
tp1499
tp1500
aa(lp1501
(g2
(g6
S'\x01\x00\x00\x00'
p1502
tp1503
Rp1504
(I0
I57
tp1505
tp1506
a(g2
(g6
S'\x04\x00\x00\x00'
p1507
tp1508
Rp1509
(I57
I89
tp1510
tp1511
a(g2
(g6
S'\x02\x00\x00\x00'
p1512
tp1513
Rp1514
(I89
I114
tp1515
tp1516
aa(lp1517
(g2
(g6
S'\x01\x00\x00\x00'
p1518
tp1519
Rp1520
(I0
I57
tp1521
tp1522
a(g2
(g6
S'\x04\x00\x00\x00'
p1523
tp1524
Rp1525
(I57
I89
tp1526
tp1527
a(g2
(g6
S'\x02\x00\x00\x00'
p1528
tp1529
Rp1530
(I89
I114
tp1531
tp1532
aa(lp1533
(g2
(g6
S'\x01\x00\x00\x00'
p1534
tp1535
Rp1536
(I0
I57
tp1537
tp1538
a(g2
(g6
S'\x04\x00\x00\x00'
p1539
tp1540
Rp1541
(I57
I86
tp1542
tp1543
a(g2
(g6
S'\x02\x00\x00\x00'
p1544
tp1545
Rp1546
(I86
I114
tp1547
tp1548
aa(lp1549
(g2
(g6
S'\x01\x00\x00\x00'
p1550
tp1551
Rp1552
(I0
I57
tp1553
tp1554
a(g2
(g6
S'\x04\x00\x00\x00'
p1555
tp1556
Rp1557
(I57
I94
tp1558
tp1559
a(g2
(g6
S'\x02\x00\x00\x00'
p1560
tp1561
Rp1562
(I94
I114
tp1563
tp1564
aa(lp1565
(g2
(g6
S'\x01\x00\x00\x00'
p1566
tp1567
Rp1568
(I0
I56
tp1569
tp1570
a(g2
(g6
S'\x04\x00\x00\x00'
p1571
tp1572
Rp1573
(I56
I91
tp1574
tp1575
a(g2
(g6
S'\x02\x00\x00\x00'
p1576
tp1577
Rp1578
(I91
I114
tp1579
tp1580
aa(lp1581
(g2
(g6
S'\x01\x00\x00\x00'
p1582
tp1583
Rp1584
(I0
I57
tp1585
tp1586
a(g2
(g6
S'\x04\x00\x00\x00'
p1587
tp1588
Rp1589
(I57
I89
tp1590
tp1591
a(g2
(g6
S'\x02\x00\x00\x00'
p1592
tp1593
Rp1594
(I89
I114
tp1595
tp1596
aa(lp1597
(g2
(g6
S'\x01\x00\x00\x00'
p1598
tp1599
Rp1600
(I0
I57
tp1601
tp1602
a(g2
(g6
S'\x04\x00\x00\x00'
p1603
tp1604
Rp1605
(I57
I90
tp1606
tp1607
a(g2
(g6
S'\x02\x00\x00\x00'
p1608
tp1609
Rp1610
(I90
I114
tp1611
tp1612
aa.