(lp0
(lp1
(cnumpy.core.multiarray
scalar
p2
(cnumpy
dtype
p3
(S'i4'
p4
I0
I1
tp5
Rp6
(I3
S'<'
p7
NNNI-1
I-1
I0
tp8
bS'\x01\x00\x00\x00'
p9
tp10
Rp11
(I0
I60
tp12
tp13
a(g2
(g6
S'\x01\x00\x00\x00'
p14
tp15
Rp16
(I60
I120
tp17
tp18
a(g2
(g6
S'\x04\x00\x00\x00'
p19
tp20
Rp21
(I120
I122
tp22
tp23
aa(lp24
(g2
(g6
S'\x04\x00\x00\x00'
p25
tp26
Rp27
(I0
I36
tp28
tp29
a(g2
(g6
S'\x04\x00\x00\x00'
p30
tp31
Rp32
(I36
I64
tp33
tp34
a(g2
(g6
S'\x01\x00\x00\x00'
p35
tp36
Rp37
(I64
I122
tp38
tp39
aa(lp40
(g2
(g6
S'\x04\x00\x00\x00'
p41
tp42
Rp43
(I0
I43
tp44
tp45
a(g2
(g6
S'\x04\x00\x00\x00'
p46
tp47
Rp48
(I43
I78
tp49
tp50
a(g2
(g6
S'\x02\x00\x00\x00'
p51
tp52
Rp53
(I78
I122
tp54
tp55
aa(lp56
(g2
(g6
S'\x04\x00\x00\x00'
p57
tp58
Rp59
(I0
I34
tp60
tp61
a(g2
(g6
S'\x06\x00\x00\x00'
p62
tp63
Rp64
(I34
I63
tp65
tp66
a(g2
(g6
S'\x01\x00\x00\x00'
p67
tp68
Rp69
(I63
I122
tp70
tp71
aa(lp72
(g2
(g6
S'\x04\x00\x00\x00'
p73
tp74
Rp75
(I0
I31
tp76
tp77
a(g2
(g6
S'\x06\x00\x00\x00'
p78
tp79
Rp80
(I31
I63
tp81
tp82
a(g2
(g6
S'\x01\x00\x00\x00'
p83
tp84
Rp85
(I63
I122
tp86
tp87
aa(lp88
(g2
(g6
S'\x04\x00\x00\x00'
p89
tp90
Rp91
(I0
I29
tp92
tp93
a(g2
(g6
S'\x06\x00\x00\x00'
p94
tp95
Rp96
(I29
I63
tp97
tp98
a(g2
(g6
S'\x01\x00\x00\x00'
p99
tp100
Rp101
(I63
I122
tp102
tp103
aa(lp104
(g2
(g6
S'\x04\x00\x00\x00'
p105
tp106
Rp107
(I0
I32
tp108
tp109
a(g2
(g6
S'\x06\x00\x00\x00'
p110
tp111
Rp112
(I32
I63
tp113
tp114
a(g2
(g6
S'\x01\x00\x00\x00'
p115
tp116
Rp117
(I63
I122
tp118
tp119
aa(lp120
(g2
(g6
S'\x04\x00\x00\x00'
p121
tp122
Rp123
(I0
I38
tp124
tp125
a(g2
(g6
S'\x04\x00\x00\x00'
p126
tp127
Rp128
(I38
I73
tp129
tp130
a(g2
(g6
S'\x01\x00\x00\x00'
p131
tp132
Rp133
(I73
I122
tp134
tp135
aa(lp136
(g2
(g6
S'\x04\x00\x00\x00'
p137
tp138
Rp139
(I0
I38
tp140
tp141
a(g2
(g6
S'\x04\x00\x00\x00'
p142
tp143
Rp144
(I38
I71
tp145
tp146
a(g2
(g6
S'\x01\x00\x00\x00'
p147
tp148
Rp149
(I71
I122
tp150
tp151
aa(lp152
(g2
(g6
S'\x04\x00\x00\x00'
p153
tp154
Rp155
(I0
I38
tp156
tp157
a(g2
(g6
S'\x04\x00\x00\x00'
p158
tp159
Rp160
(I38
I73
tp161
tp162
a(g2
(g6
S'\x01\x00\x00\x00'
p163
tp164
Rp165
(I73
I122
tp166
tp167
aa(lp168
(g2
(g6
S'\x04\x00\x00\x00'
p169
tp170
Rp171
(I0
I38
tp172
tp173
a(g2
(g6
S'\x04\x00\x00\x00'
p174
tp175
Rp176
(I38
I71
tp177
tp178
a(g2
(g6
S'\x01\x00\x00\x00'
p179
tp180
Rp181
(I71
I122
tp182
tp183
aa(lp184
(g2
(g6
S'\x04\x00\x00\x00'
p185
tp186
Rp187
(I0
I38
tp188
tp189
a(g2
(g6
S'\x04\x00\x00\x00'
p190
tp191
Rp192
(I38
I72
tp193
tp194
a(g2
(g6
S'\x01\x00\x00\x00'
p195
tp196
Rp197
(I72
I122
tp198
tp199
aa(lp200
(g2
(g6
S'\x04\x00\x00\x00'
p201
tp202
Rp203
(I0
I38
tp204
tp205
a(g2
(g6
S'\x04\x00\x00\x00'
p206
tp207
Rp208
(I38
I73
tp209
tp210
a(g2
(g6
S'\x01\x00\x00\x00'
p211
tp212
Rp213
(I73
I122
tp214
tp215
aa(lp216
(g2
(g6
S'\x04\x00\x00\x00'
p217
tp218
Rp219
(I0
I30
tp220
tp221
a(g2
(g6
S'\x06\x00\x00\x00'
p222
tp223
Rp224
(I30
I64
tp225
tp226
a(g2
(g6
S'\x01\x00\x00\x00'
p227
tp228
Rp229
(I64
I122
tp230
tp231
aa(lp232
(g2
(g6
S'\x04\x00\x00\x00'
p233
tp234
Rp235
(I0
I32
tp236
tp237
a(g2
(g6
S'\x06\x00\x00\x00'
p238
tp239
Rp240
(I32
I62
tp241
tp242
a(g2
(g6
S'\x01\x00\x00\x00'
p243
tp244
Rp245
(I62
I122
tp246
tp247
aa(lp248
(g2
(g6
S'\x04\x00\x00\x00'
p249
tp250
Rp251
(I0
I38
tp252
tp253
a(g2
(g6
S'\x04\x00\x00\x00'
p254
tp255
Rp256
(I38
I75
tp257
tp258
a(g2
(g6
S'\x01\x00\x00\x00'
p259
tp260
Rp261
(I75
I122
tp262
tp263
aa(lp264
(g2
(g6
S'\x04\x00\x00\x00'
p265
tp266
Rp267
(I0
I38
tp268
tp269
a(g2
(g6
S'\x04\x00\x00\x00'
p270
tp271
Rp272
(I38
I70
tp273
tp274
a(g2
(g6
S'\x01\x00\x00\x00'
p275
tp276
Rp277
(I70
I122
tp278
tp279
aa(lp280
(g2
(g6
S'\x04\x00\x00\x00'
p281
tp282
Rp283
(I0
I38
tp284
tp285
a(g2
(g6
S'\x04\x00\x00\x00'
p286
tp287
Rp288
(I38
I70
tp289
tp290
a(g2
(g6
S'\x01\x00\x00\x00'
p291
tp292
Rp293
(I70
I122
tp294
tp295
aa(lp296
(g2
(g6
S'\x04\x00\x00\x00'
p297
tp298
Rp299
(I0
I38
tp300
tp301
a(g2
(g6
S'\x06\x00\x00\x00'
p302
tp303
Rp304
(I38
I63
tp305
tp306
a(g2
(g6
S'\x01\x00\x00\x00'
p307
tp308
Rp309
(I63
I122
tp310
tp311
aa(lp312
(g2
(g6
S'\x04\x00\x00\x00'
p313
tp314
Rp315
(I0
I38
tp316
tp317
a(g2
(g6
S'\x06\x00\x00\x00'
p318
tp319
Rp320
(I38
I63
tp321
tp322
a(g2
(g6
S'\x01\x00\x00\x00'
p323
tp324
Rp325
(I63
I122
tp326
tp327
aa(lp328
(g2
(g6
S'\x04\x00\x00\x00'
p329
tp330
Rp331
(I0
I38
tp332
tp333
a(g2
(g6
S'\x06\x00\x00\x00'
p334
tp335
Rp336
(I38
I63
tp337
tp338
a(g2
(g6
S'\x01\x00\x00\x00'
p339
tp340
Rp341
(I63
I122
tp342
tp343
aa(lp344
(g2
(g6
S'\x04\x00\x00\x00'
p345
tp346
Rp347
(I0
I38
tp348
tp349
a(g2
(g6
S'\x06\x00\x00\x00'
p350
tp351
Rp352
(I38
I64
tp353
tp354
a(g2
(g6
S'\x01\x00\x00\x00'
p355
tp356
Rp357
(I64
I122
tp358
tp359
aa(lp360
(g2
(g6
S'\x04\x00\x00\x00'
p361
tp362
Rp363
(I0
I36
tp364
tp365
a(g2
(g6
S'\x06\x00\x00\x00'
p366
tp367
Rp368
(I36
I62
tp369
tp370
a(g2
(g6
S'\x01\x00\x00\x00'
p371
tp372
Rp373
(I62
I122
tp374
tp375
aa(lp376
(g2
(g6
S'\x04\x00\x00\x00'
p377
tp378
Rp379
(I0
I38
tp380
tp381
a(g2
(g6
S'\x06\x00\x00\x00'
p382
tp383
Rp384
(I38
I64
tp385
tp386
a(g2
(g6
S'\x01\x00\x00\x00'
p387
tp388
Rp389
(I64
I122
tp390
tp391
aa(lp392
(g2
(g6
S'\x04\x00\x00\x00'
p393
tp394
Rp395
(I0
I38
tp396
tp397
a(g2
(g6
S'\x06\x00\x00\x00'
p398
tp399
Rp400
(I38
I63
tp401
tp402
a(g2
(g6
S'\x01\x00\x00\x00'
p403
tp404
Rp405
(I63
I122
tp406
tp407
aa(lp408
(g2
(g6
S'\x04\x00\x00\x00'
p409
tp410
Rp411
(I0
I38
tp412
tp413
a(g2
(g6
S'\x06\x00\x00\x00'
p414
tp415
Rp416
(I38
I63
tp417
tp418
a(g2
(g6
S'\x01\x00\x00\x00'
p419
tp420
Rp421
(I63
I122
tp422
tp423
aa(lp424
(g2
(g6
S'\x04\x00\x00\x00'
p425
tp426
Rp427
(I0
I38
tp428
tp429
a(g2
(g6
S'\x06\x00\x00\x00'
p430
tp431
Rp432
(I38
I64
tp433
tp434
a(g2
(g6
S'\x01\x00\x00\x00'
p435
tp436
Rp437
(I64
I122
tp438
tp439
aa(lp440
(g2
(g6
S'\x04\x00\x00\x00'
p441
tp442
Rp443
(I0
I38
tp444
tp445
a(g2
(g6
S'\x06\x00\x00\x00'
p446
tp447
Rp448
(I38
I63
tp449
tp450
a(g2
(g6
S'\x01\x00\x00\x00'
p451
tp452
Rp453
(I63
I122
tp454
tp455
aa(lp456
(g2
(g6
S'\x04\x00\x00\x00'
p457
tp458
Rp459
(I0
I38
tp460
tp461
a(g2
(g6
S'\x06\x00\x00\x00'
p462
tp463
Rp464
(I38
I63
tp465
tp466
a(g2
(g6
S'\x01\x00\x00\x00'
p467
tp468
Rp469
(I63
I122
tp470
tp471
aa(lp472
(g2
(g6
S'\x04\x00\x00\x00'
p473
tp474
Rp475
(I0
I37
tp476
tp477
a(g2
(g6
S'\x06\x00\x00\x00'
p478
tp479
Rp480
(I37
I63
tp481
tp482
a(g2
(g6
S'\x01\x00\x00\x00'
p483
tp484
Rp485
(I63
I122
tp486
tp487
aa(lp488
(g2
(g6
S'\x04\x00\x00\x00'
p489
tp490
Rp491
(I0
I38
tp492
tp493
a(g2
(g6
S'\x06\x00\x00\x00'
p494
tp495
Rp496
(I38
I63
tp497
tp498
a(g2
(g6
S'\x01\x00\x00\x00'
p499
tp500
Rp501
(I63
I122
tp502
tp503
aa(lp504
(g2
(g6
S'\x04\x00\x00\x00'
p505
tp506
Rp507
(I0
I38
tp508
tp509
a(g2
(g6
S'\x06\x00\x00\x00'
p510
tp511
Rp512
(I38
I63
tp513
tp514
a(g2
(g6
S'\x01\x00\x00\x00'
p515
tp516
Rp517
(I63
I122
tp518
tp519
aa(lp520
(g2
(g6
S'\x04\x00\x00\x00'
p521
tp522
Rp523
(I0
I37
tp524
tp525
a(g2
(g6
S'\x06\x00\x00\x00'
p526
tp527
Rp528
(I37
I63
tp529
tp530
a(g2
(g6
S'\x01\x00\x00\x00'
p531
tp532
Rp533
(I63
I122
tp534
tp535
aa(lp536
(g2
(g6
S'\x04\x00\x00\x00'
p537
tp538
Rp539
(I0
I38
tp540
tp541
a(g2
(g6
S'\x06\x00\x00\x00'
p542
tp543
Rp544
(I38
I63
tp545
tp546
a(g2
(g6
S'\x01\x00\x00\x00'
p547
tp548
Rp549
(I63
I122
tp550
tp551
aa(lp552
(g2
(g6
S'\x04\x00\x00\x00'
p553
tp554
Rp555
(I0
I38
tp556
tp557
a(g2
(g6
S'\x06\x00\x00\x00'
p558
tp559
Rp560
(I38
I63
tp561
tp562
a(g2
(g6
S'\x01\x00\x00\x00'
p563
tp564
Rp565
(I63
I122
tp566
tp567
aa(lp568
(g2
(g6
S'\x04\x00\x00\x00'
p569
tp570
Rp571
(I0
I38
tp572
tp573
a(g2
(g6
S'\x06\x00\x00\x00'
p574
tp575
Rp576
(I38
I64
tp577
tp578
a(g2
(g6
S'\x01\x00\x00\x00'
p579
tp580
Rp581
(I64
I122
tp582
tp583
aa(lp584
(g2
(g6
S'\x04\x00\x00\x00'
p585
tp586
Rp587
(I0
I38
tp588
tp589
a(g2
(g6
S'\x06\x00\x00\x00'
p590
tp591
Rp592
(I38
I63
tp593
tp594
a(g2
(g6
S'\x01\x00\x00\x00'
p595
tp596
Rp597
(I63
I122
tp598
tp599
aa(lp600
(g2
(g6
S'\x04\x00\x00\x00'
p601
tp602
Rp603
(I0
I38
tp604
tp605
a(g2
(g6
S'\x06\x00\x00\x00'
p606
tp607
Rp608
(I38
I64
tp609
tp610
a(g2
(g6
S'\x01\x00\x00\x00'
p611
tp612
Rp613
(I64
I122
tp614
tp615
aa(lp616
(g2
(g6
S'\x04\x00\x00\x00'
p617
tp618
Rp619
(I0
I38
tp620
tp621
a(g2
(g6
S'\x06\x00\x00\x00'
p622
tp623
Rp624
(I38
I63
tp625
tp626
a(g2
(g6
S'\x01\x00\x00\x00'
p627
tp628
Rp629
(I63
I122
tp630
tp631
aa(lp632
(g2
(g6
S'\x04\x00\x00\x00'
p633
tp634
Rp635
(I0
I38
tp636
tp637
a(g2
(g6
S'\x06\x00\x00\x00'
p638
tp639
Rp640
(I38
I63
tp641
tp642
a(g2
(g6
S'\x01\x00\x00\x00'
p643
tp644
Rp645
(I63
I122
tp646
tp647
aa(lp648
(g2
(g6
S'\x04\x00\x00\x00'
p649
tp650
Rp651
(I0
I38
tp652
tp653
a(g2
(g6
S'\x06\x00\x00\x00'
p654
tp655
Rp656
(I38
I63
tp657
tp658
a(g2
(g6
S'\x01\x00\x00\x00'
p659
tp660
Rp661
(I63
I122
tp662
tp663
aa(lp664
(g2
(g6
S'\x04\x00\x00\x00'
p665
tp666
Rp667
(I0
I38
tp668
tp669
a(g2
(g6
S'\x06\x00\x00\x00'
p670
tp671
Rp672
(I38
I63
tp673
tp674
a(g2
(g6
S'\x01\x00\x00\x00'
p675
tp676
Rp677
(I63
I122
tp678
tp679
aa(lp680
(g2
(g6
S'\x04\x00\x00\x00'
p681
tp682
Rp683
(I0
I38
tp684
tp685
a(g2
(g6
S'\x06\x00\x00\x00'
p686
tp687
Rp688
(I38
I63
tp689
tp690
a(g2
(g6
S'\x01\x00\x00\x00'
p691
tp692
Rp693
(I63
I122
tp694
tp695
aa(lp696
(g2
(g6
S'\x04\x00\x00\x00'
p697
tp698
Rp699
(I0
I38
tp700
tp701
a(g2
(g6
S'\x06\x00\x00\x00'
p702
tp703
Rp704
(I38
I63
tp705
tp706
a(g2
(g6
S'\x01\x00\x00\x00'
p707
tp708
Rp709
(I63
I122
tp710
tp711
aa(lp712
(g2
(g6
S'\x04\x00\x00\x00'
p713
tp714
Rp715
(I0
I38
tp716
tp717
a(g2
(g6
S'\x06\x00\x00\x00'
p718
tp719
Rp720
(I38
I63
tp721
tp722
a(g2
(g6
S'\x01\x00\x00\x00'
p723
tp724
Rp725
(I63
I122
tp726
tp727
aa(lp728
(g2
(g6
S'\x04\x00\x00\x00'
p729
tp730
Rp731
(I0
I37
tp732
tp733
a(g2
(g6
S'\x06\x00\x00\x00'
p734
tp735
Rp736
(I37
I63
tp737
tp738
a(g2
(g6
S'\x01\x00\x00\x00'
p739
tp740
Rp741
(I63
I122
tp742
tp743
aa(lp744
(g2
(g6
S'\x04\x00\x00\x00'
p745
tp746
Rp747
(I0
I37
tp748
tp749
a(g2
(g6
S'\x06\x00\x00\x00'
p750
tp751
Rp752
(I37
I63
tp753
tp754
a(g2
(g6
S'\x01\x00\x00\x00'
p755
tp756
Rp757
(I63
I122
tp758
tp759
aa(lp760
(g2
(g6
S'\x04\x00\x00\x00'
p761
tp762
Rp763
(I0
I38
tp764
tp765
a(g2
(g6
S'\x06\x00\x00\x00'
p766
tp767
Rp768
(I38
I63
tp769
tp770
a(g2
(g6
S'\x01\x00\x00\x00'
p771
tp772
Rp773
(I63
I122
tp774
tp775
aa(lp776
(g2
(g6
S'\x04\x00\x00\x00'
p777
tp778
Rp779
(I0
I38
tp780
tp781
a(g2
(g6
S'\x06\x00\x00\x00'
p782
tp783
Rp784
(I38
I64
tp785
tp786
a(g2
(g6
S'\x01\x00\x00\x00'
p787
tp788
Rp789
(I64
I122
tp790
tp791
aa(lp792
(g2
(g6
S'\x04\x00\x00\x00'
p793
tp794
Rp795
(I0
I38
tp796
tp797
a(g2
(g6
S'\x06\x00\x00\x00'
p798
tp799
Rp800
(I38
I63
tp801
tp802
a(g2
(g6
S'\x01\x00\x00\x00'
p803
tp804
Rp805
(I63
I122
tp806
tp807
aa(lp808
(g2
(g6
S'\x04\x00\x00\x00'
p809
tp810
Rp811
(I0
I38
tp812
tp813
a(g2
(g6
S'\x06\x00\x00\x00'
p814
tp815
Rp816
(I38
I63
tp817
tp818
a(g2
(g6
S'\x01\x00\x00\x00'
p819
tp820
Rp821
(I63
I122
tp822
tp823
aa(lp824
(g2
(g6
S'\x04\x00\x00\x00'
p825
tp826
Rp827
(I0
I38
tp828
tp829
a(g2
(g6
S'\x06\x00\x00\x00'
p830
tp831
Rp832
(I38
I63
tp833
tp834
a(g2
(g6
S'\x01\x00\x00\x00'
p835
tp836
Rp837
(I63
I122
tp838
tp839
aa(lp840
(g2
(g6
S'\x04\x00\x00\x00'
p841
tp842
Rp843
(I0
I38
tp844
tp845
a(g2
(g6
S'\x06\x00\x00\x00'
p846
tp847
Rp848
(I38
I63
tp849
tp850
a(g2
(g6
S'\x01\x00\x00\x00'
p851
tp852
Rp853
(I63
I122
tp854
tp855
aa(lp856
(g2
(g6
S'\x04\x00\x00\x00'
p857
tp858
Rp859
(I0
I38
tp860
tp861
a(g2
(g6
S'\x06\x00\x00\x00'
p862
tp863
Rp864
(I38
I63
tp865
tp866
a(g2
(g6
S'\x01\x00\x00\x00'
p867
tp868
Rp869
(I63
I122
tp870
tp871
aa(lp872
(g2
(g6
S'\x04\x00\x00\x00'
p873
tp874
Rp875
(I0
I38
tp876
tp877
a(g2
(g6
S'\x06\x00\x00\x00'
p878
tp879
Rp880
(I38
I63
tp881
tp882
a(g2
(g6
S'\x01\x00\x00\x00'
p883
tp884
Rp885
(I63
I122
tp886
tp887
aa(lp888
(g2
(g6
S'\x04\x00\x00\x00'
p889
tp890
Rp891
(I0
I38
tp892
tp893
a(g2
(g6
S'\x06\x00\x00\x00'
p894
tp895
Rp896
(I38
I64
tp897
tp898
a(g2
(g6
S'\x01\x00\x00\x00'
p899
tp900
Rp901
(I64
I122
tp902
tp903
aa(lp904
(g2
(g6
S'\x04\x00\x00\x00'
p905
tp906
Rp907
(I0
I38
tp908
tp909
a(g2
(g6
S'\x06\x00\x00\x00'
p910
tp911
Rp912
(I38
I63
tp913
tp914
a(g2
(g6
S'\x01\x00\x00\x00'
p915
tp916
Rp917
(I63
I122
tp918
tp919
aa(lp920
(g2
(g6
S'\x04\x00\x00\x00'
p921
tp922
Rp923
(I0
I38
tp924
tp925
a(g2
(g6
S'\x06\x00\x00\x00'
p926
tp927
Rp928
(I38
I63
tp929
tp930
a(g2
(g6
S'\x01\x00\x00\x00'
p931
tp932
Rp933
(I63
I122
tp934
tp935
aa(lp936
(g2
(g6
S'\x04\x00\x00\x00'
p937
tp938
Rp939
(I0
I38
tp940
tp941
a(g2
(g6
S'\x06\x00\x00\x00'
p942
tp943
Rp944
(I38
I63
tp945
tp946
a(g2
(g6
S'\x01\x00\x00\x00'
p947
tp948
Rp949
(I63
I122
tp950
tp951
aa(lp952
(g2
(g6
S'\x04\x00\x00\x00'
p953
tp954
Rp955
(I0
I38
tp956
tp957
a(g2
(g6
S'\x06\x00\x00\x00'
p958
tp959
Rp960
(I38
I63
tp961
tp962
a(g2
(g6
S'\x01\x00\x00\x00'
p963
tp964
Rp965
(I63
I122
tp966
tp967
aa(lp968
(g2
(g6
S'\x04\x00\x00\x00'
p969
tp970
Rp971
(I0
I38
tp972
tp973
a(g2
(g6
S'\x06\x00\x00\x00'
p974
tp975
Rp976
(I38
I63
tp977
tp978
a(g2
(g6
S'\x01\x00\x00\x00'
p979
tp980
Rp981
(I63
I122
tp982
tp983
aa(lp984
(g2
(g6
S'\x04\x00\x00\x00'
p985
tp986
Rp987
(I0
I38
tp988
tp989
a(g2
(g6
S'\x06\x00\x00\x00'
p990
tp991
Rp992
(I38
I63
tp993
tp994
a(g2
(g6
S'\x01\x00\x00\x00'
p995
tp996
Rp997
(I63
I122
tp998
tp999
aa(lp1000
(g2
(g6
S'\x04\x00\x00\x00'
p1001
tp1002
Rp1003
(I0
I38
tp1004
tp1005
a(g2
(g6
S'\x06\x00\x00\x00'
p1006
tp1007
Rp1008
(I38
I63
tp1009
tp1010
a(g2
(g6
S'\x01\x00\x00\x00'
p1011
tp1012
Rp1013
(I63
I122
tp1014
tp1015
aa(lp1016
(g2
(g6
S'\x04\x00\x00\x00'
p1017
tp1018
Rp1019
(I0
I38
tp1020
tp1021
a(g2
(g6
S'\x06\x00\x00\x00'
p1022
tp1023
Rp1024
(I38
I63
tp1025
tp1026
a(g2
(g6
S'\x01\x00\x00\x00'
p1027
tp1028
Rp1029
(I63
I122
tp1030
tp1031
aa(lp1032
(g2
(g6
S'\x04\x00\x00\x00'
p1033
tp1034
Rp1035
(I0
I38
tp1036
tp1037
a(g2
(g6
S'\x06\x00\x00\x00'
p1038
tp1039
Rp1040
(I38
I63
tp1041
tp1042
a(g2
(g6
S'\x01\x00\x00\x00'
p1043
tp1044
Rp1045
(I63
I122
tp1046
tp1047
aa(lp1048
(g2
(g6
S'\x04\x00\x00\x00'
p1049
tp1050
Rp1051
(I0
I38
tp1052
tp1053
a(g2
(g6
S'\x06\x00\x00\x00'
p1054
tp1055
Rp1056
(I38
I63
tp1057
tp1058
a(g2
(g6
S'\x01\x00\x00\x00'
p1059
tp1060
Rp1061
(I63
I122
tp1062
tp1063
aa(lp1064
(g2
(g6
S'\x04\x00\x00\x00'
p1065
tp1066
Rp1067
(I0
I38
tp1068
tp1069
a(g2
(g6
S'\x06\x00\x00\x00'
p1070
tp1071
Rp1072
(I38
I63
tp1073
tp1074
a(g2
(g6
S'\x01\x00\x00\x00'
p1075
tp1076
Rp1077
(I63
I122
tp1078
tp1079
aa(lp1080
(g2
(g6
S'\x04\x00\x00\x00'
p1081
tp1082
Rp1083
(I0
I38
tp1084
tp1085
a(g2
(g6
S'\x06\x00\x00\x00'
p1086
tp1087
Rp1088
(I38
I63
tp1089
tp1090
a(g2
(g6
S'\x01\x00\x00\x00'
p1091
tp1092
Rp1093
(I63
I122
tp1094
tp1095
aa(lp1096
(g2
(g6
S'\x04\x00\x00\x00'
p1097
tp1098
Rp1099
(I0
I38
tp1100
tp1101
a(g2
(g6
S'\x06\x00\x00\x00'
p1102
tp1103
Rp1104
(I38
I63
tp1105
tp1106
a(g2
(g6
S'\x01\x00\x00\x00'
p1107
tp1108
Rp1109
(I63
I122
tp1110
tp1111
aa(lp1112
(g2
(g6
S'\x04\x00\x00\x00'
p1113
tp1114
Rp1115
(I0
I37
tp1116
tp1117
a(g2
(g6
S'\x06\x00\x00\x00'
p1118
tp1119
Rp1120
(I37
I63
tp1121
tp1122
a(g2
(g6
S'\x01\x00\x00\x00'
p1123
tp1124
Rp1125
(I63
I122
tp1126
tp1127
aa(lp1128
(g2
(g6
S'\x04\x00\x00\x00'
p1129
tp1130
Rp1131
(I0
I38
tp1132
tp1133
a(g2
(g6
S'\x06\x00\x00\x00'
p1134
tp1135
Rp1136
(I38
I63
tp1137
tp1138
a(g2
(g6
S'\x01\x00\x00\x00'
p1139
tp1140
Rp1141
(I63
I122
tp1142
tp1143
aa(lp1144
(g2
(g6
S'\x04\x00\x00\x00'
p1145
tp1146
Rp1147
(I0
I37
tp1148
tp1149
a(g2
(g6
S'\x06\x00\x00\x00'
p1150
tp1151
Rp1152
(I37
I63
tp1153
tp1154
a(g2
(g6
S'\x01\x00\x00\x00'
p1155
tp1156
Rp1157
(I63
I122
tp1158
tp1159
aa(lp1160
(g2
(g6
S'\x04\x00\x00\x00'
p1161
tp1162
Rp1163
(I0
I38
tp1164
tp1165
a(g2
(g6
S'\x06\x00\x00\x00'
p1166
tp1167
Rp1168
(I38
I63
tp1169
tp1170
a(g2
(g6
S'\x01\x00\x00\x00'
p1171
tp1172
Rp1173
(I63
I122
tp1174
tp1175
aa(lp1176
(g2
(g6
S'\x04\x00\x00\x00'
p1177
tp1178
Rp1179
(I0
I38
tp1180
tp1181
a(g2
(g6
S'\x06\x00\x00\x00'
p1182
tp1183
Rp1184
(I38
I63
tp1185
tp1186
a(g2
(g6
S'\x01\x00\x00\x00'
p1187
tp1188
Rp1189
(I63
I122
tp1190
tp1191
aa(lp1192
(g2
(g6
S'\x04\x00\x00\x00'
p1193
tp1194
Rp1195
(I0
I38
tp1196
tp1197
a(g2
(g6
S'\x06\x00\x00\x00'
p1198
tp1199
Rp1200
(I38
I63
tp1201
tp1202
a(g2
(g6
S'\x01\x00\x00\x00'
p1203
tp1204
Rp1205
(I63
I122
tp1206
tp1207
aa(lp1208
(g2
(g6
S'\x04\x00\x00\x00'
p1209
tp1210
Rp1211
(I0
I38
tp1212
tp1213
a(g2
(g6
S'\x06\x00\x00\x00'
p1214
tp1215
Rp1216
(I38
I63
tp1217
tp1218
a(g2
(g6
S'\x01\x00\x00\x00'
p1219
tp1220
Rp1221
(I63
I122
tp1222
tp1223
aa(lp1224
(g2
(g6
S'\x04\x00\x00\x00'
p1225
tp1226
Rp1227
(I0
I38
tp1228
tp1229
a(g2
(g6
S'\x06\x00\x00\x00'
p1230
tp1231
Rp1232
(I38
I63
tp1233
tp1234
a(g2
(g6
S'\x01\x00\x00\x00'
p1235
tp1236
Rp1237
(I63
I122
tp1238
tp1239
aa(lp1240
(g2
(g6
S'\x04\x00\x00\x00'
p1241
tp1242
Rp1243
(I0
I38
tp1244
tp1245
a(g2
(g6
S'\x06\x00\x00\x00'
p1246
tp1247
Rp1248
(I38
I63
tp1249
tp1250
a(g2
(g6
S'\x01\x00\x00\x00'
p1251
tp1252
Rp1253
(I63
I122
tp1254
tp1255
aa(lp1256
(g2
(g6
S'\x04\x00\x00\x00'
p1257
tp1258
Rp1259
(I0
I38
tp1260
tp1261
a(g2
(g6
S'\x06\x00\x00\x00'
p1262
tp1263
Rp1264
(I38
I64
tp1265
tp1266
a(g2
(g6
S'\x01\x00\x00\x00'
p1267
tp1268
Rp1269
(I64
I122
tp1270
tp1271
aa(lp1272
(g2
(g6
S'\x04\x00\x00\x00'
p1273
tp1274
Rp1275
(I0
I38
tp1276
tp1277
a(g2
(g6
S'\x06\x00\x00\x00'
p1278
tp1279
Rp1280
(I38
I64
tp1281
tp1282
a(g2
(g6
S'\x01\x00\x00\x00'
p1283
tp1284
Rp1285
(I64
I122
tp1286
tp1287
aa(lp1288
(g2
(g6
S'\x04\x00\x00\x00'
p1289
tp1290
Rp1291
(I0
I39
tp1292
tp1293
a(g2
(g6
S'\x04\x00\x00\x00'
p1294
tp1295
Rp1296
(I39
I81
tp1297
tp1298
a(g2
(g6
S'\x01\x00\x00\x00'
p1299
tp1300
Rp1301
(I81
I122
tp1302
tp1303
aa(lp1304
(g2
(g6
S'\x04\x00\x00\x00'
p1305
tp1306
Rp1307
(I0
I43
tp1308
tp1309
a(g2
(g6
S'\x04\x00\x00\x00'
p1310
tp1311
Rp1312
(I43
I83
tp1313
tp1314
a(g2
(g6
S'\x03\x00\x00\x00'
p1315
tp1316
Rp1317
(I83
I122
tp1318
tp1319
aa(lp1320
(g2
(g6
S'\x04\x00\x00\x00'
p1321
tp1322
Rp1323
(I0
I38
tp1324
tp1325
a(g2
(g6
S'\x04\x00\x00\x00'
p1326
tp1327
Rp1328
(I38
I82
tp1329
tp1330
a(g2
(g6
S'\x03\x00\x00\x00'
p1331
tp1332
Rp1333
(I82
I122
tp1334
tp1335
aa(lp1336
(g2
(g6
S'\x04\x00\x00\x00'
p1337
tp1338
Rp1339
(I0
I38
tp1340
tp1341
a(g2
(g6
S'\x04\x00\x00\x00'
p1342
tp1343
Rp1344
(I38
I83
tp1345
tp1346
a(g2
(g6
S'\x03\x00\x00\x00'
p1347
tp1348
Rp1349
(I83
I122
tp1350
tp1351
aa(lp1352
(g2
(g6
S'\x04\x00\x00\x00'
p1353
tp1354
Rp1355
(I0
I43
tp1356
tp1357
a(g2
(g6
S'\x04\x00\x00\x00'
p1358
tp1359
Rp1360
(I43
I82
tp1361
tp1362
a(g2
(g6
S'\x03\x00\x00\x00'
p1363
tp1364
Rp1365
(I82
I122
tp1366
tp1367
aa(lp1368
(g2
(g6
S'\x04\x00\x00\x00'
p1369
tp1370
Rp1371
(I0
I38
tp1372
tp1373
a(g2
(g6
S'\x04\x00\x00\x00'
p1374
tp1375
Rp1376
(I38
I83
tp1377
tp1378
a(g2
(g6
S'\x03\x00\x00\x00'
p1379
tp1380
Rp1381
(I83
I122
tp1382
tp1383
aa(lp1384
(g2
(g6
S'\x04\x00\x00\x00'
p1385
tp1386
Rp1387
(I0
I38
tp1388
tp1389
a(g2
(g6
S'\x04\x00\x00\x00'
p1390
tp1391
Rp1392
(I38
I83
tp1393
tp1394
a(g2
(g6
S'\x03\x00\x00\x00'
p1395
tp1396
Rp1397
(I83
I122
tp1398
tp1399
aa(lp1400
(g2
(g6
S'\x04\x00\x00\x00'
p1401
tp1402
Rp1403
(I0
I43
tp1404
tp1405
a(g2
(g6
S'\x06\x00\x00\x00'
p1406
tp1407
Rp1408
(I43
I62
tp1409
tp1410
a(g2
(g6
S'\x01\x00\x00\x00'
p1411
tp1412
Rp1413
(I62
I122
tp1414
tp1415
aa(lp1416
(g2
(g6
S'\x04\x00\x00\x00'
p1417
tp1418
Rp1419
(I0
I43
tp1420
tp1421
a(g2
(g6
S'\x06\x00\x00\x00'
p1422
tp1423
Rp1424
(I43
I63
tp1425
tp1426
a(g2
(g6
S'\x01\x00\x00\x00'
p1427
tp1428
Rp1429
(I63
I122
tp1430
tp1431
aa(lp1432
(g2
(g6
S'\x04\x00\x00\x00'
p1433
tp1434
Rp1435
(I0
I43
tp1436
tp1437
a(g2
(g6
S'\x06\x00\x00\x00'
p1438
tp1439
Rp1440
(I43
I63
tp1441
tp1442
a(g2
(g6
S'\x01\x00\x00\x00'
p1443
tp1444
Rp1445
(I63
I122
tp1446
tp1447
aa(lp1448
(g2
(g6
S'\x04\x00\x00\x00'
p1449
tp1450
Rp1451
(I0
I43
tp1452
tp1453
a(g2
(g6
S'\x06\x00\x00\x00'
p1454
tp1455
Rp1456
(I43
I63
tp1457
tp1458
a(g2
(g6
S'\x01\x00\x00\x00'
p1459
tp1460
Rp1461
(I63
I122
tp1462
tp1463
aa(lp1464
(g2
(g6
S'\x04\x00\x00\x00'
p1465
tp1466
Rp1467
(I0
I43
tp1468
tp1469
a(g2
(g6
S'\x06\x00\x00\x00'
p1470
tp1471
Rp1472
(I43
I63
tp1473
tp1474
a(g2
(g6
S'\x01\x00\x00\x00'
p1475
tp1476
Rp1477
(I63
I122
tp1478
tp1479
aa(lp1480
(g2
(g6
S'\x04\x00\x00\x00'
p1481
tp1482
Rp1483
(I0
I43
tp1484
tp1485
a(g2
(g6
S'\x06\x00\x00\x00'
p1486
tp1487
Rp1488
(I43
I63
tp1489
tp1490
a(g2
(g6
S'\x01\x00\x00\x00'
p1491
tp1492
Rp1493
(I63
I122
tp1494
tp1495
aa(lp1496
(g2
(g6
S'\x04\x00\x00\x00'
p1497
tp1498
Rp1499
(I0
I43
tp1500
tp1501
a(g2
(g6
S'\x06\x00\x00\x00'
p1502
tp1503
Rp1504
(I43
I63
tp1505
tp1506
a(g2
(g6
S'\x01\x00\x00\x00'
p1507
tp1508
Rp1509
(I63
I122
tp1510
tp1511
aa(lp1512
(g2
(g6
S'\x04\x00\x00\x00'
p1513
tp1514
Rp1515
(I0
I43
tp1516
tp1517
a(g2
(g6
S'\x06\x00\x00\x00'
p1518
tp1519
Rp1520
(I43
I64
tp1521
tp1522
a(g2
(g6
S'\x01\x00\x00\x00'
p1523
tp1524
Rp1525
(I64
I122
tp1526
tp1527
aa(lp1528
(g2
(g6
S'\x04\x00\x00\x00'
p1529
tp1530
Rp1531
(I0
I43
tp1532
tp1533
a(g2
(g6
S'\x06\x00\x00\x00'
p1534
tp1535
Rp1536
(I43
I63
tp1537
tp1538
a(g2
(g6
S'\x01\x00\x00\x00'
p1539
tp1540
Rp1541
(I63
I122
tp1542
tp1543
aa(lp1544
(g2
(g6
S'\x04\x00\x00\x00'
p1545
tp1546
Rp1547
(I0
I43
tp1548
tp1549
a(g2
(g6
S'\x06\x00\x00\x00'
p1550
tp1551
Rp1552
(I43
I63
tp1553
tp1554
a(g2
(g6
S'\x01\x00\x00\x00'
p1555
tp1556
Rp1557
(I63
I122
tp1558
tp1559
aa(lp1560
(g2
(g6
S'\x04\x00\x00\x00'
p1561
tp1562
Rp1563
(I0
I43
tp1564
tp1565
a(g2
(g6
S'\x06\x00\x00\x00'
p1566
tp1567
Rp1568
(I43
I63
tp1569
tp1570
a(g2
(g6
S'\x01\x00\x00\x00'
p1571
tp1572
Rp1573
(I63
I122
tp1574
tp1575
aa(lp1576
(g2
(g6
S'\x04\x00\x00\x00'
p1577
tp1578
Rp1579
(I0
I43
tp1580
tp1581
a(g2
(g6
S'\x04\x00\x00\x00'
p1582
tp1583
Rp1584
(I43
I86
tp1585
tp1586
a(g2
(g6
S'\x06\x00\x00\x00'
p1587
tp1588
Rp1589
(I86
I93
tp1590
tp1591
a(g2
(g6
S'\x03\x00\x00\x00'
p1592
tp1593
Rp1594
(I93
I122
tp1595
tp1596
aa(lp1597
(g2
(g6
S'\x04\x00\x00\x00'
p1598
tp1599
Rp1600
(I0
I43
tp1601
tp1602
a(g2
(g6
S'\x04\x00\x00\x00'
p1603
tp1604
Rp1605
(I43
I84
tp1606
tp1607
a(g2
(g6
S'\x06\x00\x00\x00'
p1608
tp1609
Rp1610
(I84
I93
tp1611
tp1612
a(g2
(g6
S'\x03\x00\x00\x00'
p1613
tp1614
Rp1615
(I93
I122
tp1616
tp1617
aa.