(lp0
(lp1
(cnumpy.core.multiarray
scalar
p2
(cnumpy
dtype
p3
(S'i4'
p4
I0
I1
tp5
Rp6
(I3
S'<'
p7
NNNI-1
I-1
I0
tp8
bS'\x01\x00\x00\x00'
p9
tp10
Rp11
(I0
I45
tp12
tp13
a(g2
(g6
S'\x01\x00\x00\x00'
p14
tp15
Rp16
(I45
I105
tp17
tp18
a(g2
(g6
S'\x01\x00\x00\x00'
p19
tp20
Rp21
(I105
I142
tp22
tp23
aa(lp24
(g2
(g6
S'\x01\x00\x00\x00'
p25
tp26
Rp27
(I0
I43
tp28
tp29
a(g2
(g6
S'\x04\x00\x00\x00'
p30
tp31
Rp32
(I43
I66
tp33
tp34
a(g2
(g6
S'\x01\x00\x00\x00'
p35
tp36
Rp37
(I66
I109
tp38
tp39
a(g2
(g6
S'\x04\x00\x00\x00'
p40
tp41
Rp42
(I109
I142
tp43
tp44
aa(lp45
(g2
(g6
S'\x02\x00\x00\x00'
p46
tp47
Rp48
(I0
I42
tp49
tp50
a(g2
(g6
S'\x05\x00\x00\x00'
p51
tp52
Rp53
(I42
I65
tp54
tp55
a(g2
(g6
S'\x02\x00\x00\x00'
p56
tp57
Rp58
(I65
I110
tp59
tp60
a(g2
(g6
S'\x04\x00\x00\x00'
p61
tp62
Rp63
(I110
I142
tp64
tp65
aa(lp66
(g2
(g6
S'\x02\x00\x00\x00'
p67
tp68
Rp69
(I0
I43
tp70
tp71
a(g2
(g6
S'\x05\x00\x00\x00'
p72
tp73
Rp74
(I43
I67
tp75
tp76
a(g2
(g6
S'\x02\x00\x00\x00'
p77
tp78
Rp79
(I67
I110
tp80
tp81
a(g2
(g6
S'\x04\x00\x00\x00'
p82
tp83
Rp84
(I110
I142
tp85
tp86
aa(lp87
(g2
(g6
S'\x02\x00\x00\x00'
p88
tp89
Rp90
(I0
I43
tp91
tp92
a(g2
(g6
S'\x05\x00\x00\x00'
p93
tp94
Rp95
(I43
I66
tp96
tp97
a(g2
(g6
S'\x02\x00\x00\x00'
p98
tp99
Rp100
(I66
I110
tp101
tp102
a(g2
(g6
S'\x04\x00\x00\x00'
p103
tp104
Rp105
(I110
I142
tp106
tp107
aa(lp108
(g2
(g6
S'\x02\x00\x00\x00'
p109
tp110
Rp111
(I0
I43
tp112
tp113
a(g2
(g6
S'\x05\x00\x00\x00'
p114
tp115
Rp116
(I43
I65
tp117
tp118
a(g2
(g6
S'\x02\x00\x00\x00'
p119
tp120
Rp121
(I65
I110
tp122
tp123
a(g2
(g6
S'\x04\x00\x00\x00'
p124
tp125
Rp126
(I110
I142
tp127
tp128
aa(lp129
(g2
(g6
S'\x02\x00\x00\x00'
p130
tp131
Rp132
(I0
I43
tp133
tp134
a(g2
(g6
S'\x05\x00\x00\x00'
p135
tp136
Rp137
(I43
I60
tp138
tp139
a(g2
(g6
S'\x02\x00\x00\x00'
p140
tp141
Rp142
(I60
I110
tp143
tp144
a(g2
(g6
S'\x04\x00\x00\x00'
p145
tp146
Rp147
(I110
I142
tp148
tp149
aa(lp150
(g2
(g6
S'\x02\x00\x00\x00'
p151
tp152
Rp153
(I0
I43
tp154
tp155
a(g2
(g6
S'\x05\x00\x00\x00'
p156
tp157
Rp158
(I43
I57
tp159
tp160
a(g2
(g6
S'\x02\x00\x00\x00'
p161
tp162
Rp163
(I57
I110
tp164
tp165
a(g2
(g6
S'\x04\x00\x00\x00'
p166
tp167
Rp168
(I110
I142
tp169
tp170
aa(lp171
(g2
(g6
S'\x02\x00\x00\x00'
p172
tp173
Rp174
(I0
I43
tp175
tp176
a(g2
(g6
S'\x05\x00\x00\x00'
p177
tp178
Rp179
(I43
I60
tp180
tp181
a(g2
(g6
S'\x02\x00\x00\x00'
p182
tp183
Rp184
(I60
I110
tp185
tp186
a(g2
(g6
S'\x04\x00\x00\x00'
p187
tp188
Rp189
(I110
I142
tp190
tp191
aa(lp192
(g2
(g6
S'\x02\x00\x00\x00'
p193
tp194
Rp195
(I0
I43
tp196
tp197
a(g2
(g6
S'\x05\x00\x00\x00'
p198
tp199
Rp200
(I43
I61
tp201
tp202
a(g2
(g6
S'\x05\x00\x00\x00'
p203
tp204
Rp205
(I61
I83
tp206
tp207
a(g2
(g6
S'\x00\x00\x00\x00'
p208
tp209
Rp210
(I83
I142
tp211
tp212
aa(lp213
(g2
(g6
S'\x02\x00\x00\x00'
p214
tp215
Rp216
(I0
I43
tp217
tp218
a(g2
(g6
S'\x05\x00\x00\x00'
p219
tp220
Rp221
(I43
I59
tp222
tp223
a(g2
(g6
S'\x02\x00\x00\x00'
p224
tp225
Rp226
(I59
I110
tp227
tp228
a(g2
(g6
S'\x04\x00\x00\x00'
p229
tp230
Rp231
(I110
I142
tp232
tp233
aa(lp234
(g2
(g6
S'\x02\x00\x00\x00'
p235
tp236
Rp237
(I0
I43
tp238
tp239
a(g2
(g6
S'\x05\x00\x00\x00'
p240
tp241
Rp242
(I43
I58
tp243
tp244
a(g2
(g6
S'\x02\x00\x00\x00'
p245
tp246
Rp247
(I58
I110
tp248
tp249
a(g2
(g6
S'\x04\x00\x00\x00'
p250
tp251
Rp252
(I110
I142
tp253
tp254
aa(lp255
(g2
(g6
S'\x02\x00\x00\x00'
p256
tp257
Rp258
(I0
I43
tp259
tp260
a(g2
(g6
S'\x05\x00\x00\x00'
p261
tp262
Rp263
(I43
I64
tp264
tp265
a(g2
(g6
S'\x02\x00\x00\x00'
p266
tp267
Rp268
(I64
I110
tp269
tp270
a(g2
(g6
S'\x04\x00\x00\x00'
p271
tp272
Rp273
(I110
I142
tp274
tp275
aa(lp276
(g2
(g6
S'\x02\x00\x00\x00'
p277
tp278
Rp279
(I0
I43
tp280
tp281
a(g2
(g6
S'\x05\x00\x00\x00'
p282
tp283
Rp284
(I43
I63
tp285
tp286
a(g2
(g6
S'\x02\x00\x00\x00'
p287
tp288
Rp289
(I63
I110
tp290
tp291
a(g2
(g6
S'\x04\x00\x00\x00'
p292
tp293
Rp294
(I110
I142
tp295
tp296
aa(lp297
(g2
(g6
S'\x02\x00\x00\x00'
p298
tp299
Rp300
(I0
I41
tp301
tp302
a(g2
(g6
S'\x04\x00\x00\x00'
p303
tp304
Rp305
(I41
I70
tp306
tp307
a(g2
(g6
S'\x02\x00\x00\x00'
p308
tp309
Rp310
(I70
I110
tp311
tp312
a(g2
(g6
S'\x04\x00\x00\x00'
p313
tp314
Rp315
(I110
I142
tp316
tp317
aa(lp318
(g2
(g6
S'\x02\x00\x00\x00'
p319
tp320
Rp321
(I0
I43
tp322
tp323
a(g2
(g6
S'\x05\x00\x00\x00'
p324
tp325
Rp326
(I43
I64
tp327
tp328
a(g2
(g6
S'\x02\x00\x00\x00'
p329
tp330
Rp331
(I64
I110
tp332
tp333
a(g2
(g6
S'\x04\x00\x00\x00'
p334
tp335
Rp336
(I110
I142
tp337
tp338
aa(lp339
(g2
(g6
S'\x02\x00\x00\x00'
p340
tp341
Rp342
(I0
I43
tp343
tp344
a(g2
(g6
S'\x05\x00\x00\x00'
p345
tp346
Rp347
(I43
I62
tp348
tp349
a(g2
(g6
S'\x02\x00\x00\x00'
p350
tp351
Rp352
(I62
I110
tp353
tp354
a(g2
(g6
S'\x04\x00\x00\x00'
p355
tp356
Rp357
(I110
I142
tp358
tp359
aa(lp360
(g2
(g6
S'\x02\x00\x00\x00'
p361
tp362
Rp363
(I0
I43
tp364
tp365
a(g2
(g6
S'\x05\x00\x00\x00'
p366
tp367
Rp368
(I43
I63
tp369
tp370
a(g2
(g6
S'\x02\x00\x00\x00'
p371
tp372
Rp373
(I63
I110
tp374
tp375
a(g2
(g6
S'\x04\x00\x00\x00'
p376
tp377
Rp378
(I110
I142
tp379
tp380
aa(lp381
(g2
(g6
S'\x02\x00\x00\x00'
p382
tp383
Rp384
(I0
I43
tp385
tp386
a(g2
(g6
S'\x05\x00\x00\x00'
p387
tp388
Rp389
(I43
I63
tp390
tp391
a(g2
(g6
S'\x02\x00\x00\x00'
p392
tp393
Rp394
(I63
I110
tp395
tp396
a(g2
(g6
S'\x04\x00\x00\x00'
p397
tp398
Rp399
(I110
I142
tp400
tp401
aa(lp402
(g2
(g6
S'\x02\x00\x00\x00'
p403
tp404
Rp405
(I0
I43
tp406
tp407
a(g2
(g6
S'\x05\x00\x00\x00'
p408
tp409
Rp410
(I43
I64
tp411
tp412
a(g2
(g6
S'\x02\x00\x00\x00'
p413
tp414
Rp415
(I64
I110
tp416
tp417
a(g2
(g6
S'\x04\x00\x00\x00'
p418
tp419
Rp420
(I110
I142
tp421
tp422
aa(lp423
(g2
(g6
S'\x02\x00\x00\x00'
p424
tp425
Rp426
(I0
I44
tp427
tp428
a(g2
(g6
S'\x05\x00\x00\x00'
p429
tp430
Rp431
(I44
I65
tp432
tp433
a(g2
(g6
S'\x02\x00\x00\x00'
p434
tp435
Rp436
(I65
I110
tp437
tp438
a(g2
(g6
S'\x04\x00\x00\x00'
p439
tp440
Rp441
(I110
I142
tp442
tp443
aa(lp444
(g2
(g6
S'\x02\x00\x00\x00'
p445
tp446
Rp447
(I0
I43
tp448
tp449
a(g2
(g6
S'\x05\x00\x00\x00'
p450
tp451
Rp452
(I43
I63
tp453
tp454
a(g2
(g6
S'\x02\x00\x00\x00'
p455
tp456
Rp457
(I63
I110
tp458
tp459
a(g2
(g6
S'\x04\x00\x00\x00'
p460
tp461
Rp462
(I110
I142
tp463
tp464
aa(lp465
(g2
(g6
S'\x02\x00\x00\x00'
p466
tp467
Rp468
(I0
I41
tp469
tp470
a(g2
(g6
S'\x04\x00\x00\x00'
p471
tp472
Rp473
(I41
I64
tp474
tp475
a(g2
(g6
S'\x02\x00\x00\x00'
p476
tp477
Rp478
(I64
I110
tp479
tp480
a(g2
(g6
S'\x04\x00\x00\x00'
p481
tp482
Rp483
(I110
I142
tp484
tp485
aa(lp486
(g2
(g6
S'\x02\x00\x00\x00'
p487
tp488
Rp489
(I0
I41
tp490
tp491
a(g2
(g6
S'\x04\x00\x00\x00'
p492
tp493
Rp494
(I41
I83
tp495
tp496
a(g2
(g6
S'\x00\x00\x00\x00'
p497
tp498
Rp499
(I83
I142
tp500
tp501
aa(lp502
(g2
(g6
S'\x02\x00\x00\x00'
p503
tp504
Rp505
(I0
I43
tp506
tp507
a(g2
(g6
S'\x05\x00\x00\x00'
p508
tp509
Rp510
(I43
I62
tp511
tp512
a(g2
(g6
S'\x02\x00\x00\x00'
p513
tp514
Rp515
(I62
I110
tp516
tp517
a(g2
(g6
S'\x04\x00\x00\x00'
p518
tp519
Rp520
(I110
I142
tp521
tp522
aa(lp523
(g2
(g6
S'\x02\x00\x00\x00'
p524
tp525
Rp526
(I0
I43
tp527
tp528
a(g2
(g6
S'\x05\x00\x00\x00'
p529
tp530
Rp531
(I43
I61
tp532
tp533
a(g2
(g6
S'\x02\x00\x00\x00'
p534
tp535
Rp536
(I61
I110
tp537
tp538
a(g2
(g6
S'\x04\x00\x00\x00'
p539
tp540
Rp541
(I110
I142
tp542
tp543
aa(lp544
(g2
(g6
S'\x02\x00\x00\x00'
p545
tp546
Rp547
(I0
I43
tp548
tp549
a(g2
(g6
S'\x05\x00\x00\x00'
p550
tp551
Rp552
(I43
I60
tp553
tp554
a(g2
(g6
S'\x02\x00\x00\x00'
p555
tp556
Rp557
(I60
I110
tp558
tp559
a(g2
(g6
S'\x04\x00\x00\x00'
p560
tp561
Rp562
(I110
I142
tp563
tp564
aa(lp565
(g2
(g6
S'\x02\x00\x00\x00'
p566
tp567
Rp568
(I0
I43
tp569
tp570
a(g2
(g6
S'\x05\x00\x00\x00'
p571
tp572
Rp573
(I43
I64
tp574
tp575
a(g2
(g6
S'\x02\x00\x00\x00'
p576
tp577
Rp578
(I64
I110
tp579
tp580
a(g2
(g6
S'\x04\x00\x00\x00'
p581
tp582
Rp583
(I110
I142
tp584
tp585
aa(lp586
(g2
(g6
S'\x02\x00\x00\x00'
p587
tp588
Rp589
(I0
I43
tp590
tp591
a(g2
(g6
S'\x05\x00\x00\x00'
p592
tp593
Rp594
(I43
I61
tp595
tp596
a(g2
(g6
S'\x02\x00\x00\x00'
p597
tp598
Rp599
(I61
I110
tp600
tp601
a(g2
(g6
S'\x04\x00\x00\x00'
p602
tp603
Rp604
(I110
I142
tp605
tp606
aa(lp607
(g2
(g6
S'\x02\x00\x00\x00'
p608
tp609
Rp610
(I0
I42
tp611
tp612
a(g2
(g6
S'\x04\x00\x00\x00'
p613
tp614
Rp615
(I42
I69
tp616
tp617
a(g2
(g6
S'\x02\x00\x00\x00'
p618
tp619
Rp620
(I69
I110
tp621
tp622
a(g2
(g6
S'\x04\x00\x00\x00'
p623
tp624
Rp625
(I110
I142
tp626
tp627
aa(lp628
(g2
(g6
S'\x02\x00\x00\x00'
p629
tp630
Rp631
(I0
I42
tp632
tp633
a(g2
(g6
S'\x04\x00\x00\x00'
p634
tp635
Rp636
(I42
I64
tp637
tp638
a(g2
(g6
S'\x02\x00\x00\x00'
p639
tp640
Rp641
(I64
I110
tp642
tp643
a(g2
(g6
S'\x04\x00\x00\x00'
p644
tp645
Rp646
(I110
I142
tp647
tp648
aa(lp649
(g2
(g6
S'\x02\x00\x00\x00'
p650
tp651
Rp652
(I0
I43
tp653
tp654
a(g2
(g6
S'\x05\x00\x00\x00'
p655
tp656
Rp657
(I43
I59
tp658
tp659
a(g2
(g6
S'\x02\x00\x00\x00'
p660
tp661
Rp662
(I59
I110
tp663
tp664
a(g2
(g6
S'\x04\x00\x00\x00'
p665
tp666
Rp667
(I110
I142
tp668
tp669
aa(lp670
(g2
(g6
S'\x02\x00\x00\x00'
p671
tp672
Rp673
(I0
I43
tp674
tp675
a(g2
(g6
S'\x05\x00\x00\x00'
p676
tp677
Rp678
(I43
I63
tp679
tp680
a(g2
(g6
S'\x02\x00\x00\x00'
p681
tp682
Rp683
(I63
I110
tp684
tp685
a(g2
(g6
S'\x04\x00\x00\x00'
p686
tp687
Rp688
(I110
I142
tp689
tp690
aa(lp691
(g2
(g6
S'\x02\x00\x00\x00'
p692
tp693
Rp694
(I0
I43
tp695
tp696
a(g2
(g6
S'\x05\x00\x00\x00'
p697
tp698
Rp699
(I43
I60
tp700
tp701
a(g2
(g6
S'\x02\x00\x00\x00'
p702
tp703
Rp704
(I60
I110
tp705
tp706
a(g2
(g6
S'\x04\x00\x00\x00'
p707
tp708
Rp709
(I110
I142
tp710
tp711
aa(lp712
(g2
(g6
S'\x02\x00\x00\x00'
p713
tp714
Rp715
(I0
I42
tp716
tp717
a(g2
(g6
S'\x05\x00\x00\x00'
p718
tp719
Rp720
(I42
I60
tp721
tp722
a(g2
(g6
S'\x02\x00\x00\x00'
p723
tp724
Rp725
(I60
I110
tp726
tp727
a(g2
(g6
S'\x04\x00\x00\x00'
p728
tp729
Rp730
(I110
I142
tp731
tp732
aa(lp733
(g2
(g6
S'\x02\x00\x00\x00'
p734
tp735
Rp736
(I0
I43
tp737
tp738
a(g2
(g6
S'\x05\x00\x00\x00'
p739
tp740
Rp741
(I43
I61
tp742
tp743
a(g2
(g6
S'\x02\x00\x00\x00'
p744
tp745
Rp746
(I61
I110
tp747
tp748
a(g2
(g6
S'\x04\x00\x00\x00'
p749
tp750
Rp751
(I110
I142
tp752
tp753
aa(lp754
(g2
(g6
S'\x02\x00\x00\x00'
p755
tp756
Rp757
(I0
I43
tp758
tp759
a(g2
(g6
S'\x05\x00\x00\x00'
p760
tp761
Rp762
(I43
I59
tp763
tp764
a(g2
(g6
S'\x02\x00\x00\x00'
p765
tp766
Rp767
(I59
I110
tp768
tp769
a(g2
(g6
S'\x04\x00\x00\x00'
p770
tp771
Rp772
(I110
I142
tp773
tp774
aa(lp775
(g2
(g6
S'\x02\x00\x00\x00'
p776
tp777
Rp778
(I0
I43
tp779
tp780
a(g2
(g6
S'\x05\x00\x00\x00'
p781
tp782
Rp783
(I43
I67
tp784
tp785
a(g2
(g6
S'\x02\x00\x00\x00'
p786
tp787
Rp788
(I67
I110
tp789
tp790
a(g2
(g6
S'\x04\x00\x00\x00'
p791
tp792
Rp793
(I110
I142
tp794
tp795
aa(lp796
(g2
(g6
S'\x02\x00\x00\x00'
p797
tp798
Rp799
(I0
I43
tp800
tp801
a(g2
(g6
S'\x05\x00\x00\x00'
p802
tp803
Rp804
(I43
I61
tp805
tp806
a(g2
(g6
S'\x02\x00\x00\x00'
p807
tp808
Rp809
(I61
I110
tp810
tp811
a(g2
(g6
S'\x04\x00\x00\x00'
p812
tp813
Rp814
(I110
I142
tp815
tp816
aa(lp817
(g2
(g6
S'\x02\x00\x00\x00'
p818
tp819
Rp820
(I0
I42
tp821
tp822
a(g2
(g6
S'\x04\x00\x00\x00'
p823
tp824
Rp825
(I42
I70
tp826
tp827
a(g2
(g6
S'\x02\x00\x00\x00'
p828
tp829
Rp830
(I70
I110
tp831
tp832
a(g2
(g6
S'\x04\x00\x00\x00'
p833
tp834
Rp835
(I110
I142
tp836
tp837
aa(lp838
(g2
(g6
S'\x02\x00\x00\x00'
p839
tp840
Rp841
(I0
I43
tp842
tp843
a(g2
(g6
S'\x05\x00\x00\x00'
p844
tp845
Rp846
(I43
I63
tp847
tp848
a(g2
(g6
S'\x02\x00\x00\x00'
p849
tp850
Rp851
(I63
I110
tp852
tp853
a(g2
(g6
S'\x04\x00\x00\x00'
p854
tp855
Rp856
(I110
I142
tp857
tp858
aa(lp859
(g2
(g6
S'\x02\x00\x00\x00'
p860
tp861
Rp862
(I0
I43
tp863
tp864
a(g2
(g6
S'\x05\x00\x00\x00'
p865
tp866
Rp867
(I43
I63
tp868
tp869
a(g2
(g6
S'\x02\x00\x00\x00'
p870
tp871
Rp872
(I63
I110
tp873
tp874
a(g2
(g6
S'\x04\x00\x00\x00'
p875
tp876
Rp877
(I110
I142
tp878
tp879
aa(lp880
(g2
(g6
S'\x02\x00\x00\x00'
p881
tp882
Rp883
(I0
I43
tp884
tp885
a(g2
(g6
S'\x05\x00\x00\x00'
p886
tp887
Rp888
(I43
I60
tp889
tp890
a(g2
(g6
S'\x02\x00\x00\x00'
p891
tp892
Rp893
(I60
I110
tp894
tp895
a(g2
(g6
S'\x04\x00\x00\x00'
p896
tp897
Rp898
(I110
I142
tp899
tp900
aa(lp901
(g2
(g6
S'\x02\x00\x00\x00'
p902
tp903
Rp904
(I0
I43
tp905
tp906
a(g2
(g6
S'\x05\x00\x00\x00'
p907
tp908
Rp909
(I43
I65
tp910
tp911
a(g2
(g6
S'\x02\x00\x00\x00'
p912
tp913
Rp914
(I65
I110
tp915
tp916
a(g2
(g6
S'\x04\x00\x00\x00'
p917
tp918
Rp919
(I110
I142
tp920
tp921
aa(lp922
(g2
(g6
S'\x02\x00\x00\x00'
p923
tp924
Rp925
(I0
I43
tp926
tp927
a(g2
(g6
S'\x05\x00\x00\x00'
p928
tp929
Rp930
(I43
I61
tp931
tp932
a(g2
(g6
S'\x02\x00\x00\x00'
p933
tp934
Rp935
(I61
I110
tp936
tp937
a(g2
(g6
S'\x04\x00\x00\x00'
p938
tp939
Rp940
(I110
I142
tp941
tp942
aa(lp943
(g2
(g6
S'\x02\x00\x00\x00'
p944
tp945
Rp946
(I0
I43
tp947
tp948
a(g2
(g6
S'\x05\x00\x00\x00'
p949
tp950
Rp951
(I43
I61
tp952
tp953
a(g2
(g6
S'\x02\x00\x00\x00'
p954
tp955
Rp956
(I61
I110
tp957
tp958
a(g2
(g6
S'\x04\x00\x00\x00'
p959
tp960
Rp961
(I110
I142
tp962
tp963
aa(lp964
(g2
(g6
S'\x02\x00\x00\x00'
p965
tp966
Rp967
(I0
I41
tp968
tp969
a(g2
(g6
S'\x04\x00\x00\x00'
p970
tp971
Rp972
(I41
I66
tp973
tp974
a(g2
(g6
S'\x02\x00\x00\x00'
p975
tp976
Rp977
(I66
I110
tp978
tp979
a(g2
(g6
S'\x04\x00\x00\x00'
p980
tp981
Rp982
(I110
I142
tp983
tp984
aa(lp985
(g2
(g6
S'\x02\x00\x00\x00'
p986
tp987
Rp988
(I0
I42
tp989
tp990
a(g2
(g6
S'\x04\x00\x00\x00'
p991
tp992
Rp993
(I42
I67
tp994
tp995
a(g2
(g6
S'\x02\x00\x00\x00'
p996
tp997
Rp998
(I67
I110
tp999
tp1000
a(g2
(g6
S'\x04\x00\x00\x00'
p1001
tp1002
Rp1003
(I110
I142
tp1004
tp1005
aa(lp1006
(g2
(g6
S'\x02\x00\x00\x00'
p1007
tp1008
Rp1009
(I0
I43
tp1010
tp1011
a(g2
(g6
S'\x05\x00\x00\x00'
p1012
tp1013
Rp1014
(I43
I62
tp1015
tp1016
a(g2
(g6
S'\x02\x00\x00\x00'
p1017
tp1018
Rp1019
(I62
I110
tp1020
tp1021
a(g2
(g6
S'\x04\x00\x00\x00'
p1022
tp1023
Rp1024
(I110
I142
tp1025
tp1026
aa(lp1027
(g2
(g6
S'\x02\x00\x00\x00'
p1028
tp1029
Rp1030
(I0
I43
tp1031
tp1032
a(g2
(g6
S'\x05\x00\x00\x00'
p1033
tp1034
Rp1035
(I43
I63
tp1036
tp1037
a(g2
(g6
S'\x02\x00\x00\x00'
p1038
tp1039
Rp1040
(I63
I110
tp1041
tp1042
a(g2
(g6
S'\x04\x00\x00\x00'
p1043
tp1044
Rp1045
(I110
I142
tp1046
tp1047
aa(lp1048
(g2
(g6
S'\x02\x00\x00\x00'
p1049
tp1050
Rp1051
(I0
I43
tp1052
tp1053
a(g2
(g6
S'\x05\x00\x00\x00'
p1054
tp1055
Rp1056
(I43
I59
tp1057
tp1058
a(g2
(g6
S'\x02\x00\x00\x00'
p1059
tp1060
Rp1061
(I59
I110
tp1062
tp1063
a(g2
(g6
S'\x04\x00\x00\x00'
p1064
tp1065
Rp1066
(I110
I142
tp1067
tp1068
aa(lp1069
(g2
(g6
S'\x02\x00\x00\x00'
p1070
tp1071
Rp1072
(I0
I41
tp1073
tp1074
a(g2
(g6
S'\x04\x00\x00\x00'
p1075
tp1076
Rp1077
(I41
I67
tp1078
tp1079
a(g2
(g6
S'\x02\x00\x00\x00'
p1080
tp1081
Rp1082
(I67
I110
tp1083
tp1084
a(g2
(g6
S'\x04\x00\x00\x00'
p1085
tp1086
Rp1087
(I110
I142
tp1088
tp1089
aa(lp1090
(g2
(g6
S'\x02\x00\x00\x00'
p1091
tp1092
Rp1093
(I0
I42
tp1094
tp1095
a(g2
(g6
S'\x04\x00\x00\x00'
p1096
tp1097
Rp1098
(I42
I71
tp1099
tp1100
a(g2
(g6
S'\x02\x00\x00\x00'
p1101
tp1102
Rp1103
(I71
I110
tp1104
tp1105
a(g2
(g6
S'\x04\x00\x00\x00'
p1106
tp1107
Rp1108
(I110
I142
tp1109
tp1110
aa(lp1111
(g2
(g6
S'\x02\x00\x00\x00'
p1112
tp1113
Rp1114
(I0
I43
tp1115
tp1116
a(g2
(g6
S'\x05\x00\x00\x00'
p1117
tp1118
Rp1119
(I43
I60
tp1120
tp1121
a(g2
(g6
S'\x02\x00\x00\x00'
p1122
tp1123
Rp1124
(I60
I110
tp1125
tp1126
a(g2
(g6
S'\x04\x00\x00\x00'
p1127
tp1128
Rp1129
(I110
I142
tp1130
tp1131
aa(lp1132
(g2
(g6
S'\x02\x00\x00\x00'
p1133
tp1134
Rp1135
(I0
I42
tp1136
tp1137
a(g2
(g6
S'\x04\x00\x00\x00'
p1138
tp1139
Rp1140
(I42
I68
tp1141
tp1142
a(g2
(g6
S'\x02\x00\x00\x00'
p1143
tp1144
Rp1145
(I68
I110
tp1146
tp1147
a(g2
(g6
S'\x04\x00\x00\x00'
p1148
tp1149
Rp1150
(I110
I142
tp1151
tp1152
aa(lp1153
(g2
(g6
S'\x02\x00\x00\x00'
p1154
tp1155
Rp1156
(I0
I43
tp1157
tp1158
a(g2
(g6
S'\x05\x00\x00\x00'
p1159
tp1160
Rp1161
(I43
I65
tp1162
tp1163
a(g2
(g6
S'\x02\x00\x00\x00'
p1164
tp1165
Rp1166
(I65
I110
tp1167
tp1168
a(g2
(g6
S'\x04\x00\x00\x00'
p1169
tp1170
Rp1171
(I110
I142
tp1172
tp1173
aa(lp1174
(g2
(g6
S'\x02\x00\x00\x00'
p1175
tp1176
Rp1177
(I0
I42
tp1178
tp1179
a(g2
(g6
S'\x04\x00\x00\x00'
p1180
tp1181
Rp1182
(I42
I72
tp1183
tp1184
a(g2
(g6
S'\x02\x00\x00\x00'
p1185
tp1186
Rp1187
(I72
I110
tp1188
tp1189
a(g2
(g6
S'\x04\x00\x00\x00'
p1190
tp1191
Rp1192
(I110
I142
tp1193
tp1194
aa(lp1195
(g2
(g6
S'\x02\x00\x00\x00'
p1196
tp1197
Rp1198
(I0
I43
tp1199
tp1200
a(g2
(g6
S'\x05\x00\x00\x00'
p1201
tp1202
Rp1203
(I43
I66
tp1204
tp1205
a(g2
(g6
S'\x02\x00\x00\x00'
p1206
tp1207
Rp1208
(I66
I110
tp1209
tp1210
a(g2
(g6
S'\x04\x00\x00\x00'
p1211
tp1212
Rp1213
(I110
I142
tp1214
tp1215
aa(lp1216
(g2
(g6
S'\x02\x00\x00\x00'
p1217
tp1218
Rp1219
(I0
I42
tp1220
tp1221
a(g2
(g6
S'\x04\x00\x00\x00'
p1222
tp1223
Rp1224
(I42
I66
tp1225
tp1226
a(g2
(g6
S'\x02\x00\x00\x00'
p1227
tp1228
Rp1229
(I66
I110
tp1230
tp1231
a(g2
(g6
S'\x04\x00\x00\x00'
p1232
tp1233
Rp1234
(I110
I142
tp1235
tp1236
aa(lp1237
(g2
(g6
S'\x02\x00\x00\x00'
p1238
tp1239
Rp1240
(I0
I41
tp1241
tp1242
a(g2
(g6
S'\x04\x00\x00\x00'
p1243
tp1244
Rp1245
(I41
I66
tp1246
tp1247
a(g2
(g6
S'\x02\x00\x00\x00'
p1248
tp1249
Rp1250
(I66
I110
tp1251
tp1252
a(g2
(g6
S'\x06\x00\x00\x00'
p1253
tp1254
Rp1255
(I110
I131
tp1256
tp1257
a(g2
(g6
S'\x05\x00\x00\x00'
p1258
tp1259
Rp1260
(I131
I142
tp1261
tp1262
aa(lp1263
(g2
(g6
S'\x02\x00\x00\x00'
p1264
tp1265
Rp1266
(I0
I42
tp1267
tp1268
a(g2
(g6
S'\x04\x00\x00\x00'
p1269
tp1270
Rp1271
(I42
I64
tp1272
tp1273
a(g2
(g6
S'\x02\x00\x00\x00'
p1274
tp1275
Rp1276
(I64
I110
tp1277
tp1278
a(g2
(g6
S'\x04\x00\x00\x00'
p1279
tp1280
Rp1281
(I110
I142
tp1282
tp1283
aa(lp1284
(g2
(g6
S'\x02\x00\x00\x00'
p1285
tp1286
Rp1287
(I0
I42
tp1288
tp1289
a(g2
(g6
S'\x04\x00\x00\x00'
p1290
tp1291
Rp1292
(I42
I65
tp1293
tp1294
a(g2
(g6
S'\x02\x00\x00\x00'
p1295
tp1296
Rp1297
(I65
I110
tp1298
tp1299
a(g2
(g6
S'\x04\x00\x00\x00'
p1300
tp1301
Rp1302
(I110
I142
tp1303
tp1304
aa(lp1305
(g2
(g6
S'\x02\x00\x00\x00'
p1306
tp1307
Rp1308
(I0
I41
tp1309
tp1310
a(g2
(g6
S'\x04\x00\x00\x00'
p1311
tp1312
Rp1313
(I41
I69
tp1314
tp1315
a(g2
(g6
S'\x02\x00\x00\x00'
p1316
tp1317
Rp1318
(I69
I110
tp1319
tp1320
a(g2
(g6
S'\x04\x00\x00\x00'
p1321
tp1322
Rp1323
(I110
I142
tp1324
tp1325
aa(lp1326
(g2
(g6
S'\x02\x00\x00\x00'
p1327
tp1328
Rp1329
(I0
I42
tp1330
tp1331
a(g2
(g6
S'\x04\x00\x00\x00'
p1332
tp1333
Rp1334
(I42
I83
tp1335
tp1336
a(g2
(g6
S'\x00\x00\x00\x00'
p1337
tp1338
Rp1339
(I83
I142
tp1340
tp1341
aa(lp1342
(g2
(g6
S'\x02\x00\x00\x00'
p1343
tp1344
Rp1345
(I0
I42
tp1346
tp1347
a(g2
(g6
S'\x04\x00\x00\x00'
p1348
tp1349
Rp1350
(I42
I68
tp1351
tp1352
a(g2
(g6
S'\x02\x00\x00\x00'
p1353
tp1354
Rp1355
(I68
I110
tp1356
tp1357
a(g2
(g6
S'\x04\x00\x00\x00'
p1358
tp1359
Rp1360
(I110
I142
tp1361
tp1362
aa(lp1363
(g2
(g6
S'\x02\x00\x00\x00'
p1364
tp1365
Rp1366
(I0
I43
tp1367
tp1368
a(g2
(g6
S'\x05\x00\x00\x00'
p1369
tp1370
Rp1371
(I43
I66
tp1372
tp1373
a(g2
(g6
S'\x02\x00\x00\x00'
p1374
tp1375
Rp1376
(I66
I110
tp1377
tp1378
a(g2
(g6
S'\x04\x00\x00\x00'
p1379
tp1380
Rp1381
(I110
I142
tp1382
tp1383
aa(lp1384
(g2
(g6
S'\x02\x00\x00\x00'
p1385
tp1386
Rp1387
(I0
I43
tp1388
tp1389
a(g2
(g6
S'\x05\x00\x00\x00'
p1390
tp1391
Rp1392
(I43
I61
tp1393
tp1394
a(g2
(g6
S'\x02\x00\x00\x00'
p1395
tp1396
Rp1397
(I61
I110
tp1398
tp1399
a(g2
(g6
S'\x04\x00\x00\x00'
p1400
tp1401
Rp1402
(I110
I142
tp1403
tp1404
aa(lp1405
(g2
(g6
S'\x02\x00\x00\x00'
p1406
tp1407
Rp1408
(I0
I43
tp1409
tp1410
a(g2
(g6
S'\x05\x00\x00\x00'
p1411
tp1412
Rp1413
(I43
I66
tp1414
tp1415
a(g2
(g6
S'\x02\x00\x00\x00'
p1416
tp1417
Rp1418
(I66
I110
tp1419
tp1420
a(g2
(g6
S'\x04\x00\x00\x00'
p1421
tp1422
Rp1423
(I110
I142
tp1424
tp1425
aa(lp1426
(g2
(g6
S'\x02\x00\x00\x00'
p1427
tp1428
Rp1429
(I0
I42
tp1430
tp1431
a(g2
(g6
S'\x04\x00\x00\x00'
p1432
tp1433
Rp1434
(I42
I66
tp1435
tp1436
a(g2
(g6
S'\x02\x00\x00\x00'
p1437
tp1438
Rp1439
(I66
I110
tp1440
tp1441
a(g2
(g6
S'\x04\x00\x00\x00'
p1442
tp1443
Rp1444
(I110
I142
tp1445
tp1446
aa(lp1447
(g2
(g6
S'\x02\x00\x00\x00'
p1448
tp1449
Rp1450
(I0
I43
tp1451
tp1452
a(g2
(g6
S'\x05\x00\x00\x00'
p1453
tp1454
Rp1455
(I43
I61
tp1456
tp1457
a(g2
(g6
S'\x02\x00\x00\x00'
p1458
tp1459
Rp1460
(I61
I110
tp1461
tp1462
a(g2
(g6
S'\x04\x00\x00\x00'
p1463
tp1464
Rp1465
(I110
I142
tp1466
tp1467
aa(lp1468
(g2
(g6
S'\x02\x00\x00\x00'
p1469
tp1470
Rp1471
(I0
I41
tp1472
tp1473
a(g2
(g6
S'\x04\x00\x00\x00'
p1474
tp1475
Rp1476
(I41
I70
tp1477
tp1478
a(g2
(g6
S'\x02\x00\x00\x00'
p1479
tp1480
Rp1481
(I70
I110
tp1482
tp1483
a(g2
(g6
S'\x04\x00\x00\x00'
p1484
tp1485
Rp1486
(I110
I142
tp1487
tp1488
aa(lp1489
(g2
(g6
S'\x02\x00\x00\x00'
p1490
tp1491
Rp1492
(I0
I42
tp1493
tp1494
a(g2
(g6
S'\x04\x00\x00\x00'
p1495
tp1496
Rp1497
(I42
I68
tp1498
tp1499
a(g2
(g6
S'\x02\x00\x00\x00'
p1500
tp1501
Rp1502
(I68
I110
tp1503
tp1504
a(g2
(g6
S'\x04\x00\x00\x00'
p1505
tp1506
Rp1507
(I110
I142
tp1508
tp1509
aa(lp1510
(g2
(g6
S'\x02\x00\x00\x00'
p1511
tp1512
Rp1513
(I0
I43
tp1514
tp1515
a(g2
(g6
S'\x05\x00\x00\x00'
p1516
tp1517
Rp1518
(I43
I59
tp1519
tp1520
a(g2
(g6
S'\x02\x00\x00\x00'
p1521
tp1522
Rp1523
(I59
I110
tp1524
tp1525
a(g2
(g6
S'\x04\x00\x00\x00'
p1526
tp1527
Rp1528
(I110
I142
tp1529
tp1530
aa(lp1531
(g2
(g6
S'\x02\x00\x00\x00'
p1532
tp1533
Rp1534
(I0
I43
tp1535
tp1536
a(g2
(g6
S'\x05\x00\x00\x00'
p1537
tp1538
Rp1539
(I43
I64
tp1540
tp1541
a(g2
(g6
S'\x02\x00\x00\x00'
p1542
tp1543
Rp1544
(I64
I110
tp1545
tp1546
a(g2
(g6
S'\x04\x00\x00\x00'
p1547
tp1548
Rp1549
(I110
I142
tp1550
tp1551
aa(lp1552
(g2
(g6
S'\x02\x00\x00\x00'
p1553
tp1554
Rp1555
(I0
I43
tp1556
tp1557
a(g2
(g6
S'\x05\x00\x00\x00'
p1558
tp1559
Rp1560
(I43
I64
tp1561
tp1562
a(g2
(g6
S'\x02\x00\x00\x00'
p1563
tp1564
Rp1565
(I64
I110
tp1566
tp1567
a(g2
(g6
S'\x04\x00\x00\x00'
p1568
tp1569
Rp1570
(I110
I142
tp1571
tp1572
aa(lp1573
(g2
(g6
S'\x02\x00\x00\x00'
p1574
tp1575
Rp1576
(I0
I43
tp1577
tp1578
a(g2
(g6
S'\x05\x00\x00\x00'
p1579
tp1580
Rp1581
(I43
I61
tp1582
tp1583
a(g2
(g6
S'\x05\x00\x00\x00'
p1584
tp1585
Rp1586
(I61
I83
tp1587
tp1588
a(g2
(g6
S'\x00\x00\x00\x00'
p1589
tp1590
Rp1591
(I83
I142
tp1592
tp1593
aa(lp1594
(g2
(g6
S'\x02\x00\x00\x00'
p1595
tp1596
Rp1597
(I0
I43
tp1598
tp1599
a(g2
(g6
S'\x05\x00\x00\x00'
p1600
tp1601
Rp1602
(I43
I63
tp1603
tp1604
a(g2
(g6
S'\x05\x00\x00\x00'
p1605
tp1606
Rp1607
(I63
I84
tp1608
tp1609
a(g2
(g6
S'\x00\x00\x00\x00'
p1610
tp1611
Rp1612
(I84
I142
tp1613
tp1614
aa(lp1615
(g2
(g6
S'\x02\x00\x00\x00'
p1616
tp1617
Rp1618
(I0
I42
tp1619
tp1620
a(g2
(g6
S'\x04\x00\x00\x00'
p1621
tp1622
Rp1623
(I42
I66
tp1624
tp1625
a(g2
(g6
S'\x02\x00\x00\x00'
p1626
tp1627
Rp1628
(I66
I110
tp1629
tp1630
a(g2
(g6
S'\x04\x00\x00\x00'
p1631
tp1632
Rp1633
(I110
I142
tp1634
tp1635
aa(lp1636
(g2
(g6
S'\x02\x00\x00\x00'
p1637
tp1638
Rp1639
(I0
I43
tp1640
tp1641
a(g2
(g6
S'\x05\x00\x00\x00'
p1642
tp1643
Rp1644
(I43
I66
tp1645
tp1646
a(g2
(g6
S'\x02\x00\x00\x00'
p1647
tp1648
Rp1649
(I66
I110
tp1650
tp1651
a(g2
(g6
S'\x04\x00\x00\x00'
p1652
tp1653
Rp1654
(I110
I142
tp1655
tp1656
aa(lp1657
(g2
(g6
S'\x02\x00\x00\x00'
p1658
tp1659
Rp1660
(I0
I41
tp1661
tp1662
a(g2
(g6
S'\x04\x00\x00\x00'
p1663
tp1664
Rp1665
(I41
I68
tp1666
tp1667
a(g2
(g6
S'\x02\x00\x00\x00'
p1668
tp1669
Rp1670
(I68
I110
tp1671
tp1672
a(g2
(g6
S'\x04\x00\x00\x00'
p1673
tp1674
Rp1675
(I110
I142
tp1676
tp1677
aa(lp1678
(g2
(g6
S'\x02\x00\x00\x00'
p1679
tp1680
Rp1681
(I0
I41
tp1682
tp1683
a(g2
(g6
S'\x04\x00\x00\x00'
p1684
tp1685
Rp1686
(I41
I74
tp1687
tp1688
a(g2
(g6
S'\x02\x00\x00\x00'
p1689
tp1690
Rp1691
(I74
I110
tp1692
tp1693
a(g2
(g6
S'\x04\x00\x00\x00'
p1694
tp1695
Rp1696
(I110
I142
tp1697
tp1698
aa(lp1699
(g2
(g6
S'\x02\x00\x00\x00'
p1700
tp1701
Rp1702
(I0
I41
tp1703
tp1704
a(g2
(g6
S'\x04\x00\x00\x00'
p1705
tp1706
Rp1707
(I41
I75
tp1708
tp1709
a(g2
(g6
S'\x02\x00\x00\x00'
p1710
tp1711
Rp1712
(I75
I110
tp1713
tp1714
a(g2
(g6
S'\x04\x00\x00\x00'
p1715
tp1716
Rp1717
(I110
I142
tp1718
tp1719
aa(lp1720
(g2
(g6
S'\x02\x00\x00\x00'
p1721
tp1722
Rp1723
(I0
I41
tp1724
tp1725
a(g2
(g6
S'\x04\x00\x00\x00'
p1726
tp1727
Rp1728
(I41
I76
tp1729
tp1730
a(g2
(g6
S'\x02\x00\x00\x00'
p1731
tp1732
Rp1733
(I76
I110
tp1734
tp1735
a(g2
(g6
S'\x04\x00\x00\x00'
p1736
tp1737
Rp1738
(I110
I142
tp1739
tp1740
aa(lp1741
(g2
(g6
S'\x02\x00\x00\x00'
p1742
tp1743
Rp1744
(I0
I42
tp1745
tp1746
a(g2
(g6
S'\x04\x00\x00\x00'
p1747
tp1748
Rp1749
(I42
I77
tp1750
tp1751
a(g2
(g6
S'\x02\x00\x00\x00'
p1752
tp1753
Rp1754
(I77
I110
tp1755
tp1756
a(g2
(g6
S'\x04\x00\x00\x00'
p1757
tp1758
Rp1759
(I110
I142
tp1760
tp1761
aa(lp1762
(g2
(g6
S'\x02\x00\x00\x00'
p1763
tp1764
Rp1765
(I0
I42
tp1766
tp1767
a(g2
(g6
S'\x04\x00\x00\x00'
p1768
tp1769
Rp1770
(I42
I83
tp1771
tp1772
a(g2
(g6
S'\x00\x00\x00\x00'
p1773
tp1774
Rp1775
(I83
I142
tp1776
tp1777
aa(lp1778
(g2
(g6
S'\x02\x00\x00\x00'
p1779
tp1780
Rp1781
(I0
I41
tp1782
tp1783
a(g2
(g6
S'\x04\x00\x00\x00'
p1784
tp1785
Rp1786
(I41
I83
tp1787
tp1788
a(g2
(g6
S'\x00\x00\x00\x00'
p1789
tp1790
Rp1791
(I83
I142
tp1792
tp1793
aa(lp1794
(g2
(g6
S'\x02\x00\x00\x00'
p1795
tp1796
Rp1797
(I0
I42
tp1798
tp1799
a(g2
(g6
S'\x04\x00\x00\x00'
p1800
tp1801
Rp1802
(I42
I85
tp1803
tp1804
a(g2
(g6
S'\x00\x00\x00\x00'
p1805
tp1806
Rp1807
(I85
I142
tp1808
tp1809
aa(lp1810
(g2
(g6
S'\x02\x00\x00\x00'
p1811
tp1812
Rp1813
(I0
I41
tp1814
tp1815
a(g2
(g6
S'\x04\x00\x00\x00'
p1816
tp1817
Rp1818
(I41
I84
tp1819
tp1820
a(g2
(g6
S'\x00\x00\x00\x00'
p1821
tp1822
Rp1823
(I84
I142
tp1824
tp1825
aa(lp1826
(g2
(g6
S'\x02\x00\x00\x00'
p1827
tp1828
Rp1829
(I0
I42
tp1830
tp1831
a(g2
(g6
S'\x04\x00\x00\x00'
p1832
tp1833
Rp1834
(I42
I83
tp1835
tp1836
a(g2
(g6
S'\x00\x00\x00\x00'
p1837
tp1838
Rp1839
(I83
I142
tp1840
tp1841
aa(lp1842
(g2
(g6
S'\x02\x00\x00\x00'
p1843
tp1844
Rp1845
(I0
I42
tp1846
tp1847
a(g2
(g6
S'\x04\x00\x00\x00'
p1848
tp1849
Rp1850
(I42
I83
tp1851
tp1852
a(g2
(g6
S'\x00\x00\x00\x00'
p1853
tp1854
Rp1855
(I83
I142
tp1856
tp1857
aa(lp1858
(g2
(g6
S'\x02\x00\x00\x00'
p1859
tp1860
Rp1861
(I0
I42
tp1862
tp1863
a(g2
(g6
S'\x04\x00\x00\x00'
p1864
tp1865
Rp1866
(I42
I83
tp1867
tp1868
a(g2
(g6
S'\x00\x00\x00\x00'
p1869
tp1870
Rp1871
(I83
I142
tp1872
tp1873
aa(lp1874
(g2
(g6
S'\x02\x00\x00\x00'
p1875
tp1876
Rp1877
(I0
I42
tp1878
tp1879
a(g2
(g6
S'\x04\x00\x00\x00'
p1880
tp1881
Rp1882
(I42
I85
tp1883
tp1884
a(g2
(g6
S'\x00\x00\x00\x00'
p1885
tp1886
Rp1887
(I85
I142
tp1888
tp1889
aa(lp1890
(g2
(g6
S'\x02\x00\x00\x00'
p1891
tp1892
Rp1893
(I0
I41
tp1894
tp1895
a(g2
(g6
S'\x04\x00\x00\x00'
p1896
tp1897
Rp1898
(I41
I83
tp1899
tp1900
a(g2
(g6
S'\x00\x00\x00\x00'
p1901
tp1902
Rp1903
(I83
I142
tp1904
tp1905
aa(lp1906
(g2
(g6
S'\x02\x00\x00\x00'
p1907
tp1908
Rp1909
(I0
I42
tp1910
tp1911
a(g2
(g6
S'\x04\x00\x00\x00'
p1912
tp1913
Rp1914
(I42
I84
tp1915
tp1916
a(g2
(g6
S'\x00\x00\x00\x00'
p1917
tp1918
Rp1919
(I84
I142
tp1920
tp1921
aa(lp1922
(g2
(g6
S'\x02\x00\x00\x00'
p1923
tp1924
Rp1925
(I0
I42
tp1926
tp1927
a(g2
(g6
S'\x04\x00\x00\x00'
p1928
tp1929
Rp1930
(I42
I84
tp1931
tp1932
a(g2
(g6
S'\x00\x00\x00\x00'
p1933
tp1934
Rp1935
(I84
I142
tp1936
tp1937
aa(lp1938
(g2
(g6
S'\x02\x00\x00\x00'
p1939
tp1940
Rp1941
(I0
I41
tp1942
tp1943
a(g2
(g6
S'\x04\x00\x00\x00'
p1944
tp1945
Rp1946
(I41
I83
tp1947
tp1948
a(g2
(g6
S'\x00\x00\x00\x00'
p1949
tp1950
Rp1951
(I83
I142
tp1952
tp1953
aa(lp1954
(g2
(g6
S'\x02\x00\x00\x00'
p1955
tp1956
Rp1957
(I0
I42
tp1958
tp1959
a(g2
(g6
S'\x04\x00\x00\x00'
p1960
tp1961
Rp1962
(I42
I83
tp1963
tp1964
a(g2
(g6
S'\x00\x00\x00\x00'
p1965
tp1966
Rp1967
(I83
I142
tp1968
tp1969
aa(lp1970
(g2
(g6
S'\x02\x00\x00\x00'
p1971
tp1972
Rp1973
(I0
I42
tp1974
tp1975
a(g2
(g6
S'\x04\x00\x00\x00'
p1976
tp1977
Rp1978
(I42
I84
tp1979
tp1980
a(g2
(g6
S'\x00\x00\x00\x00'
p1981
tp1982
Rp1983
(I84
I142
tp1984
tp1985
aa(lp1986
(g2
(g6
S'\x05\x00\x00\x00'
p1987
tp1988
Rp1989
(I0
I14
tp1990
tp1991
a(g2
(g6
S'\x00\x00\x00\x00'
p1992
tp1993
Rp1994
(I14
I69
tp1995
tp1996
a(g2
(g6
S'\x05\x00\x00\x00'
p1997
tp1998
Rp1999
(I69
I84
tp2000
tp2001
a(g2
(g6
S'\x00\x00\x00\x00'
p2002
tp2003
Rp2004
(I84
I142
tp2005
tp2006
aa(lp2007
(g2
(g6
S'\x02\x00\x00\x00'
p2008
tp2009
Rp2010
(I0
I42
tp2011
tp2012
a(g2
(g6
S'\x04\x00\x00\x00'
p2013
tp2014
Rp2015
(I42
I84
tp2016
tp2017
a(g2
(g6
S'\x00\x00\x00\x00'
p2018
tp2019
Rp2020
(I84
I142
tp2021
tp2022
aa.