(lp0
(lp1
(cnumpy.core.multiarray
scalar
p2
(cnumpy
dtype
p3
(S'i4'
p4
I0
I1
tp5
Rp6
(I3
S'<'
p7
NNNI-1
I-1
I0
tp8
bS'\x01\x00\x00\x00'
p9
tp10
Rp11
(I0
I39
tp12
tp13
a(g2
(g6
S'\x01\x00\x00\x00'
p14
tp15
Rp16
(I39
I77
tp17
tp18
aa(lp19
(g2
(g6
S'\x01\x00\x00\x00'
p20
tp21
Rp22
(I0
I45
tp23
tp24
a(g2
(g6
S'\x01\x00\x00\x00'
p25
tp26
Rp27
(I45
I77
tp28
tp29
aa(lp30
(g2
(g6
S'\x05\x00\x00\x00'
p31
tp32
Rp33
(I0
I15
tp34
tp35
a(g2
(g6
S'\x02\x00\x00\x00'
p36
tp37
Rp38
(I15
I73
tp39
tp40
a(g2
(g6
S'\x05\x00\x00\x00'
p41
tp42
Rp43
(I73
I77
tp44
tp45
aa(lp46
(g2
(g6
S'\x05\x00\x00\x00'
p47
tp48
Rp49
(I0
I14
tp50
tp51
a(g2
(g6
S'\x02\x00\x00\x00'
p52
tp53
Rp54
(I14
I73
tp55
tp56
a(g2
(g6
S'\x05\x00\x00\x00'
p57
tp58
Rp59
(I73
I77
tp60
tp61
aa(lp62
(g2
(g6
S'\x02\x00\x00\x00'
p63
tp64
Rp65
(I0
I43
tp66
tp67
a(g2
(g6
S'\x02\x00\x00\x00'
p68
tp69
Rp70
(I43
I77
tp71
tp72
aa(lp73
(g2
(g6
S'\x05\x00\x00\x00'
p74
tp75
Rp76
(I0
I13
tp77
tp78
a(g2
(g6
S'\x02\x00\x00\x00'
p79
tp80
Rp81
(I13
I73
tp82
tp83
a(g2
(g6
S'\x05\x00\x00\x00'
p84
tp85
Rp86
(I73
I77
tp87
tp88
aa(lp89
(g2
(g6
S'\x05\x00\x00\x00'
p90
tp91
Rp92
(I0
I13
tp93
tp94
a(g2
(g6
S'\x02\x00\x00\x00'
p95
tp96
Rp97
(I13
I73
tp98
tp99
a(g2
(g6
S'\x05\x00\x00\x00'
p100
tp101
Rp102
(I73
I77
tp103
tp104
aa(lp105
(g2
(g6
S'\x05\x00\x00\x00'
p106
tp107
Rp108
(I0
I15
tp109
tp110
a(g2
(g6
S'\x02\x00\x00\x00'
p111
tp112
Rp113
(I15
I73
tp114
tp115
a(g2
(g6
S'\x05\x00\x00\x00'
p116
tp117
Rp118
(I73
I77
tp119
tp120
aa(lp121
(g2
(g6
S'\x05\x00\x00\x00'
p122
tp123
Rp124
(I0
I13
tp125
tp126
a(g2
(g6
S'\x02\x00\x00\x00'
p127
tp128
Rp129
(I13
I73
tp130
tp131
a(g2
(g6
S'\x05\x00\x00\x00'
p132
tp133
Rp134
(I73
I77
tp135
tp136
aa(lp137
(g2
(g6
S'\x05\x00\x00\x00'
p138
tp139
Rp140
(I0
I17
tp141
tp142
a(g2
(g6
S'\x02\x00\x00\x00'
p143
tp144
Rp145
(I17
I77
tp146
tp147
aa(lp148
(g2
(g6
S'\x05\x00\x00\x00'
p149
tp150
Rp151
(I0
I13
tp152
tp153
a(g2
(g6
S'\x02\x00\x00\x00'
p154
tp155
Rp156
(I13
I73
tp157
tp158
a(g2
(g6
S'\x05\x00\x00\x00'
p159
tp160
Rp161
(I73
I77
tp162
tp163
aa(lp164
(g2
(g6
S'\x05\x00\x00\x00'
p165
tp166
Rp167
(I0
I15
tp168
tp169
a(g2
(g6
S'\x02\x00\x00\x00'
p170
tp171
Rp172
(I15
I73
tp173
tp174
a(g2
(g6
S'\x05\x00\x00\x00'
p175
tp176
Rp177
(I73
I77
tp178
tp179
aa(lp180
(g2
(g6
S'\x05\x00\x00\x00'
p181
tp182
Rp183
(I0
I13
tp184
tp185
a(g2
(g6
S'\x02\x00\x00\x00'
p186
tp187
Rp188
(I13
I73
tp189
tp190
a(g2
(g6
S'\x05\x00\x00\x00'
p191
tp192
Rp193
(I73
I77
tp194
tp195
aa(lp196
(g2
(g6
S'\x05\x00\x00\x00'
p197
tp198
Rp199
(I0
I14
tp200
tp201
a(g2
(g6
S'\x02\x00\x00\x00'
p202
tp203
Rp204
(I14
I73
tp205
tp206
a(g2
(g6
S'\x05\x00\x00\x00'
p207
tp208
Rp209
(I73
I77
tp210
tp211
aa(lp212
(g2
(g6
S'\x05\x00\x00\x00'
p213
tp214
Rp215
(I0
I13
tp216
tp217
a(g2
(g6
S'\x02\x00\x00\x00'
p218
tp219
Rp220
(I13
I73
tp221
tp222
a(g2
(g6
S'\x05\x00\x00\x00'
p223
tp224
Rp225
(I73
I77
tp226
tp227
aa(lp228
(g2
(g6
S'\x05\x00\x00\x00'
p229
tp230
Rp231
(I0
I14
tp232
tp233
a(g2
(g6
S'\x02\x00\x00\x00'
p234
tp235
Rp236
(I14
I73
tp237
tp238
a(g2
(g6
S'\x05\x00\x00\x00'
p239
tp240
Rp241
(I73
I77
tp242
tp243
aa(lp244
(g2
(g6
S'\x05\x00\x00\x00'
p245
tp246
Rp247
(I0
I13
tp248
tp249
a(g2
(g6
S'\x02\x00\x00\x00'
p250
tp251
Rp252
(I13
I73
tp253
tp254
a(g2
(g6
S'\x05\x00\x00\x00'
p255
tp256
Rp257
(I73
I77
tp258
tp259
aa(lp260
(g2
(g6
S'\x05\x00\x00\x00'
p261
tp262
Rp263
(I0
I14
tp264
tp265
a(g2
(g6
S'\x02\x00\x00\x00'
p266
tp267
Rp268
(I14
I73
tp269
tp270
a(g2
(g6
S'\x05\x00\x00\x00'
p271
tp272
Rp273
(I73
I77
tp274
tp275
aa(lp276
(g2
(g6
S'\x05\x00\x00\x00'
p277
tp278
Rp279
(I0
I13
tp280
tp281
a(g2
(g6
S'\x02\x00\x00\x00'
p282
tp283
Rp284
(I13
I73
tp285
tp286
a(g2
(g6
S'\x05\x00\x00\x00'
p287
tp288
Rp289
(I73
I77
tp290
tp291
aa(lp292
(g2
(g6
S'\x05\x00\x00\x00'
p293
tp294
Rp295
(I0
I16
tp296
tp297
a(g2
(g6
S'\x02\x00\x00\x00'
p298
tp299
Rp300
(I16
I73
tp301
tp302
a(g2
(g6
S'\x05\x00\x00\x00'
p303
tp304
Rp305
(I73
I77
tp306
tp307
aa(lp308
(g2
(g6
S'\x05\x00\x00\x00'
p309
tp310
Rp311
(I0
I13
tp312
tp313
a(g2
(g6
S'\x02\x00\x00\x00'
p314
tp315
Rp316
(I13
I73
tp317
tp318
a(g2
(g6
S'\x05\x00\x00\x00'
p319
tp320
Rp321
(I73
I77
tp322
tp323
aa(lp324
(g2
(g6
S'\x05\x00\x00\x00'
p325
tp326
Rp327
(I0
I13
tp328
tp329
a(g2
(g6
S'\x02\x00\x00\x00'
p330
tp331
Rp332
(I13
I73
tp333
tp334
a(g2
(g6
S'\x05\x00\x00\x00'
p335
tp336
Rp337
(I73
I77
tp338
tp339
aa(lp340
(g2
(g6
S'\x05\x00\x00\x00'
p341
tp342
Rp343
(I0
I17
tp344
tp345
a(g2
(g6
S'\x02\x00\x00\x00'
p346
tp347
Rp348
(I17
I77
tp349
tp350
aa(lp351
(g2
(g6
S'\x05\x00\x00\x00'
p352
tp353
Rp354
(I0
I17
tp355
tp356
a(g2
(g6
S'\x02\x00\x00\x00'
p357
tp358
Rp359
(I17
I77
tp360
tp361
aa(lp362
(g2
(g6
S'\x05\x00\x00\x00'
p363
tp364
Rp365
(I0
I17
tp366
tp367
a(g2
(g6
S'\x02\x00\x00\x00'
p368
tp369
Rp370
(I17
I77
tp371
tp372
aa(lp373
(g2
(g6
S'\x02\x00\x00\x00'
p374
tp375
Rp376
(I0
I42
tp377
tp378
a(g2
(g6
S'\x02\x00\x00\x00'
p379
tp380
Rp381
(I42
I77
tp382
tp383
aa(lp384
(g2
(g6
S'\x05\x00\x00\x00'
p385
tp386
Rp387
(I0
I13
tp388
tp389
a(g2
(g6
S'\x02\x00\x00\x00'
p390
tp391
Rp392
(I13
I73
tp393
tp394
a(g2
(g6
S'\x05\x00\x00\x00'
p395
tp396
Rp397
(I73
I77
tp398
tp399
aa(lp400
(g2
(g6
S'\x05\x00\x00\x00'
p401
tp402
Rp403
(I0
I13
tp404
tp405
a(g2
(g6
S'\x02\x00\x00\x00'
p406
tp407
Rp408
(I13
I72
tp409
tp410
a(g2
(g6
S'\x05\x00\x00\x00'
p411
tp412
Rp413
(I72
I77
tp414
tp415
aa(lp416
(g2
(g6
S'\x05\x00\x00\x00'
p417
tp418
Rp419
(I0
I13
tp420
tp421
a(g2
(g6
S'\x02\x00\x00\x00'
p422
tp423
Rp424
(I13
I73
tp425
tp426
a(g2
(g6
S'\x05\x00\x00\x00'
p427
tp428
Rp429
(I73
I77
tp430
tp431
aa(lp432
(g2
(g6
S'\x05\x00\x00\x00'
p433
tp434
Rp435
(I0
I16
tp436
tp437
a(g2
(g6
S'\x02\x00\x00\x00'
p438
tp439
Rp440
(I16
I73
tp441
tp442
a(g2
(g6
S'\x05\x00\x00\x00'
p443
tp444
Rp445
(I73
I77
tp446
tp447
aa(lp448
(g2
(g6
S'\x05\x00\x00\x00'
p449
tp450
Rp451
(I0
I13
tp452
tp453
a(g2
(g6
S'\x02\x00\x00\x00'
p454
tp455
Rp456
(I13
I73
tp457
tp458
a(g2
(g6
S'\x05\x00\x00\x00'
p459
tp460
Rp461
(I73
I77
tp462
tp463
aa(lp464
(g2
(g6
S'\x05\x00\x00\x00'
p465
tp466
Rp467
(I0
I17
tp468
tp469
a(g2
(g6
S'\x02\x00\x00\x00'
p470
tp471
Rp472
(I17
I77
tp473
tp474
aa(lp475
(g2
(g6
S'\x05\x00\x00\x00'
p476
tp477
Rp478
(I0
I17
tp479
tp480
a(g2
(g6
S'\x02\x00\x00\x00'
p481
tp482
Rp483
(I17
I77
tp484
tp485
aa(lp486
(g2
(g6
S'\x05\x00\x00\x00'
p487
tp488
Rp489
(I0
I17
tp490
tp491
a(g2
(g6
S'\x02\x00\x00\x00'
p492
tp493
Rp494
(I17
I77
tp495
tp496
aa(lp497
(g2
(g6
S'\x05\x00\x00\x00'
p498
tp499
Rp500
(I0
I17
tp501
tp502
a(g2
(g6
S'\x02\x00\x00\x00'
p503
tp504
Rp505
(I17
I77
tp506
tp507
aa(lp508
(g2
(g6
S'\x02\x00\x00\x00'
p509
tp510
Rp511
(I0
I45
tp512
tp513
a(g2
(g6
S'\x02\x00\x00\x00'
p514
tp515
Rp516
(I45
I77
tp517
tp518
aa(lp519
(g2
(g6
S'\x05\x00\x00\x00'
p520
tp521
Rp522
(I0
I17
tp523
tp524
a(g2
(g6
S'\x02\x00\x00\x00'
p525
tp526
Rp527
(I17
I77
tp528
tp529
aa(lp530
(g2
(g6
S'\x05\x00\x00\x00'
p531
tp532
Rp533
(I0
I17
tp534
tp535
a(g2
(g6
S'\x02\x00\x00\x00'
p536
tp537
Rp538
(I17
I77
tp539
tp540
aa(lp541
(g2
(g6
S'\x05\x00\x00\x00'
p542
tp543
Rp544
(I0
I13
tp545
tp546
a(g2
(g6
S'\x02\x00\x00\x00'
p547
tp548
Rp549
(I13
I73
tp550
tp551
a(g2
(g6
S'\x05\x00\x00\x00'
p552
tp553
Rp554
(I73
I77
tp555
tp556
aa(lp557
(g2
(g6
S'\x05\x00\x00\x00'
p558
tp559
Rp560
(I0
I15
tp561
tp562
a(g2
(g6
S'\x02\x00\x00\x00'
p563
tp564
Rp565
(I15
I73
tp566
tp567
a(g2
(g6
S'\x05\x00\x00\x00'
p568
tp569
Rp570
(I73
I77
tp571
tp572
aa(lp573
(g2
(g6
S'\x05\x00\x00\x00'
p574
tp575
Rp576
(I0
I17
tp577
tp578
a(g2
(g6
S'\x02\x00\x00\x00'
p579
tp580
Rp581
(I17
I77
tp582
tp583
aa(lp584
(g2
(g6
S'\x05\x00\x00\x00'
p585
tp586
Rp587
(I0
I17
tp588
tp589
a(g2
(g6
S'\x02\x00\x00\x00'
p590
tp591
Rp592
(I17
I77
tp593
tp594
aa(lp595
(g2
(g6
S'\x05\x00\x00\x00'
p596
tp597
Rp598
(I0
I17
tp599
tp600
a(g2
(g6
S'\x02\x00\x00\x00'
p601
tp602
Rp603
(I17
I77
tp604
tp605
aa(lp606
(g2
(g6
S'\x05\x00\x00\x00'
p607
tp608
Rp609
(I0
I13
tp610
tp611
a(g2
(g6
S'\x02\x00\x00\x00'
p612
tp613
Rp614
(I13
I73
tp615
tp616
a(g2
(g6
S'\x05\x00\x00\x00'
p617
tp618
Rp619
(I73
I77
tp620
tp621
aa(lp622
(g2
(g6
S'\x05\x00\x00\x00'
p623
tp624
Rp625
(I0
I17
tp626
tp627
a(g2
(g6
S'\x02\x00\x00\x00'
p628
tp629
Rp630
(I17
I77
tp631
tp632
aa(lp633
(g2
(g6
S'\x05\x00\x00\x00'
p634
tp635
Rp636
(I0
I17
tp637
tp638
a(g2
(g6
S'\x02\x00\x00\x00'
p639
tp640
Rp641
(I17
I77
tp642
tp643
aa(lp644
(g2
(g6
S'\x05\x00\x00\x00'
p645
tp646
Rp647
(I0
I17
tp648
tp649
a(g2
(g6
S'\x02\x00\x00\x00'
p650
tp651
Rp652
(I17
I77
tp653
tp654
aa(lp655
(g2
(g6
S'\x05\x00\x00\x00'
p656
tp657
Rp658
(I0
I17
tp659
tp660
a(g2
(g6
S'\x02\x00\x00\x00'
p661
tp662
Rp663
(I17
I77
tp664
tp665
aa(lp666
(g2
(g6
S'\x05\x00\x00\x00'
p667
tp668
Rp669
(I0
I15
tp670
tp671
a(g2
(g6
S'\x02\x00\x00\x00'
p672
tp673
Rp674
(I15
I73
tp675
tp676
a(g2
(g6
S'\x05\x00\x00\x00'
p677
tp678
Rp679
(I73
I77
tp680
tp681
aa(lp682
(g2
(g6
S'\x05\x00\x00\x00'
p683
tp684
Rp685
(I0
I17
tp686
tp687
a(g2
(g6
S'\x02\x00\x00\x00'
p688
tp689
Rp690
(I17
I77
tp691
tp692
aa(lp693
(g2
(g6
S'\x05\x00\x00\x00'
p694
tp695
Rp696
(I0
I13
tp697
tp698
a(g2
(g6
S'\x02\x00\x00\x00'
p699
tp700
Rp701
(I13
I73
tp702
tp703
a(g2
(g6
S'\x05\x00\x00\x00'
p704
tp705
Rp706
(I73
I77
tp707
tp708
aa(lp709
(g2
(g6
S'\x05\x00\x00\x00'
p710
tp711
Rp712
(I0
I14
tp713
tp714
a(g2
(g6
S'\x02\x00\x00\x00'
p715
tp716
Rp717
(I14
I73
tp718
tp719
a(g2
(g6
S'\x05\x00\x00\x00'
p720
tp721
Rp722
(I73
I77
tp723
tp724
aa(lp725
(g2
(g6
S'\x05\x00\x00\x00'
p726
tp727
Rp728
(I0
I17
tp729
tp730
a(g2
(g6
S'\x02\x00\x00\x00'
p731
tp732
Rp733
(I17
I77
tp734
tp735
aa(lp736
(g2
(g6
S'\x05\x00\x00\x00'
p737
tp738
Rp739
(I0
I15
tp740
tp741
a(g2
(g6
S'\x02\x00\x00\x00'
p742
tp743
Rp744
(I15
I73
tp745
tp746
a(g2
(g6
S'\x05\x00\x00\x00'
p747
tp748
Rp749
(I73
I77
tp750
tp751
aa(lp752
(g2
(g6
S'\x05\x00\x00\x00'
p753
tp754
Rp755
(I0
I14
tp756
tp757
a(g2
(g6
S'\x02\x00\x00\x00'
p758
tp759
Rp760
(I14
I73
tp761
tp762
a(g2
(g6
S'\x05\x00\x00\x00'
p763
tp764
Rp765
(I73
I77
tp766
tp767
aa(lp768
(g2
(g6
S'\x05\x00\x00\x00'
p769
tp770
Rp771
(I0
I13
tp772
tp773
a(g2
(g6
S'\x02\x00\x00\x00'
p774
tp775
Rp776
(I13
I73
tp777
tp778
a(g2
(g6
S'\x05\x00\x00\x00'
p779
tp780
Rp781
(I73
I77
tp782
tp783
aa(lp784
(g2
(g6
S'\x05\x00\x00\x00'
p785
tp786
Rp787
(I0
I15
tp788
tp789
a(g2
(g6
S'\x02\x00\x00\x00'
p790
tp791
Rp792
(I15
I73
tp793
tp794
a(g2
(g6
S'\x05\x00\x00\x00'
p795
tp796
Rp797
(I73
I77
tp798
tp799
aa(lp800
(g2
(g6
S'\x05\x00\x00\x00'
p801
tp802
Rp803
(I0
I13
tp804
tp805
a(g2
(g6
S'\x02\x00\x00\x00'
p806
tp807
Rp808
(I13
I73
tp809
tp810
a(g2
(g6
S'\x05\x00\x00\x00'
p811
tp812
Rp813
(I73
I77
tp814
tp815
aa(lp816
(g2
(g6
S'\x05\x00\x00\x00'
p817
tp818
Rp819
(I0
I17
tp820
tp821
a(g2
(g6
S'\x02\x00\x00\x00'
p822
tp823
Rp824
(I17
I77
tp825
tp826
aa(lp827
(g2
(g6
S'\x05\x00\x00\x00'
p828
tp829
Rp830
(I0
I15
tp831
tp832
a(g2
(g6
S'\x02\x00\x00\x00'
p833
tp834
Rp835
(I15
I73
tp836
tp837
a(g2
(g6
S'\x05\x00\x00\x00'
p838
tp839
Rp840
(I73
I77
tp841
tp842
aa(lp843
(g2
(g6
S'\x05\x00\x00\x00'
p844
tp845
Rp846
(I0
I17
tp847
tp848
a(g2
(g6
S'\x02\x00\x00\x00'
p849
tp850
Rp851
(I17
I77
tp852
tp853
aa(lp854
(g2
(g6
S'\x05\x00\x00\x00'
p855
tp856
Rp857
(I0
I17
tp858
tp859
a(g2
(g6
S'\x02\x00\x00\x00'
p860
tp861
Rp862
(I17
I77
tp863
tp864
aa(lp865
(g2
(g6
S'\x05\x00\x00\x00'
p866
tp867
Rp868
(I0
I13
tp869
tp870
a(g2
(g6
S'\x02\x00\x00\x00'
p871
tp872
Rp873
(I13
I73
tp874
tp875
a(g2
(g6
S'\x05\x00\x00\x00'
p876
tp877
Rp878
(I73
I77
tp879
tp880
aa(lp881
(g2
(g6
S'\x05\x00\x00\x00'
p882
tp883
Rp884
(I0
I17
tp885
tp886
a(g2
(g6
S'\x02\x00\x00\x00'
p887
tp888
Rp889
(I17
I77
tp890
tp891
aa(lp892
(g2
(g6
S'\x05\x00\x00\x00'
p893
tp894
Rp895
(I0
I13
tp896
tp897
a(g2
(g6
S'\x02\x00\x00\x00'
p898
tp899
Rp900
(I13
I73
tp901
tp902
a(g2
(g6
S'\x05\x00\x00\x00'
p903
tp904
Rp905
(I73
I77
tp906
tp907
aa(lp908
(g2
(g6
S'\x05\x00\x00\x00'
p909
tp910
Rp911
(I0
I14
tp912
tp913
a(g2
(g6
S'\x02\x00\x00\x00'
p914
tp915
Rp916
(I14
I73
tp917
tp918
a(g2
(g6
S'\x05\x00\x00\x00'
p919
tp920
Rp921
(I73
I77
tp922
tp923
aa(lp924
(g2
(g6
S'\x05\x00\x00\x00'
p925
tp926
Rp927
(I0
I14
tp928
tp929
a(g2
(g6
S'\x02\x00\x00\x00'
p930
tp931
Rp932
(I14
I73
tp933
tp934
a(g2
(g6
S'\x05\x00\x00\x00'
p935
tp936
Rp937
(I73
I77
tp938
tp939
aa(lp940
(g2
(g6
S'\x05\x00\x00\x00'
p941
tp942
Rp943
(I0
I17
tp944
tp945
a(g2
(g6
S'\x02\x00\x00\x00'
p946
tp947
Rp948
(I17
I77
tp949
tp950
aa(lp951
(g2
(g6
S'\x05\x00\x00\x00'
p952
tp953
Rp954
(I0
I13
tp955
tp956
a(g2
(g6
S'\x02\x00\x00\x00'
p957
tp958
Rp959
(I13
I73
tp960
tp961
a(g2
(g6
S'\x05\x00\x00\x00'
p962
tp963
Rp964
(I73
I77
tp965
tp966
aa(lp967
(g2
(g6
S'\x05\x00\x00\x00'
p968
tp969
Rp970
(I0
I13
tp971
tp972
a(g2
(g6
S'\x02\x00\x00\x00'
p973
tp974
Rp975
(I13
I73
tp976
tp977
a(g2
(g6
S'\x05\x00\x00\x00'
p978
tp979
Rp980
(I73
I77
tp981
tp982
aa(lp983
(g2
(g6
S'\x05\x00\x00\x00'
p984
tp985
Rp986
(I0
I14
tp987
tp988
a(g2
(g6
S'\x02\x00\x00\x00'
p989
tp990
Rp991
(I14
I73
tp992
tp993
a(g2
(g6
S'\x05\x00\x00\x00'
p994
tp995
Rp996
(I73
I77
tp997
tp998
aa(lp999
(g2
(g6
S'\x05\x00\x00\x00'
p1000
tp1001
Rp1002
(I0
I13
tp1003
tp1004
a(g2
(g6
S'\x02\x00\x00\x00'
p1005
tp1006
Rp1007
(I13
I73
tp1008
tp1009
a(g2
(g6
S'\x05\x00\x00\x00'
p1010
tp1011
Rp1012
(I73
I77
tp1013
tp1014
aa(lp1015
(g2
(g6
S'\x05\x00\x00\x00'
p1016
tp1017
Rp1018
(I0
I14
tp1019
tp1020
a(g2
(g6
S'\x02\x00\x00\x00'
p1021
tp1022
Rp1023
(I14
I73
tp1024
tp1025
a(g2
(g6
S'\x05\x00\x00\x00'
p1026
tp1027
Rp1028
(I73
I77
tp1029
tp1030
aa(lp1031
(g2
(g6
S'\x05\x00\x00\x00'
p1032
tp1033
Rp1034
(I0
I13
tp1035
tp1036
a(g2
(g6
S'\x02\x00\x00\x00'
p1037
tp1038
Rp1039
(I13
I73
tp1040
tp1041
a(g2
(g6
S'\x05\x00\x00\x00'
p1042
tp1043
Rp1044
(I73
I77
tp1045
tp1046
aa(lp1047
(g2
(g6
S'\x05\x00\x00\x00'
p1048
tp1049
Rp1050
(I0
I17
tp1051
tp1052
a(g2
(g6
S'\x02\x00\x00\x00'
p1053
tp1054
Rp1055
(I17
I77
tp1056
tp1057
aa(lp1058
(g2
(g6
S'\x05\x00\x00\x00'
p1059
tp1060
Rp1061
(I0
I15
tp1062
tp1063
a(g2
(g6
S'\x02\x00\x00\x00'
p1064
tp1065
Rp1066
(I15
I73
tp1067
tp1068
a(g2
(g6
S'\x05\x00\x00\x00'
p1069
tp1070
Rp1071
(I73
I77
tp1072
tp1073
aa(lp1074
(g2
(g6
S'\x05\x00\x00\x00'
p1075
tp1076
Rp1077
(I0
I13
tp1078
tp1079
a(g2
(g6
S'\x02\x00\x00\x00'
p1080
tp1081
Rp1082
(I13
I73
tp1083
tp1084
a(g2
(g6
S'\x05\x00\x00\x00'
p1085
tp1086
Rp1087
(I73
I77
tp1088
tp1089
aa(lp1090
(g2
(g6
S'\x05\x00\x00\x00'
p1091
tp1092
Rp1093
(I0
I17
tp1094
tp1095
a(g2
(g6
S'\x02\x00\x00\x00'
p1096
tp1097
Rp1098
(I17
I77
tp1099
tp1100
aa(lp1101
(g2
(g6
S'\x05\x00\x00\x00'
p1102
tp1103
Rp1104
(I0
I17
tp1105
tp1106
a(g2
(g6
S'\x02\x00\x00\x00'
p1107
tp1108
Rp1109
(I17
I77
tp1110
tp1111
aa(lp1112
(g2
(g6
S'\x05\x00\x00\x00'
p1113
tp1114
Rp1115
(I0
I17
tp1116
tp1117
a(g2
(g6
S'\x02\x00\x00\x00'
p1118
tp1119
Rp1120
(I17
I77
tp1121
tp1122
aa(lp1123
(g2
(g6
S'\x05\x00\x00\x00'
p1124
tp1125
Rp1126
(I0
I17
tp1127
tp1128
a(g2
(g6
S'\x02\x00\x00\x00'
p1129
tp1130
Rp1131
(I17
I77
tp1132
tp1133
aa(lp1134
(g2
(g6
S'\x05\x00\x00\x00'
p1135
tp1136
Rp1137
(I0
I13
tp1138
tp1139
a(g2
(g6
S'\x02\x00\x00\x00'
p1140
tp1141
Rp1142
(I13
I73
tp1143
tp1144
a(g2
(g6
S'\x05\x00\x00\x00'
p1145
tp1146
Rp1147
(I73
I77
tp1148
tp1149
aa(lp1150
(g2
(g6
S'\x05\x00\x00\x00'
p1151
tp1152
Rp1153
(I0
I13
tp1154
tp1155
a(g2
(g6
S'\x02\x00\x00\x00'
p1156
tp1157
Rp1158
(I13
I73
tp1159
tp1160
a(g2
(g6
S'\x05\x00\x00\x00'
p1161
tp1162
Rp1163
(I73
I77
tp1164
tp1165
aa(lp1166
(g2
(g6
S'\x05\x00\x00\x00'
p1167
tp1168
Rp1169
(I0
I17
tp1170
tp1171
a(g2
(g6
S'\x02\x00\x00\x00'
p1172
tp1173
Rp1174
(I17
I77
tp1175
tp1176
aa(lp1177
(g2
(g6
S'\x05\x00\x00\x00'
p1178
tp1179
Rp1180
(I0
I17
tp1181
tp1182
a(g2
(g6
S'\x02\x00\x00\x00'
p1183
tp1184
Rp1185
(I17
I77
tp1186
tp1187
aa(lp1188
(g2
(g6
S'\x05\x00\x00\x00'
p1189
tp1190
Rp1191
(I0
I13
tp1192
tp1193
a(g2
(g6
S'\x02\x00\x00\x00'
p1194
tp1195
Rp1196
(I13
I73
tp1197
tp1198
a(g2
(g6
S'\x05\x00\x00\x00'
p1199
tp1200
Rp1201
(I73
I77
tp1202
tp1203
aa(lp1204
(g2
(g6
S'\x05\x00\x00\x00'
p1205
tp1206
Rp1207
(I0
I13
tp1208
tp1209
a(g2
(g6
S'\x02\x00\x00\x00'
p1210
tp1211
Rp1212
(I13
I73
tp1213
tp1214
a(g2
(g6
S'\x05\x00\x00\x00'
p1215
tp1216
Rp1217
(I73
I77
tp1218
tp1219
aa(lp1220
(g2
(g6
S'\x05\x00\x00\x00'
p1221
tp1222
Rp1223
(I0
I16
tp1224
tp1225
a(g2
(g6
S'\x02\x00\x00\x00'
p1226
tp1227
Rp1228
(I16
I73
tp1229
tp1230
a(g2
(g6
S'\x05\x00\x00\x00'
p1231
tp1232
Rp1233
(I73
I77
tp1234
tp1235
aa(lp1236
(g2
(g6
S'\x05\x00\x00\x00'
p1237
tp1238
Rp1239
(I0
I17
tp1240
tp1241
a(g2
(g6
S'\x02\x00\x00\x00'
p1242
tp1243
Rp1244
(I17
I77
tp1245
tp1246
aa(lp1247
(g2
(g6
S'\x05\x00\x00\x00'
p1248
tp1249
Rp1250
(I0
I18
tp1251
tp1252
a(g2
(g6
S'\x02\x00\x00\x00'
p1253
tp1254
Rp1255
(I18
I77
tp1256
tp1257
aa(lp1258
(g2
(g6
S'\x02\x00\x00\x00'
p1259
tp1260
Rp1261
(I0
I39
tp1262
tp1263
a(g2
(g6
S'\x02\x00\x00\x00'
p1264
tp1265
Rp1266
(I39
I77
tp1267
tp1268
aa(lp1269
(g2
(g6
S'\x05\x00\x00\x00'
p1270
tp1271
Rp1272
(I0
I17
tp1273
tp1274
a(g2
(g6
S'\x02\x00\x00\x00'
p1275
tp1276
Rp1277
(I17
I77
tp1278
tp1279
aa(lp1280
(g2
(g6
S'\x05\x00\x00\x00'
p1281
tp1282
Rp1283
(I0
I17
tp1284
tp1285
a(g2
(g6
S'\x02\x00\x00\x00'
p1286
tp1287
Rp1288
(I17
I77
tp1289
tp1290
aa(lp1291
(g2
(g6
S'\x05\x00\x00\x00'
p1292
tp1293
Rp1294
(I0
I18
tp1295
tp1296
a(g2
(g6
S'\x02\x00\x00\x00'
p1297
tp1298
Rp1299
(I18
I77
tp1300
tp1301
aa(lp1302
(g2
(g6
S'\x05\x00\x00\x00'
p1303
tp1304
Rp1305
(I0
I17
tp1306
tp1307
a(g2
(g6
S'\x02\x00\x00\x00'
p1308
tp1309
Rp1310
(I17
I77
tp1311
tp1312
aa(lp1313
(g2
(g6
S'\x05\x00\x00\x00'
p1314
tp1315
Rp1316
(I0
I17
tp1317
tp1318
a(g2
(g6
S'\x02\x00\x00\x00'
p1319
tp1320
Rp1321
(I17
I77
tp1322
tp1323
aa(lp1324
(g2
(g6
S'\x05\x00\x00\x00'
p1325
tp1326
Rp1327
(I0
I17
tp1328
tp1329
a(g2
(g6
S'\x02\x00\x00\x00'
p1330
tp1331
Rp1332
(I17
I77
tp1333
tp1334
aa(lp1335
(g2
(g6
S'\x05\x00\x00\x00'
p1336
tp1337
Rp1338
(I0
I17
tp1339
tp1340
a(g2
(g6
S'\x02\x00\x00\x00'
p1341
tp1342
Rp1343
(I17
I77
tp1344
tp1345
aa(lp1346
(g2
(g6
S'\x02\x00\x00\x00'
p1347
tp1348
Rp1349
(I0
I40
tp1350
tp1351
a(g2
(g6
S'\x03\x00\x00\x00'
p1352
tp1353
Rp1354
(I40
I77
tp1355
tp1356
aa(lp1357
(g2
(g6
S'\x02\x00\x00\x00'
p1358
tp1359
Rp1360
(I0
I47
tp1361
tp1362
a(g2
(g6
S'\x03\x00\x00\x00'
p1363
tp1364
Rp1365
(I47
I77
tp1366
tp1367
aa.