(lp0
(lp1
(cnumpy.core.multiarray
scalar
p2
(cnumpy
dtype
p3
(S'i4'
p4
I0
I1
tp5
Rp6
(I3
S'<'
p7
NNNI-1
I-1
I0
tp8
bS'\x02\x00\x00\x00'
p9
tp10
Rp11
(I0
I26
tp12
tp13
aa(lp14
(g2
(g6
S'\x02\x00\x00\x00'
p15
tp16
Rp17
(I0
I26
tp18
tp19
aa(lp20
(g2
(g6
S'\x02\x00\x00\x00'
p21
tp22
Rp23
(I0
I26
tp24
tp25
aa(lp26
(g2
(g6
S'\x02\x00\x00\x00'
p27
tp28
Rp29
(I0
I26
tp30
tp31
aa(lp32
(g2
(g6
S'\x02\x00\x00\x00'
p33
tp34
Rp35
(I0
I26
tp36
tp37
aa(lp38
(g2
(g6
S'\x02\x00\x00\x00'
p39
tp40
Rp41
(I0
I26
tp42
tp43
aa(lp44
(g2
(g6
S'\x02\x00\x00\x00'
p45
tp46
Rp47
(I0
I26
tp48
tp49
aa(lp50
(g2
(g6
S'\x02\x00\x00\x00'
p51
tp52
Rp53
(I0
I26
tp54
tp55
aa(lp56
(g2
(g6
S'\x02\x00\x00\x00'
p57
tp58
Rp59
(I0
I26
tp60
tp61
aa(lp62
(g2
(g6
S'\x02\x00\x00\x00'
p63
tp64
Rp65
(I0
I26
tp66
tp67
aa.